 SRR2xr

 Timestamp is 3f064089 (Fri Jul 04 20:05:45 2003)

 Preferred load address is 00400000

 Start         Length     Name                   Class
 0001:00000000 001f9f92H .text                   CODE
 0001:001f9fa0 0000ddf5H .text$x                 CODE
 0001:00207da0 00006575H .text$yc                CODE
 0001:0020e320 0000046aH .text$yd                CODE
 0002:00000000 0000ec24H D3D                     CODE
 0002:0000ec28 000012bfH D3D_RD                  CODE
 0002:0000fef0 00003498H D3D_URW                 CODE
 0003:00000000 0000d33aH BINK                    CODE
 0004:00000000 00001265H BINK32                  CODE
 0005:00000000 00001579H BINK32A                 CODE
 0006:00000000 0000131bH BINK16                  CODE
 0007:00000000 0000159fH BINK4444                CODE
 0008:00000000 00001132H BINK5551                CODE
 0009:00000000 00000cacH BINKYUY2                CODE
 000a:00000000 0000009aH BINKYUY2MX2             CODE
 000b:00000000 000000b7H BINKYUY2X2              CODE
 000c:00000000 00000087H BINKYUY2M               CODE
 000d:00000000 0000012eH BINK16MX2               CODE
 000e:00000000 00000558H BINK16X2                CODE
 000f:00000000 000001f7H BINK16M                 CODE
 0010:00000000 000001baH BINK32MX2               CODE
 0011:00000000 0000058bH BINK32X2                CODE
 0012:00000000 0000014cH BINK32M                 CODE
 0013:00000000 00001217H XGRPH                   CODE
 0013:00001218 00000000H XGRPH_RD                CODE
 0014:00000000 000093beH DSOUND                  CODE
 0014:000093c0 00012a54H DSOUND_RD               CODE
 0014:0001be18 000006c8H DSOUND_RW               CODE
 0014:0001c4e0 000001dcH DSOUND_URW              CODE
 0015:00000000 00000004H .XID$A                  CODE
 0015:00000004 00000004H .XID$Gamepad            CODE
 0015:00000008 00000004H .XID$IrRemote           CODE
 0015:0000000c 00000004H .XID$ZZZ                CODE
 0015:00000010 00000004H .XPP$ClassA             CODE
 0015:00000014 00000004H .XPP$ClassMU            CODE
 0015:00000018 00000008H .XPP$ClassXID           CODE
 0015:00000020 00000004H .XPP$ClassZZHub         CODE
 0015:00000024 00000004H .XPP$ClassZZZ           CODE
 0015:00000028 00000001H .XPP$DATA               CODE
 0015:00000030 000001acH .XPP$Data               CODE
 0015:000001dc 00000db6H .XPPCINIT               CODE
 0015:00000f92 00006cd9H .XPPCODE                CODE
 0015:00007c6c 00000040H .XPPRDATA               CODE
 0016:00000000 000001f0H .idata$5                DATA
 0016:00000200 00027894H .rdata                  DATA
 0016:00027a94 0000004aH .rdata$debug            DATA
 0016:00027ae0 0001b8d0H .rdata$r                DATA
 0016:000433b0 0000f918H .xdata$x                DATA
 0016:00052cc8 00000000H .edata                  DATA
 0017:00000000 00000004H .CRT$RIA                DATA
 0017:00000004 00000004H .CRT$RII10              DATA
 0017:00000008 00000004H .CRT$RII20              DATA
 0017:0000000c 00000004H .CRT$RIZ                DATA
 0017:00000010 00000004H .CRT$XCA                DATA
 0017:00000014 00000308H .CRT$XCU                DATA
 0017:0000031c 00000004H .CRT$XCZ                DATA
 0017:00000320 00000004H .CRT$XIA                DATA
 0017:00000324 0000000cH .CRT$XIC                DATA
 0017:00000330 00000004H .CRT$XIY                DATA
 0017:00000334 00000004H .CRT$XIZ                DATA
 0017:00000338 00000004H .CRT$XPA                DATA
 0017:0000033c 00000004H .CRT$XPX                DATA
 0017:00000340 00000004H .CRT$XPZ                DATA
 0017:00000344 00000004H .CRT$XTA                DATA
 0017:00000348 00000004H .CRT$XTB                DATA
 0017:0000034c 00000004H .CRT$XTZ                DATA
 0017:00000350 00000004H .XAPI$LNA               DATA
 0017:00000354 00000004H .XAPI$LNZ               DATA
 0017:00000360 00021588H .data                   DATA
 0017:00021900 00066258H .bss                    DATA
 0018:00000000 0000f600H BINKDATA                DATA
 0019:00000000 00007180H DOLBY                   DATA
 001a:00000000 00000014H .idata$2                CODE
 001a:00000014 00000014H .idata$3                CODE
 001a:00000028 000001f0H .idata$4                CODE
 001a:00000218 0000000eH .idata$6                CODE
 001b:00000000 00000010H .XBLD$A                 DATA
 001b:00000010 00000060H .XBLD$V                 DATA
 001c:00000000 00000001H .tls                    DATA
 001c:00000008 000000a0H .tls$                   DATA
 001c:000000a8 00000001H .tls$ZZZ                DATA

  Address         Publics by Value              Rva+Base     Lib:Object

 0000:00000000       ___safe_se_handler_table   00000000     <absolute>
 0000:00000000       ___safe_se_handler_count   00000000     <absolute>
 0000:00000000       __except_list              00000000     <absolute>
 0000:00000004       __tls_array                00000004     <absolute>
 0001:00000000       ?Scale@Vector@RadicalMathLibrary@@QAEXM@Z 00400680 f i actionbuttonhandler.obj
 0001:00000020       ?NormalizeSafe@Vector@RadicalMathLibrary@@QAEMXZ 004006a0 f i actionbuttonhandler.obj
 0001:00000080       ?Mult@Matrix@RadicalMathLibrary@@QAEXABV12@@Z 00400700 f i actionbuttonhandler.obj
 0001:000000b0       ??_H@YGXPAXIHP6EPAX0@Z@Z   00400730 f i actionbuttonhandler.obj
 0001:000000e0       ??0pddiColour@@QAE@HHHH@Z  00400760 f i actionbuttonhandler.obj
 0001:00000110       ??3State@CharacterAi@@SAXPAXI@Z 00400790 f i actionbuttonhandler.obj
 0001:00000130       ?radMakeKey32@@YAIPBDI@Z   004007b0 f i actionbuttonhandler.obj
 0001:00000160       ?GetUID@tName@@QBE?AVtUidUnaligned@@XZ 004007e0 f i actionbuttonhandler.obj
 0001:00000180       ?MakeUID@tEntity@@SA?AVtUidUnaligned@@PBD@Z 00400800 f i actionbuttonhandler.obj
 0001:000001a0       ??3Action@@SAXPAXI@Z       00400820 f i actionbuttonhandler.obj
 0001:000001c0       ??_GAction@@UAEPAXI@Z      00400840 f i actionbuttonhandler.obj
 0001:000001c0       ??_EAction@@UAEPAXI@Z      00400840 f i actionbuttonhandler.obj
 0001:000001f0       ?WakeUp@AssignValueToFloat@@UAEXM@Z 00400870 f i actionbuttonhandler.obj
 0001:00000200       ?AddAction@Sequencer@@QAEXPAVAction@@@Z 00400880 f i actionbuttonhandler.obj
 0001:00000220       ?GetControllerIDforPlayer@InputManager@@QBEHH@Z 004008a0 f i actionbuttonhandler.obj
 0001:00000240       ??1AnimCollisionEntityDSGWrapper@ActionButton@@UAE@XZ 004008c0 f   actionbuttonhandler.obj
 0001:00000260       ?UpdateVisibility@AnimCollisionEntityDSGWrapper@ActionButton@@UAEXXZ 004008e0 f   actionbuttonhandler.obj
 0001:00000270       ?SetView@tContext@@QAEXPAVtView@@@Z 004008f0 f   pure3dxr:context.obj
 0001:00000270       ?SetAllocator@IRadScript@@QAEXH@Z 004008f0 f   radscriptxr:script.obj
 0001:00000270       ?SetGameObject@AnimCollisionEntityDSGWrapper@ActionButton@@QAEXPAVAnimCollisionEntityDSG@@@Z 004008f0 f   actionbuttonhandler.obj
 0001:00000270       ?SetNameOverride@tSimpleChunkHandler@@UAEXPBD@Z 004008f0 f   atcloader.obj
 0001:00000270       ?SetParameter@tBaseEvent@@UAEXI@Z 004008f0 f   pure3dxr:event.obj
 0001:00000270       ?SetCycleMode@tAnimationFrameController@@UAEXW4p3dCycleMode@@@Z 004008f0 f   pure3dxr:cameraanimation.obj
 0001:00000270       ?SetProjectIndex@FeApp@@UAEXI@Z 004008f0 f   ScroobyLib:FeApp.obj
 0001:00000270       ?SetPositionCarrier@PositionalSoundPlayer@@QAEXAAVPositionCarrier@@@Z 004008f0 f   positionalsoundplayer.obj
 0001:00000270       ?Store@tTempStore@@UAEXPAVtEntity@@@Z 004008f0 f   pure3dxr:loadmanager.obj
 0001:00000270       ?SetNextTransition@Chainable1@GuiSFX@@QAEXAAVChainable@2@@Z 004008f0 f   transitions.obj
 0001:00000270       ?SetScroobyImage@ImageSlider@@QAEXPAVSprite@Scrooby@@@Z 004008f0 f   slider.obj
 0001:00000270       ?SetWeakInterface@radWeakInterfaceWrapper@@UAEXPAX@Z 004008f0 f   radcorexr:weakinterfacewrapper.obj
 0001:00000270       ?SetParent@Node@Scenegraph@@UAEXPAV12@@Z 004008f0 f   pure3dxr:scenegraph.obj
 0001:00000270       ?SetNextTransition@Chainable1@GuiSFX@@QAEXPAVChainable@2@@Z 004008f0 f   transitions.obj
 0001:00000270       ?SetSimState@SimulatedObject@sim@@MAEXPAVSimState@2@@Z 004008f0 f   simxr:physicsobject.obj
 0001:00000280       ?GetAnimationDirection@AnimCollisionEntityDSGWrapper@ActionButton@@UAEAAMXZ 00400900 f   actionbuttonhandler.obj
 0001:00000290       ?SetAnimationDirection@AnimCollisionEntityDSGWrapper@ActionButton@@UAEXM@Z 00400910 f   actionbuttonhandler.obj
 0001:000002a0       ?GetAnimController@AnimCollisionEntityDSGWrapper@ActionButton@@UBEPAVtMultiController@@XZ 00400920 f   actionbuttonhandler.obj
 0001:000002b0       ?GetDrawable@AnimCollisionEntityDSGWrapper@ActionButton@@UBEPAVtCompositeDrawable@@XZ 00400930 f   actionbuttonhandler.obj
 0001:000002c0       ??0ButtonHandler@ActionButton@@QAE@XZ 00400940 f   actionbuttonhandler.obj
 0001:000002e0       ?GetDataType@PedGroupLocator@@UBE?AW4Type@LocatorType@@XZ 00400960 f i locatorloader.obj
 0001:000002e0       ?GetType@ButtonHandler@ActionButton@@UAE?AW4Type@12@XZ 00400960 f i actionbuttonhandler.obj
 0001:000002e0       ?GetType@ActionEventHandler@ActionButton@@UAE?AW4Type@ButtonHandler@2@XZ 00400960 f i actionbuttonhandler.obj
 0001:000002e0       ?GetType@RailCam@@UAE?AW4Type@SuperCam@@XZ 00400960 f i railcam.obj
 0001:000002f0       ??1ButtonHandler@ActionButton@@UAE@XZ 00400970 f   actionbuttonhandler.obj
 0001:00000300       ?ButtonPressed@ButtonHandler@ActionButton@@UAE_NPAVCharacter@@@Z 00400980 f   actionbuttonhandler.obj
 0001:00000350       ?Enter@ButtonHandler@ActionButton@@UAEXPAVCharacter@@@Z 004009d0 f   actionbuttonhandler.obj
 0001:00000360       ?IsActionButtonPressed@ButtonHandler@ActionButton@@MAE_NPAVCharacter@@@Z 004009e0 f   actionbuttonhandler.obj
 0001:00000380       ??1EnterInterior@ActionButton@@UAE@XZ 00400a00 f   actionbuttonhandler.obj
 0001:00000390       ?GetDataType@CarStartLocator@@UBE?AW4Type@LocatorType@@XZ 00400a10 f i carstartlocator.obj
 0001:00000390       ?GetType@EnterInterior@ActionButton@@UAE?AW4Type@ButtonHandler@2@XZ 00400a10 f i actionbuttonhandler.obj
 0001:00000390       ?GetStateID@GetIn@CharacterAi@@UBE?AW4CharacterState@2@XZ 00400a10 f i state.obj
 0001:000003a0       ?OnButtonPressed@EnterInterior@ActionButton@@MAE_NPAVCharacter@@PAVSequencer@@@Z 00400a20 f   actionbuttonhandler.obj
 0001:000003d0       ??1GetInCar@ActionButton@@UAE@XZ 00400a50 f   actionbuttonhandler.obj
 0001:00000440       ?OnReset@AnimSwitch@ActionButton@@MAEXXZ 00400ac0 f   actionbuttonhandler.obj
 0001:00000480       ?GetAnimationDirection@AnimSwitch@ActionButton@@QAEAAMXZ 00400b00 f   actionbuttonhandler.obj
 0001:00000490       ?SetAnimationDirection@AnimSwitch@ActionButton@@QAEXM@Z 00400b10 f   actionbuttonhandler.obj
 0001:000004a0       ?GetAnimController@AnimSwitch@ActionButton@@QBEPAVtMultiController@@XZ 00400b20 f   actionbuttonhandler.obj
 0001:000004b0       ?Update@AnimSwitch@ActionButton@@UAEXM@Z 00400b30 f   actionbuttonhandler.obj
 0001:00000500       ?ButtonPressed@AnimSwitch@ActionButton@@UAE_NPAVCharacter@@@Z 00400b80 f   actionbuttonhandler.obj
 0001:00000560       ?PositionCharacter@AnimSwitch@ActionButton@@MAEXPAVCharacter@@PAVSequencer@@@Z 00400be0 f   actionbuttonhandler.obj
 0001:000006d0       ?OnButtonPressed@ReverseAnim@ActionButton@@MAE_NPAVCharacter@@PAVSequencer@@@Z 00400d50 f   actionbuttonhandler.obj
 0001:000007a0       ?OnButtonPressed@PlayAnim@ActionButton@@MAE_NPAVCharacter@@PAVSequencer@@@Z 00400e20 f   actionbuttonhandler.obj
 0001:00000910       ?OnButtonPressed@PlayAnimLoop@ActionButton@@MAE_NPAVCharacter@@PAVSequencer@@@Z 00400f90 f   actionbuttonhandler.obj
 0001:000009f0       ?CanFreeMemoryAligned@MemoryPool@@UAE_NPAX@Z 00401070 f   radcorexr:memorypool.obj
 0001:000009f0       ?IsCacheEmpty@ArticulatedPhysicsObject@sim@@UBE_NH@Z 00401070 f   simxr:articulatedphysicsobject.obj
 0001:000009f0       ?IsActionButtonPressed@AutoPlayAnim@ActionButton@@MAE_NPAVCharacter@@@Z 00401070 f   actionbuttonhandler.obj
 0001:000009f0       ?DoPreDynaLoad@RenderLayer@@UAE_NAAVtName@@@Z 00401070 f   RenderLayer.obj
 0001:000009f0       ?OnButtonPressed@SummonVehiclePhone@ActionButton@@MAE_NPAVCharacter@@@Z 00401070 f   actionbuttonhandler.obj
 0001:000009f0       ?ShouldCancel@CompletionCallbackRequest@@UAE_NPAX@Z 00401070 f   radcorexr:requests.obj
 0001:000009f0       ?Create@Collectible@ActionButton@@UAE_NPAVtEntityStore@@@Z 00401070 f   actionbuttonhandler.obj
 0001:000009f0       ?IsButtonDown@NPCController@@UBE_NH@Z 00401070 f   charactercontroller.obj
 0001:000009f0       ?IsButtonDown@Pedestrian@@UBE_NH@Z 00401070 f   pedestrian.obj
 0001:000009f0       ?ShouldCancel@CompletionEventRequest@@UAE_NPAX@Z 00401070 f   radcorexr:requests.obj
 0001:000009f0       ?IsScreenLoaded@FeProject@@UAE_NPAVScreen@Scrooby@@@Z 00401070 f   ScroobyLib:FeProject.obj
 0001:000009f0       ?IsActionButtonPressed@AutoPlayAnimInOut@ActionButton@@MAE_NPAVCharacter@@@Z 00401070 f   actionbuttonhandler.obj
 0001:00000a00       ?OnButtonPressed@AutomaticDoor@ActionButton@@MAE_NPAVCharacter@@PAVSequencer@@@Z 00401080 f   automaticdoor.obj
 0001:00000a00       ?OnButtonPressed@AutoPlayAnim@ActionButton@@MAE_NPAVCharacter@@PAVSequencer@@@Z 00401080 f   actionbuttonhandler.obj
 0001:00000a00       ?SaveImage@tPNGHandler@@UAE_NPAVtImage@@PAD@Z 00401080 f   pure3dxr:png.obj
 0001:00000a00       ?SaveImage@tDXTNHandler@@UAE_NPAVtImage@@PAD@Z 00401080 f   pure3dxr:dxtn.obj
 0001:00000a00       ?OnButtonPressed@ButtonHandler@ActionButton@@MAE_NPAVCharacter@@PAVSequencer@@@Z 00401080 f   actionbuttonhandler.obj
 0001:00000a00       ?SaveImage@tBMPHandler@@UAE_NPAVtImage@@PAD@Z 00401080 f   pure3dxr:bmp.obj
 0001:00000a00       ?SaveImage@tImageHandler@@UAE_NPAVtImage@@PAD@Z 00401080 f   pure3dxr:imagefactory.obj
 0001:00000a00       ?ImpulseReaction@PhysicsJoint0D@sim@@MAE_NABVVector@RadicalMathLibrary@@AAV34@@Z 00401080 f   simxr:physicsjoint.obj
 0001:00000a00       ?GetBoundingBox@RectTriggerVolume@@UBE_NAAVVector@RadicalMathLibrary@@0@Z 00401080 f   recttriggervolume.obj
 0001:00000a00       ?OnButtonPressed@AutoPlayAnimInOut@ActionButton@@MAE_NPAVCharacter@@PAVSequencer@@@Z 00401080 f   actionbuttonhandler.obj
 0001:00000a10       ?OnEnter@AutoPlayAnim@ActionButton@@UAEXPAVCharacter@@@Z 00401090 f   actionbuttonhandler.obj
 0001:00000af0       ?OnUpdate@AutoPlayAnim@ActionButton@@MAEXM@Z 00401170 f   actionbuttonhandler.obj
 0001:00000b30       ?OnExit@AutoPlayAnim@ActionButton@@UAEXPAVCharacter@@@Z 004011b0 f   actionbuttonhandler.obj
 0001:00000b60       ?OnUpdate@AutoPlayAnimInOut@ActionButton@@MAEXM@Z 004011e0 f   actionbuttonhandler.obj
 0001:00000bc0       ?OnExit@AutoPlayAnimInOut@ActionButton@@MAEXPAVCharacter@@@Z 00401240 f   actionbuttonhandler.obj
 0001:00000be0       ?Enter@DestroyObject@ActionButton@@UAEXPAVCharacter@@@Z 00401260 f   actionbuttonhandler.obj
 0001:00000bf0       ?OnReset@DestroyObject@ActionButton@@MAEXXZ 00401270 f   actionbuttonhandler.obj
 0001:00000c20       ?OnButtonPressed@DestroyObject@ActionButton@@MAE_NPAVCharacter@@PAVSequencer@@@Z 004012a0 f   actionbuttonhandler.obj
 0001:00000c40       ?RecieveEvent@DestroyObject@ActionButton@@UAEXHPAVCStateProp@@@Z 004012c0 f   actionbuttonhandler.obj
 0001:00000c80       ?OnButtonPressed@PrankPhone@ActionButton@@MAE_NPAVCharacter@@PAVSequencer@@@Z 00401300 f   actionbuttonhandler.obj
 0001:00000c80       ?OnButtonPressed@UseVendingMachine@ActionButton@@MAE_NPAVCharacter@@PAVSequencer@@@Z 00401300 f   actionbuttonhandler.obj
 0001:00000ca0       ?SetAnimation@UseVendingMachine@ActionButton@@MAEXPAVCharacter@@PAVSequencer@@@Z 00401320 f   actionbuttonhandler.obj
 0001:00000d20       ?SetAnimation@DestroyObject@ActionButton@@MAEXPAVCharacter@@PAVSequencer@@@Z 004013a0 f   actionbuttonhandler.obj
 0001:00000d20       ?SetAnimation@PrankPhone@ActionButton@@MAEXPAVCharacter@@PAVSequencer@@@Z 004013a0 f   actionbuttonhandler.obj
 0001:00000da0       ?OnButtonPressed@Doorbell@ActionButton@@MAE_NPAVCharacter@@PAVSequencer@@@Z 00401420 f   actionbuttonhandler.obj
 0001:00000dd0       ?Create@SummonVehiclePhone@ActionButton@@UAE_NPAVtEntityStore@@@Z 00401450 f   actionbuttonhandler.obj
 0001:00000e70       ?UsesActionButton@SummonVehiclePhone@ActionButton@@UBE_NXZ 004014f0 f   actionbuttonhandler.obj
 0001:00000e80       ?LoadVehicle@SummonVehiclePhone@ActionButton@@SAXPBD0W4DriverInit@VehicleCentral@@@Z 00401500 f   actionbuttonhandler.obj
 0001:00000f80       ?LoadVehicle@SummonVehiclePhone@ActionButton@@SAXH@Z 00401600 f   actionbuttonhandler.obj
 0001:00000fc0       ?LoadDebugVehicle@SummonVehiclePhone@ActionButton@@SAXXZ 00401640 f   actionbuttonhandler.obj
 0001:00000fd0       ?OnUpdate@SummonVehiclePhone@ActionButton@@MAEXM@Z 00401650 f   actionbuttonhandler.obj
 0001:00001020       ?SetAnimation@SummonVehiclePhone@ActionButton@@MAEXPAVCharacter@@PAVSequencer@@@Z 004016a0 f   actionbuttonhandler.obj
 0001:000010a0       ?OnReset@Collectible@ActionButton@@MAEXXZ 00401720 f   actionbuttonhandler.obj
 0001:000010c0       ?ResetCollectible@Collectible@ActionButton@@UAEXXZ 00401740 f   actionbuttonhandler.obj
 0001:000010d0       ?OnUpdate@Collectible@ActionButton@@MAEXM@Z 00401750 f   actionbuttonhandler.obj
 0001:00001150       ?OnEnter@Collectible@ActionButton@@MAEXPAVCharacter@@@Z 004017d0 f   actionbuttonhandler.obj
 0001:00001190       ?OnEnter@CollectibleFood@ActionButton@@MAEXPAVCharacter@@@Z 00401810 f   actionbuttonhandler.obj
 0001:000011a0       ?Create@CollectibleCard@ActionButton@@UAE_NPAVtEntityStore@@@Z 00401820 f   actionbuttonhandler.obj
 0001:000013a0       ?OnEnter@CollectibleCard@ActionButton@@MAEXPAVCharacter@@@Z 00401a20 f   actionbuttonhandler.obj
 0001:000014b0       ?UpdateThing@CollectibleCard@ActionButton@@SAXI@Z 00401b30 f   actionbuttonhandler.obj
 0001:000014d0       ?Create@WrenchIcon@ActionButton@@UAE_NPAVtEntityStore@@@Z 00401b50 f   actionbuttonhandler.obj
 0001:00001660       ?OnEnter@WrenchIcon@ActionButton@@MAEXPAVCharacter@@@Z 00401ce0 f   actionbuttonhandler.obj
 0001:00001730       ?UpdateThing@WrenchIcon@ActionButton@@SAXI@Z 00401db0 f   actionbuttonhandler.obj
 0001:00001750       ?Update@NitroIcon@ActionButton@@UAEXM@Z 00401dd0 f   actionbuttonhandler.obj
 0001:00001750       ?Update@WrenchIcon@ActionButton@@UAEXM@Z 00401dd0 f   actionbuttonhandler.obj
 0001:000017b0       ?Create@NitroIcon@ActionButton@@UAE_NPAVtEntityStore@@@Z 00401e30 f   actionbuttonhandler.obj
 0001:00001940       ?OnEnter@NitroIcon@ActionButton@@MAEXPAVCharacter@@@Z 00401fc0 f   actionbuttonhandler.obj
 0001:000019d0       ?UpdateThing@NitroIcon@ActionButton@@SAXI@Z 00402050 f   actionbuttonhandler.obj
 0001:000019f0       ??1GenericEventButtonHandler@ActionButton@@UAE@XZ 00402070 f   actionbuttonhandler.obj
 0001:00001a50       ?OnButtonPressed@GenericEventButtonHandler@ActionButton@@MAE_NPAVCharacter@@PAVSequencer@@@Z 004020d0 f   actionbuttonhandler.obj
 0001:00001aa0       ?HandleEvent@TeleportAction@ActionButton@@UAEXW4EventEnum@@PAX@Z 00402120 f   actionbuttonhandler.obj
 0001:00001be0       ?OnButtonPressed@TeleportAction@ActionButton@@MAE_NPAVCharacter@@PAVSequencer@@@Z 00402260 f   actionbuttonhandler.obj
 0001:00001c30       ?OnEnter@TeleportAction@ActionButton@@MAEXPAVCharacter@@@Z 004022b0 f   actionbuttonhandler.obj
 0001:00001c50       ?OnExit@TeleportAction@ActionButton@@MAEXPAVCharacter@@@Z 004022d0 f   actionbuttonhandler.obj
 0001:00001c70       ?OnUpdate@PurchaseReward@ActionButton@@MAEXM@Z 004022f0 f   actionbuttonhandler.obj
 0001:00001d50       ??1RecieveEvent@GuiSFX@@UAE@XZ 004023d0 f i actionbuttonhandler.obj
 0001:00001d70       ?Create@PurchaseCar@ActionButton@@UAE_NPAVtEntityStore@@@Z 004023f0 f   actionbuttonhandler.obj
 0001:00001de0       ?OnUpdate@PurchaseCar@ActionButton@@MAEXM@Z 00402460 f   actionbuttonhandler.obj
 0001:00001f00       ?Create@PurchaseSkin@ActionButton@@UAE_NPAVtEntityStore@@@Z 00402580 f   actionbuttonhandler.obj
 0001:00001f70       ?OnButtonPressed@PurchaseSkin@ActionButton@@MAE_NPAVCharacter@@@Z 004025f0 f   actionbuttonhandler.obj
 0001:00001fb0       ?OnUpdate@PurchaseSkin@ActionButton@@MAEXM@Z 00402630 f   actionbuttonhandler.obj
 0001:00001fd0       ??_G?$tArray@PAVManagedParticleSystem@ParticleManager@@@@UAEPAXI@Z 00402650 f i actionbuttonhandler.obj
 0001:00001fd0       ??_E?$tArray@PAVManagedParticleSystem@ParticleManager@@@@UAEPAXI@Z 00402650 f i actionbuttonhandler.obj
 0001:00002000       ??$SetState@VGetIn@CharacterAi@@@StateManager@CharacterAi@@QAEXXZ 00402680 f i actionbuttonhandler.obj
 0001:00002090       ?safe_cast@?$SafeCast@VAnimCollisionEntityDSG@@@radLoadInventory@@UAEPAUIRefCount@@PAU3@@Z 00402710 f i actionbuttonhandler.obj
 0001:000020b0       ?safe_cast@?$SafeCast@VStatePropDSG@@@radLoadInventory@@UAEPAUIRefCount@@PAU3@@Z 00402730 f i actionbuttonhandler.obj
 0001:000020d0       ?safe_cast@?$SafeCast@VCarStartLocator@@@radLoadInventory@@UAEPAUIRefCount@@PAU3@@Z 00402750 f i actionbuttonhandler.obj
 0001:000020f0       ?GetPosition@Character@@QBEXAAVVector@RadicalMathLibrary@@@Z 00402770 f i actionbuttonhandler.obj
 0001:00002140       ??0TriggerEventAction@@QAE@W4EventEnum@@PAX@Z 004027c0 f i actionbuttonhandler.obj
 0001:00002170       ?WakeUp@TriggerEventAction@@UAEXM@Z 004027f0 f i actionbuttonhandler.obj
 0001:000021a0       ??0AnimCollisionEntityDSGWrapper@ActionButton@@QAE@XZ 00402820 f   actionbuttonhandler.obj
 0001:000021c0       ??_EAnimCollisionEntityDSGWrapper@ActionButton@@UAEPAXI@Z 00402840 f i actionbuttonhandler.obj
 0001:000021c0       ??_GAnimCollisionEntityDSGWrapper@ActionButton@@UAEPAXI@Z 00402840 f i actionbuttonhandler.obj
 0001:000021e0       ??_GButtonHandler@ActionButton@@UAEPAXI@Z 00402860 f i actionbuttonhandler.obj
 0001:000021e0       ??_EButtonHandler@ActionButton@@UAEPAXI@Z 00402860 f i actionbuttonhandler.obj
 0001:00002200       ??0EnterInterior@ActionButton@@QAE@PAVInteriorEntranceLocator@@@Z 00402880 f   actionbuttonhandler.obj
 0001:00002230       ??_EEnterInterior@ActionButton@@UAEPAXI@Z 004028b0 f i actionbuttonhandler.obj
 0001:00002230       ??_GEnterInterior@ActionButton@@UAEPAXI@Z 004028b0 f i actionbuttonhandler.obj
 0001:00002250       ??_GGetInCar@ActionButton@@UAEPAXI@Z 004028d0 f i actionbuttonhandler.obj
 0001:00002250       ??_EGetInCar@ActionButton@@UAEPAXI@Z 004028d0 f i actionbuttonhandler.obj
 0001:00002270       ?OnButtonPressed@GetInCar@ActionButton@@MAE_NPAVCharacter@@PAVSequencer@@@Z 004028f0 f   actionbuttonhandler.obj
 0001:000022e0       ??1ActionEventHandler@ActionButton@@UAE@XZ 00402960 f   actionbuttonhandler.obj
 0001:00002350       ?CanFreeMemory@radMemoryAllocatorMalloc@@UAE_NPAX@Z 004029d0 f i radcorexr:memorymanager.obj
 0001:00002350       ?DoesntIntersect@BoxPts@@UAE_NAAVAAPlane3f@@@Z 004029d0 f i BoxPts.obj
 0001:00002350       ?CheckChunkID@tEventAnimTextLoader@@UAE_NI@Z 004029d0 f i pure3dxr:eventanimation.obj
 0001:00002350       ?CanFreeMemoryAligned@radMemoryAllocatorMalloc@@UAE_NPAX@Z 004029d0 f i radcorexr:memorymanager.obj
 0001:00002350       ?Create@ActionEventHandler@ActionButton@@UAE_NPAVtEntityStore@@@Z 004029d0 f i actionbuttonhandler.obj
 0001:00002350       ?TriggerAllowed@Locator@@UAE_NH@Z 004029d0 f i spawnpoint.obj
 0001:00002350       ?CheckChunkID@tSequencerLoader@@UAE_NI@Z 004029d0 f i pure3dxr:sequencer.obj
 0001:00002350       ?IsRegisteredThread@CompletionCallbackRequest@@QAE_NPAUIRadThread@@@Z 004029d0 f i radcorexr:requests.obj
 0001:00002350       ?Create@TeleportAction@ActionButton@@UAE_NPAVtEntityStore@@@Z 004029d0 f i actionbuttonhandler.obj
 0001:00002350       ?ValidCollision@PhysicsObject@sim@@UBE_NPBV12@@Z 004029d0 f i simxr:physicsobject.obj
 0001:00002350       ?DoesIntersect@BoxPts@@UAE_NAAVAAPlane3f@@@Z 004029d0 f i BoxPts.obj
 0001:00002350       ?IsCacheEmpty@SimulatedObject@sim@@UBE_NH@Z 004029d0 f i simxr:simulatedobject.obj
 0001:00002360       ??1AnimSwitch@ActionButton@@UAE@XZ 004029e0 f   actionbuttonhandler.obj
 0001:000023d0       ?IsSleeping@Task@@QAE_NXZ  00402a50 f i task.obj
 0001:000023d0       ?UsesActionButton@AnimSwitch@ActionButton@@UBE_NXZ 00402a50 f i actionbuttonhandler.obj
 0001:000023e0       ?NeedsUpdate@AnimSwitch@ActionButton@@UBE_NXZ 00402a60 f i actionbuttonhandler.obj
 0001:00002400       ?Init@AnimSwitch@ActionButton@@QAEXPAUIGameObjectWrapper@2@PAVJoint@tPose@@_N@Z 00402a80 f   actionbuttonhandler.obj
 0001:000024a0       ?SetAnimation@AnimSwitch@ActionButton@@MAEXPAVCharacter@@PAVSequencer@@@Z 00402b20 f   actionbuttonhandler.obj
 0001:00002580       ??1ToggleAnim@ActionButton@@UAE@XZ 00402c00 f   actionbuttonhandler.obj
 0001:000025e0       ?OnButtonPressed@ToggleAnim@ActionButton@@MAE_NPAVCharacter@@PAVSequencer@@@Z 00402c60 f   actionbuttonhandler.obj
 0001:00002760       ??1PlayAnim@ActionButton@@UAE@XZ 00402de0 f   actionbuttonhandler.obj
 0001:000027c0       ??1PlayAnimLoop@ActionButton@@UAE@XZ 00402e40 f   actionbuttonhandler.obj
 0001:000027d0       ??1AutoPlayAnim@ActionButton@@UAE@XZ 00402e50 f   actionbuttonhandler.obj
 0001:00002830       ??1AutoPlayAnimLoop@ActionButton@@UAE@XZ 00402eb0 f   actionbuttonhandler.obj
 0001:00002840       ??1AutoPlayAnimInOut@ActionButton@@UAE@XZ 00402ec0 f   actionbuttonhandler.obj
 0001:00002850       ??1DestroyObject@ActionButton@@UAE@XZ 00402ed0 f   actionbuttonhandler.obj
 0001:000028b0       ?IsInstanceEnabled@DestroyObject@ActionButton@@UBE_NXZ 00402f30 f i actionbuttonhandler.obj
 0001:000028c0       ?PositionCharacter@DestroyObject@ActionButton@@MAEXPAVCharacter@@PAVSequencer@@@Z 00402f40 f   actionbuttonhandler.obj
 0001:00002a80       ??1UseVendingMachine@ActionButton@@UAE@XZ 00403100 f   actionbuttonhandler.obj
 0001:00002a90       ??1PrankPhone@ActionButton@@UAE@XZ 00403110 f   actionbuttonhandler.obj
 0001:00002aa0       ??1SummonVehiclePhone@ActionButton@@UAE@XZ 00403120 f   actionbuttonhandler.obj
 0001:00002b40       ?OnButtonPressed@SummonVehiclePhone@ActionButton@@MAE_NPAVCharacter@@PAVSequencer@@@Z 004031c0 f   actionbuttonhandler.obj
 0001:00002d70       ??1SummonVehiclePhoneStaticCallback@ActionButton@@QAE@XZ 004033f0 f   actionbuttonhandler.obj
 0001:00002d90       ?OnEnter@Bounce@ActionButton@@SAXPAVCharacter@@PAVLocator@@@Z 00403410 f   actionbuttonhandler.obj
 0001:00002e50       ??1Collectible@ActionButton@@UAE@XZ 004034d0 f   actionbuttonhandler.obj
 0001:00002eb0       ?IsRespawnTimeExpired@Collectible@ActionButton@@MBE_NXZ 00403530 f i actionbuttonhandler.obj
 0001:00002ed0       ?GetSteerLeft@AiVehicleController@@UBEMXZ 00403550 f i aivehiclecontroller.obj
 0001:00002ed0       ?Deformation@PhysicsJoint0D@sim@@UBEMXZ 00403550 f i simxr:physicsjoint.obj
 0001:00002ed0       ?GetCurrentPitch@EngineState@@UAEMXZ 00403550 f i vehiclesoundplayer.obj
 0001:00002ed0       ?GetCycleStart@BlendSlot@choreo@@UBEMXZ 00403550 f i choreoxr:locomotion.obj
 0001:00002ed0       ?GetReverse@HumanVehicleController@@UBEMXZ 00403550 f i humanvehiclecontroller.obj
 0001:00002ed0       ?GetSteerRight@AiVehicleController@@UBEMXZ 00403550 f i aivehiclecontroller.obj
 0001:00002ed0       ?GetRespawnTime@Collectible@ActionButton@@MBEMXZ 00403550 f i actionbuttonhandler.obj
 0001:00002ee0       ??1RespawnCollectible@ActionButton@@UAE@XZ 00403560 f   actionbuttonhandler.obj
 0001:00002ef0       ?SetSpeedLimit@Lane@@UAEXM@Z 00403570 f i lane.obj
 0001:00002ef0       ?SetFadeInTime@reverbSettings@@UAEXM@Z 00403570 f i reverbsettings.obj
 0001:00002ef0       ?SetMinDistance@positionalSoundSettings@@UAEXM@Z 00403570 f i positionalsoundsettings.obj
 0001:00002ef0       ?SetRespawnTime@RespawnCollectible@ActionButton@@MAEXM@Z 00403570 f i actionbuttonhandler.obj
 0001:00002ef0       ?SetAmbientLight@tView@@QAEXUpddiColour@@@Z 00403570 f i pure3dxr:view.obj
 0001:00002ef0       ?SetEndColour@ColorChange@GuiSFX@@QAEXUpddiColour@@@Z 00403570 f i transitions.obj
 0001:00002ef0       ?SetVehicle@ResetCar@@QAEXPAVVehicle@@@Z 00403570 f i guiscreenmultihud.obj
 0001:00002ef0       ?SetInternalMemoryAllocator@PtrQueue@@MAEXH@Z 00403570 f i radcontent:queue.obj
 0001:00002f00       ?UpdateRespawnTime@RespawnCollectible@ActionButton@@MAEXM@Z 00403580 f i actionbuttonhandler.obj
 0001:00002f10       ??1CollectibleFood@ActionButton@@UAE@XZ 00403590 f   actionbuttonhandler.obj
 0001:00002f20       ??1CollectibleCard@ActionButton@@UAE@XZ 004035a0 f   actionbuttonhandler.obj
 0001:00002fa0       ??1WrenchIcon@ActionButton@@UAE@XZ 00403620 f   actionbuttonhandler.obj
 0001:00003030       ?GetPriority@PhysicsJointMatrixModifier@sim@@UBEHXZ 004036b0 f i vehicleinit.obj
 0001:00003030       ?GetDataType@FOVLocator@@UBE?AW4Type@LocatorType@@XZ 004036b0 f i fovlocator.obj
 0001:00003030       ?GetType@KullCam@@UAE?AW4Type@SuperCam@@XZ 004036b0 f i kullcam.obj
 0001:00003030       ?GetType@WrenchIcon@ActionButton@@UAE?AW4Type@ButtonHandler@2@XZ 004036b0 f i actionbuttonhandler.obj
 0001:00003040       ??_EWrenchIcon@ActionButton@@WBM@AEPAXI@Z 004036c0 f i actionbuttonhandler.obj
 0001:00003050       ??1NitroIcon@ActionButton@@UAE@XZ 004036d0 f   actionbuttonhandler.obj
 0001:000030e0       ?GetType@NitroIcon@ActionButton@@UAE?AW4Type@ButtonHandler@2@XZ 00403760 f i actionbuttonhandler.obj
 0001:000030e0       ?GetPriority@PhysicsJointInertialEffector@sim@@UBEHXZ 00403760 f i vehicleinit.obj
 0001:000030e0       ?GetType@TrackerCam@@UAE?AW4Type@SuperCam@@XZ 00403760 f i trackercam.obj
 0001:000030f0       ??_ENitroIcon@ActionButton@@WBM@AEPAXI@Z 00403770 f i actionbuttonhandler.obj
 0001:00003100       ??_GGenericEventButtonHandler@ActionButton@@UAEPAXI@Z 00403780 f i actionbuttonhandler.obj
 0001:00003100       ??_EGenericEventButtonHandler@ActionButton@@UAEPAXI@Z 00403780 f i actionbuttonhandler.obj
 0001:00003120       ?SetEventLocator@GenericEventButtonHandler@ActionButton@@QAEXPAVEventLocator@@@Z 004037a0 f   actionbuttonhandler.obj
 0001:00003120       ?SetActionEventLocator@ActionEventHandler@ActionButton@@QAEXPAVActionEventLocator@@@Z 004037a0 f   actionbuttonhandler.obj
 0001:00003120       ?SetEventLocator@GetInCar@ActionButton@@QAEXPAVEventLocator@@@Z 004037a0 f   actionbuttonhandler.obj
 0001:00003150       ??1TeleportAction@ActionButton@@UAE@XZ 004037d0 f   actionbuttonhandler.obj
 0001:000031d0       ??_ETeleportAction@ActionButton@@WBE@AEPAXI@Z 00403850 f i actionbuttonhandler.obj
 0001:000031e0       ??1PurchaseReward@ActionButton@@UAE@XZ 00403860 f   actionbuttonhandler.obj
 0001:00003260       ?OnButtonPressed@PurchaseReward@ActionButton@@MAE_NPAVCharacter@@PAVSequencer@@@Z 004038e0 f i actionbuttonhandler.obj
 0001:00003270       ??1PurchaseCar@ActionButton@@UAE@XZ 004038f0 f   actionbuttonhandler.obj
 0001:000032d0       ?OnButtonPressed@PurchaseCar@ActionButton@@MAE_NPAVCharacter@@@Z 00403950 f   actionbuttonhandler.obj
 0001:000034c0       ??1PurchaseSkin@ActionButton@@UAE@XZ 00403b40 f   actionbuttonhandler.obj
 0001:000034d0       ??$find@VAnimCollisionEntityDSG@@@p3d@@YAPAVAnimCollisionEntityDSG@@PAVtEntityStore@@ABVtName@@@Z 00403b50 f i actionbuttonhandler.obj
 0001:000035a0       ??$find@VStatePropDSG@@@p3d@@YAPAVStatePropDSG@@PAVtEntityStore@@ABVtName@@@Z 00403c20 f i actionbuttonhandler.obj
 0001:00003670       ??$find@VCarStartLocator@@@p3d@@YAPAVCarStartLocator@@PAVtEntityStore@@ABVtName@@@Z 00403cf0 f i actionbuttonhandler.obj
 0001:00003740       ??0GetInCar@ActionButton@@QAE@PAVEventLocator@@@Z 00403dc0 f   actionbuttonhandler.obj
 0001:000037a0       ??0ActionEventHandler@ActionButton@@QAE@PAVActionEventLocator@@@Z 00403e20 f   actionbuttonhandler.obj
 0001:00003800       ??_GActionEventHandler@ActionButton@@UAEPAXI@Z 00403e80 f i actionbuttonhandler.obj
 0001:00003800       ??_EActionEventHandler@ActionButton@@UAEPAXI@Z 00403e80 f i actionbuttonhandler.obj
 0001:00003820       ??0AnimSwitch@ActionButton@@QAE@PAVActionEventLocator@@@Z 00403ea0 f   actionbuttonhandler.obj
 0001:00003900       ??_EAnimSwitch@ActionButton@@UAEPAXI@Z 00403f80 f i actionbuttonhandler.obj
 0001:00003900       ??_GAnimSwitch@ActionButton@@UAEPAXI@Z 00403f80 f i actionbuttonhandler.obj
 0001:00003920       ??0ToggleAnim@ActionButton@@QAE@PAVActionEventLocator@@@Z 00403fa0 f   actionbuttonhandler.obj
 0001:00003940       ??_EToggleAnim@ActionButton@@UAEPAXI@Z 00403fc0 f i actionbuttonhandler.obj
 0001:00003940       ??_GToggleAnim@ActionButton@@UAEPAXI@Z 00403fc0 f i actionbuttonhandler.obj
 0001:00003960       ??0PlayAnim@ActionButton@@QAE@PAVActionEventLocator@@@Z 00403fe0 f   actionbuttonhandler.obj
 0001:00003980       ??_EPlayAnim@ActionButton@@UAEPAXI@Z 00404000 f i actionbuttonhandler.obj
 0001:00003980       ??_GPlayAnim@ActionButton@@UAEPAXI@Z 00404000 f i actionbuttonhandler.obj
 0001:000039a0       ??0PlayAnimLoop@ActionButton@@QAE@PAVActionEventLocator@@@Z 00404020 f   actionbuttonhandler.obj
 0001:000039c0       ??_GPlayAnimLoop@ActionButton@@UAEPAXI@Z 00404040 f i actionbuttonhandler.obj
 0001:000039c0       ??_EPlayAnimLoop@ActionButton@@UAEPAXI@Z 00404040 f i actionbuttonhandler.obj
 0001:000039e0       ??0AutoPlayAnim@ActionButton@@QAE@PAVActionEventLocator@@@Z 00404060 f   actionbuttonhandler.obj
 0001:00003a10       ??_GAutoPlayAnim@ActionButton@@UAEPAXI@Z 00404090 f i actionbuttonhandler.obj
 0001:00003a10       ??_EAutoPlayAnim@ActionButton@@UAEPAXI@Z 00404090 f i actionbuttonhandler.obj
 0001:00003a30       ??0AutoPlayAnimLoop@ActionButton@@QAE@PAVActionEventLocator@@@Z 004040b0 f   actionbuttonhandler.obj
 0001:00003a50       ??_EAutoPlayAnimLoop@ActionButton@@UAEPAXI@Z 004040d0 f i actionbuttonhandler.obj
 0001:00003a50       ??_GAutoPlayAnimLoop@ActionButton@@UAEPAXI@Z 004040d0 f i actionbuttonhandler.obj
 0001:00003a70       ??0AutoPlayAnimInOut@ActionButton@@QAE@PAVActionEventLocator@@@Z 004040f0 f   actionbuttonhandler.obj
 0001:00003a90       ??_GAutoPlayAnimInOut@ActionButton@@UAEPAXI@Z 00404110 f i actionbuttonhandler.obj
 0001:00003a90       ??_EAutoPlayAnimInOut@ActionButton@@UAEPAXI@Z 00404110 f i actionbuttonhandler.obj
 0001:00003ab0       ??0DestroyObject@ActionButton@@QAE@PAVActionEventLocator@@@Z 00404130 f   actionbuttonhandler.obj
 0001:00003af0       ??_GDestroyObject@ActionButton@@UAEPAXI@Z 00404170 f i actionbuttonhandler.obj
 0001:00003af0       ??_EDestroyObject@ActionButton@@UAEPAXI@Z 00404170 f i actionbuttonhandler.obj
 0001:00003b10       ??0UseVendingMachine@ActionButton@@QAE@PAVActionEventLocator@@@Z 00404190 f   actionbuttonhandler.obj
 0001:00003b30       ??_GUseVendingMachine@ActionButton@@UAEPAXI@Z 004041b0 f i actionbuttonhandler.obj
 0001:00003b30       ??_EUseVendingMachine@ActionButton@@UAEPAXI@Z 004041b0 f i actionbuttonhandler.obj
 0001:00003b50       ??0PrankPhone@ActionButton@@QAE@PAVActionEventLocator@@@Z 004041d0 f   actionbuttonhandler.obj
 0001:00003b70       ??_EPrankPhone@ActionButton@@UAEPAXI@Z 004041f0 f i actionbuttonhandler.obj
 0001:00003b70       ??_GPrankPhone@ActionButton@@UAEPAXI@Z 004041f0 f i actionbuttonhandler.obj
 0001:00003b90       ??0SummonVehiclePhone@ActionButton@@QAE@PAVActionEventLocator@@@Z 00404210 f   actionbuttonhandler.obj
 0001:00003c60       ??_ESummonVehiclePhone@ActionButton@@UAEPAXI@Z 004042e0 f i actionbuttonhandler.obj
 0001:00003c60       ??_GSummonVehiclePhone@ActionButton@@UAEPAXI@Z 004042e0 f i actionbuttonhandler.obj
 0001:00003c80       ??0Collectible@ActionButton@@QAE@PAVActionEventLocator@@@Z 00404300 f   actionbuttonhandler.obj
 0001:00003cb0       ??_GCollectible@ActionButton@@UAEPAXI@Z 00404330 f i actionbuttonhandler.obj
 0001:00003cb0       ??_ECollectible@ActionButton@@UAEPAXI@Z 00404330 f i actionbuttonhandler.obj
 0001:00003cd0       ??0RespawnCollectible@ActionButton@@QAE@PAVActionEventLocator@@@Z 00404350 f   actionbuttonhandler.obj
 0001:00003d00       ??_ERespawnCollectible@ActionButton@@UAEPAXI@Z 00404380 f i actionbuttonhandler.obj
 0001:00003d00       ??_GRespawnCollectible@ActionButton@@UAEPAXI@Z 00404380 f i actionbuttonhandler.obj
 0001:00003d20       ??0CollectibleFood@ActionButton@@QAE@PAVActionEventLocator@@M@Z 004043a0 f   actionbuttonhandler.obj
 0001:00003d40       ??_GCollectibleFood@ActionButton@@UAEPAXI@Z 004043c0 f i actionbuttonhandler.obj
 0001:00003d40       ??_ECollectibleFood@ActionButton@@UAEPAXI@Z 004043c0 f i actionbuttonhandler.obj
 0001:00003d60       ??0CollectibleCard@ActionButton@@QAE@PAVActionEventLocator@@@Z 004043e0 f   actionbuttonhandler.obj
 0001:00003d80       ??_GCollectibleCard@ActionButton@@UAEPAXI@Z 00404400 f i actionbuttonhandler.obj
 0001:00003d80       ??_ECollectibleCard@ActionButton@@UAEPAXI@Z 00404400 f i actionbuttonhandler.obj
 0001:00003da0       ??0WrenchIcon@ActionButton@@QAE@PAVActionEventLocator@@@Z 00404420 f   actionbuttonhandler.obj
 0001:00003e10       ??_GWrenchIcon@ActionButton@@UAEPAXI@Z 00404490 f i actionbuttonhandler.obj
 0001:00003e10       ??_EWrenchIcon@ActionButton@@UAEPAXI@Z 00404490 f i actionbuttonhandler.obj
 0001:00003e30       ??0NitroIcon@ActionButton@@QAE@PAVActionEventLocator@@@Z 004044b0 f   actionbuttonhandler.obj
 0001:00003ea0       ??_GNitroIcon@ActionButton@@UAEPAXI@Z 00404520 f i actionbuttonhandler.obj
 0001:00003ea0       ??_ENitroIcon@ActionButton@@UAEPAXI@Z 00404520 f i actionbuttonhandler.obj
 0001:00003ec0       ??0GenericEventButtonHandler@ActionButton@@QAE@PAVEventLocator@@W4EventEnum@@@Z 00404540 f   actionbuttonhandler.obj
 0001:00003f20       ?NewAction@GenericEventButtonHandler@ActionButton@@SAPAVButtonHandler@2@PAVEventLocator@@W4EventEnum@@W4GameMemoryAllocator@@@Z 004045a0 f   actionbuttonhandler.obj
 0001:00003f50       ??0TeleportAction@ActionButton@@QAE@PAVActionEventLocator@@@Z 004045d0 f   actionbuttonhandler.obj
 0001:00003fb0       ??_ETeleportAction@ActionButton@@UAEPAXI@Z 00404630 f i actionbuttonhandler.obj
 0001:00003fb0       ??_GTeleportAction@ActionButton@@UAEPAXI@Z 00404630 f i actionbuttonhandler.obj
 0001:00003fd0       ??0PurchaseReward@ActionButton@@QAE@PAVActionEventLocator@@@Z 00404650 f   actionbuttonhandler.obj
 0001:00004040       ??_GPurchaseReward@ActionButton@@UAEPAXI@Z 004046c0 f i actionbuttonhandler.obj
 0001:00004040       ??_EPurchaseReward@ActionButton@@UAEPAXI@Z 004046c0 f i actionbuttonhandler.obj
 0001:00004060       ??0PurchaseCar@ActionButton@@QAE@PAVActionEventLocator@@@Z 004046e0 f   actionbuttonhandler.obj
 0001:000041d0       ??_EPurchaseCar@ActionButton@@UAEPAXI@Z 00404850 f i actionbuttonhandler.obj
 0001:000041d0       ??_GPurchaseCar@ActionButton@@UAEPAXI@Z 00404850 f i actionbuttonhandler.obj
 0001:000041f0       ??0PurchaseSkin@ActionButton@@QAE@PAVActionEventLocator@@@Z 00404870 f   actionbuttonhandler.obj
 0001:00004270       ??_GPurchaseSkin@ActionButton@@UAEPAXI@Z 004048f0 f i actionbuttonhandler.obj
 0001:00004270       ??_EPurchaseSkin@ActionButton@@UAEPAXI@Z 004048f0 f i actionbuttonhandler.obj
 0001:00004290       ??1?$tPtrDynamicArray@PAVManagedParticleSystem@ParticleManager@@@@UAE@XZ 00404910 f i actionbuttonhandler.obj
 0001:000042b0       ??_E?$tPtrDynamicArray@PAVManagedParticleSystem@ParticleManager@@@@UAEPAXI@Z 00404930 f i actionbuttonhandler.obj
 0001:00004310       ??$find@VAnimCollisionEntityDSG@@@p3d@@YAPAVAnimCollisionEntityDSG@@PAVtEntityStore@@PBD@Z 00404990 f i actionbuttonhandler.obj
 0001:00004380       ??$find@VStatePropDSG@@@p3d@@YAPAVStatePropDSG@@PAVtEntityStore@@PBD@Z 00404a00 f i actionbuttonhandler.obj
 0001:000043f0       ??$find@VCarStartLocator@@@p3d@@YAPAVCarStartLocator@@PAVtEntityStore@@PBD@Z 00404a70 f i actionbuttonhandler.obj
 0001:00004460       ?Create@AnimSwitch@ActionButton@@UAE_NPAVtEntityStore@@@Z 00404ae0 f   actionbuttonhandler.obj
 0001:00004530       ?Create@DestroyObject@ActionButton@@UAE_NPAVtEntityStore@@@Z 00404bb0 f   actionbuttonhandler.obj
 0001:00004580       ?Create@Doorbell@ActionButton@@UAE_NPAVtEntityStore@@@Z 00404c00 f   actionbuttonhandler.obj
 0001:00004640       ?OnProcessRequestsComplete@SummonVehiclePhoneStaticCallback@ActionButton@@UAEXPAX@Z 00404cc0 f   actionbuttonhandler.obj
 0001:00004760       ?NewAction@ToggleAnim@ActionButton@@SAPAVButtonHandler@2@PAVActionEventLocator@@@Z 00404de0 f i actionbuttonmanager.obj
 0001:00004780       ??0ReverseAnim@ActionButton@@QAE@PAVActionEventLocator@@@Z 00404e00 f i actionbuttonmanager.obj
 0001:000047a0       ?NewAction@ReverseAnim@ActionButton@@SAPAVButtonHandler@2@PAVActionEventLocator@@@Z 00404e20 f i actionbuttonmanager.obj
 0001:000047c0       ??_EReverseAnim@ActionButton@@UAEPAXI@Z 00404e40 f i actionbuttonmanager.obj
 0001:000047c0       ??_GReverseAnim@ActionButton@@UAEPAXI@Z 00404e40 f i actionbuttonmanager.obj
 0001:000047e0       ??1ReverseAnim@ActionButton@@UAE@XZ 00404e60 f i actionbuttonmanager.obj
 0001:000047f0       ?NewAction@PlayAnim@ActionButton@@SAPAVButtonHandler@2@PAVActionEventLocator@@@Z 00404e70 f i actionbuttonmanager.obj
 0001:00004810       ?NewAction@PlayAnimLoop@ActionButton@@SAPAVButtonHandler@2@PAVActionEventLocator@@@Z 00404e90 f i actionbuttonmanager.obj
 0001:00004830       ?NewAction@AutoPlayAnim@ActionButton@@SAPAVButtonHandler@2@PAVActionEventLocator@@@Z 00404eb0 f i actionbuttonmanager.obj
 0001:00004850       ?NewAction@AutoPlayAnimLoop@ActionButton@@SAPAVButtonHandler@2@PAVActionEventLocator@@@Z 00404ed0 f i actionbuttonmanager.obj
 0001:00004870       ?NewAction@AutoPlayAnimInOut@ActionButton@@SAPAVButtonHandler@2@PAVActionEventLocator@@@Z 00404ef0 f i actionbuttonmanager.obj
 0001:00004890       ?NewAction@DestroyObject@ActionButton@@SAPAVButtonHandler@2@PAVActionEventLocator@@@Z 00404f10 f i actionbuttonmanager.obj
 0001:000048b0       ?NewAction@UseVendingMachine@ActionButton@@SAPAVButtonHandler@2@PAVActionEventLocator@@@Z 00404f30 f i actionbuttonmanager.obj
 0001:000048d0       ?NewAction@PrankPhone@ActionButton@@SAPAVButtonHandler@2@PAVActionEventLocator@@@Z 00404f50 f i actionbuttonmanager.obj
 0001:000048f0       ?NewAction@SummonVehiclePhone@ActionButton@@SAPAVButtonHandler@2@PAVActionEventLocator@@@Z 00404f70 f i actionbuttonmanager.obj
 0001:00004910       ??0Doorbell@ActionButton@@QAE@PAVActionEventLocator@@@Z 00404f90 f i actionbuttonmanager.obj
 0001:00004930       ?NewAction@Doorbell@ActionButton@@SAPAVButtonHandler@2@PAVActionEventLocator@@@Z 00404fb0 f i actionbuttonmanager.obj
 0001:00004950       ??_EDoorbell@ActionButton@@UAEPAXI@Z 00404fd0 f i actionbuttonmanager.obj
 0001:00004950       ??_GDoorbell@ActionButton@@UAEPAXI@Z 00404fd0 f i actionbuttonmanager.obj
 0001:00004970       ??1Doorbell@ActionButton@@UAE@XZ 00404ff0 f i actionbuttonmanager.obj
 0001:00004980       ??0OpenDoor@ActionButton@@QAE@PAVActionEventLocator@@@Z 00405000 f i actionbuttonmanager.obj
 0001:000049a0       ?NewAction@OpenDoor@ActionButton@@SAPAVButtonHandler@2@PAVActionEventLocator@@@Z 00405020 f i actionbuttonmanager.obj
 0001:000049c0       ??_EOpenDoor@ActionButton@@UAEPAXI@Z 00405040 f i actionbuttonmanager.obj
 0001:000049c0       ??_GOpenDoor@ActionButton@@UAEPAXI@Z 00405040 f i actionbuttonmanager.obj
 0001:000049e0       ??1OpenDoor@ActionButton@@UAE@XZ 00405060 f i actionbuttonmanager.obj
 0001:000049f0       ??0TalkFood@ActionButton@@QAE@PAVActionEventLocator@@@Z 00405070 f i actionbuttonmanager.obj
 0001:00004a10       ?NewAction@TalkFood@ActionButton@@SAPAVButtonHandler@2@PAVActionEventLocator@@@Z 00405090 f i actionbuttonmanager.obj
 0001:00004a30       ??_ETalkFood@ActionButton@@UAEPAXI@Z 004050b0 f i actionbuttonmanager.obj
 0001:00004a30       ??_GTalkFood@ActionButton@@UAEPAXI@Z 004050b0 f i actionbuttonmanager.obj
 0001:00004a50       ??1TalkFood@ActionButton@@UAE@XZ 004050d0 f i actionbuttonmanager.obj
 0001:00004a60       ??0TalkDialog@ActionButton@@QAE@PAVActionEventLocator@@@Z 004050e0 f i actionbuttonmanager.obj
 0001:00004a80       ?NewAction@TalkDialog@ActionButton@@SAPAVButtonHandler@2@PAVActionEventLocator@@@Z 00405100 f i actionbuttonmanager.obj
 0001:00004aa0       ??_ETalkDialog@ActionButton@@UAEPAXI@Z 00405120 f i actionbuttonmanager.obj
 0001:00004aa0       ??_GTalkDialog@ActionButton@@UAEPAXI@Z 00405120 f i actionbuttonmanager.obj
 0001:00004ac0       ??1TalkDialog@ActionButton@@UAE@XZ 00405140 f i actionbuttonmanager.obj
 0001:00004ad0       ??0TalkMission@ActionButton@@QAE@PAVActionEventLocator@@@Z 00405150 f i actionbuttonmanager.obj
 0001:00004af0       ?NewAction@TalkMission@ActionButton@@SAPAVButtonHandler@2@PAVActionEventLocator@@@Z 00405170 f i actionbuttonmanager.obj
 0001:00004b10       ??_GTalkMission@ActionButton@@UAEPAXI@Z 00405190 f i actionbuttonmanager.obj
 0001:00004b10       ??_ETalkMission@ActionButton@@UAEPAXI@Z 00405190 f i actionbuttonmanager.obj
 0001:00004b30       ??1TalkMission@ActionButton@@UAE@XZ 004051b0 f i actionbuttonmanager.obj
 0001:00004b40       ?NewFoodSmallAction@CollectibleFood@ActionButton@@SAPAVButtonHandler@2@PAVActionEventLocator@@@Z 004051c0 f i actionbuttonmanager.obj
 0001:00004b70       ?NewFoodLargeAction@CollectibleFood@ActionButton@@SAPAVButtonHandler@2@PAVActionEventLocator@@@Z 004051f0 f i actionbuttonmanager.obj
 0001:00004ba0       ?NewAction@CollectibleCard@ActionButton@@SAPAVButtonHandler@2@PAVActionEventLocator@@@Z 00405220 f i actionbuttonmanager.obj
 0001:00004bc0       ?NewAction@WrenchIcon@ActionButton@@SAPAVButtonHandler@2@PAVActionEventLocator@@@Z 00405240 f i actionbuttonmanager.obj
 0001:00004be0       ?NewAction@NitroIcon@ActionButton@@SAPAVButtonHandler@2@PAVActionEventLocator@@@Z 00405260 f i actionbuttonmanager.obj
 0001:00004c00       ?NewAction@TeleportAction@ActionButton@@SAPAVButtonHandler@2@PAVActionEventLocator@@@Z 00405280 f i actionbuttonmanager.obj
 0001:00004c80       ?NewAction@PurchaseCar@ActionButton@@SAPAVButtonHandler@2@PAVActionEventLocator@@@Z 00405300 f i actionbuttonmanager.obj
 0001:00004d00       ?NewAction@PurchaseSkin@ActionButton@@SAPAVButtonHandler@2@PAVActionEventLocator@@@Z 00405380 f i actionbuttonmanager.obj
 0001:00004d80       ?NewAction@PlayAnimOnce@ActionButton@@SAPAVButtonHandler@2@PAVActionEventLocator@@@Z 00405400 f i actionbuttonmanager.obj
 0001:00004de0       ?NewAction@AutomaticDoor@ActionButton@@SAPAVButtonHandler@2@PAVActionEventLocator@@@Z 00405460 f i actionbuttonmanager.obj
 0001:00004e40       ??_EISpatialProxyAA@@UAEPAXI@Z 004054c0 f i actionbuttonmanager.obj
 0001:00004e40       ??_GISpatialProxyAA@@UAEPAXI@Z 004054c0 f i actionbuttonmanager.obj
 0001:00004e60       ?radMakeCaseInsensitiveKey@@YA?AVtUidUnaligned@@PBDV1@@Z 004054e0 f i actionbuttonmanager.obj
 0001:00004ed0       ?FindHandler@ActionButtonManager@@QBEPAVActionEventHandler@ActionButton@@PBVActionEventLocator@@@Z 00405550 f   actionbuttonmanager.obj
 0001:00004f20       ?OnProcessRequestsComplete@ActionButtonManager@@UAEXPAX@Z 004055a0 f   actionbuttonmanager.obj
 0001:00004f40       ?GetInstance@ActionButtonManager@@SAPAV1@XZ 004055c0 f   actionbuttonmanager.obj
 0001:00004f50       ?DestroyInstance@ActionButtonManager@@SAXXZ 004055d0 f   actionbuttonmanager.obj
 0001:00004f70       ?Update@ActionButtonManager@@QAEXM@Z 004055f0 f   actionbuttonmanager.obj
 0001:00004fd0       ?AddAction@ActionButtonManager@@QAE_NPAVButtonHandler@ActionButton@@AAHVtUidUnaligned@@@Z 00405650 f   actionbuttonmanager.obj
 0001:00005060       ?CreateActionEventTrigger@ActionButtonManager@@QAE_NPBDAAVVector@RadicalMathLibrary@@M@Z 004056e0 f   actionbuttonmanager.obj
 0001:00005070       ?LinkActionToObject@ActionButtonManager@@QAE_NPBD0000_N@Z 004056f0 f   actionbuttonmanager.obj
 0001:00005080       ?Find@ActionButtonManager@@ABEHH@Z 00405700 f   actionbuttonmanager.obj
 0001:000050b0       ?RemoveActionByArrayPos@ActionButtonManager@@AAE_NH@Z 00405730 f   actionbuttonmanager.obj
 0001:000050f0       ?CompareActionType@ActionButton@@YA_NPBDVtUidUnaligned@@@Z 00405770 f   actionbuttonmanager.obj
 0001:00005140       ??0ActionButtonManager@@QAE@XZ 004057c0 f   actionbuttonmanager.obj
 0001:00005230       ??_EActionButtonManager@@W3AEPAXI@Z 004058b0 f i actionbuttonmanager.obj
 0001:00005240       ?Destroy@ActionButtonManager@@QAEXXZ 004058c0 f   actionbuttonmanager.obj
 0001:00005270       ?CreateInstance@ActionButtonManager@@SAPAV1@XZ 004058f0 f   actionbuttonmanager.obj
 0001:000052f0       ?GetActionByIndex@ActionButtonManager@@QBEPAVButtonHandler@ActionButton@@H@Z 00405970 f   actionbuttonmanager.obj
 0001:00005320       ?RemoveActionByIndex@ActionButtonManager@@QAE_NH@Z 004059a0 f   actionbuttonmanager.obj
 0001:00005340       ?LinkActionToObjectJoint@ActionButtonManager@@QAE_NPBD0000@Z 004059c0 f   actionbuttonmanager.obj
 0001:00005370       ?EnterActionTrigger@ActionButtonManager@@QAEXPAVCharacter@@H@Z 004059f0 f   actionbuttonmanager.obj
 0001:000053b0       ?ExitActionTrigger@ActionButtonManager@@QAEXPAVCharacter@@H@Z 00405a30 f   actionbuttonmanager.obj
 0001:000053f0       ?NewActionButtonHandler@ActionButtonManager@@QAEPAVButtonHandler@ActionButton@@PBDPAVActionEventLocator@@@Z 00405a70 f   actionbuttonmanager.obj
 0001:00005450       ?HandleEvent@ActionButtonManager@@UAEXW4EventEnum@@PAX@Z 00405ad0 f   actionbuttonmanager.obj
 0001:000054a0       ??1SpatialNode@@QAE@XZ     00405b20 f i actionbuttonmanager.obj
 0001:000055b0       ??1ActionButtonManager@@UAE@XZ 00405c30 f   actionbuttonmanager.obj
 0001:00005620       ?LinkActionToLocator@ActionButtonManager@@QAE_NPAVActionEventLocator@@PAVtEntityStore@@@Z 00405ca0 f   actionbuttonmanager.obj
 0001:00005710       ??1?$ContiguousBinNode@VSpatialNode@@@@QAE@XZ 00405d90 f i actionbuttonmanager.obj
 0001:00005720       ??_EActionButtonManager@@UAEPAXI@Z 00405da0 f i actionbuttonmanager.obj
 0001:00005720       ??_GActionButtonManager@@UAEPAXI@Z 00405da0 f i actionbuttonmanager.obj
 0001:00005740       ?AddActionEventLocator@ActionButtonManager@@QAE_NPAVActionEventLocator@@PAVtEntityStore@@@Z 00405dc0 f   actionbuttonmanager.obj
 0001:00005750       ??0AutomaticDoor@ActionButton@@QAE@PAVActionEventLocator@@@Z 00405dd0 f   automaticdoor.obj
 0001:00005780       ??1AutomaticDoor@ActionButton@@UAE@XZ 00405e00 f   automaticdoor.obj
 0001:000057e0       ?OnEnter@AutomaticDoor@ActionButton@@MAEXPAVCharacter@@@Z 00405e60 f   automaticdoor.obj
 0001:00005850       ?OnExit@AutomaticDoor@ActionButton@@MAEXPAVCharacter@@@Z 00405ed0 f   automaticdoor.obj
 0001:00005870       ??_GAutomaticDoor@ActionButton@@UAEPAXI@Z 00405ef0 f i automaticdoor.obj
 0001:00005870       ??_EAutomaticDoor@ActionButton@@UAEPAXI@Z 00405ef0 f i automaticdoor.obj
 0001:00005890       ??0PlayAnimOnce@ActionButton@@QAE@PAVActionEventLocator@@@Z 00405f10 f   playanimonce.obj
 0001:000058b0       ??1PlayAnimOnce@ActionButton@@UAE@XZ 00405f30 f   playanimonce.obj
 0001:00005910       ?OnButtonPressed@PlayAnimOnce@ActionButton@@UAE_NPAVCharacter@@PAVSequencer@@@Z 00405f90 f   playanimonce.obj
 0001:00005a40       ?PositionCharacter@PlayAnimOnce@ActionButton@@UAEXPAVCharacter@@PAVSequencer@@@Z 004060c0 f   playanimonce.obj
 0001:00005a50       ??_GPlayAnimOnce@ActionButton@@UAEPAXI@Z 004060d0 f i playanimonce.obj
 0001:00005a50       ??_EPlayAnimOnce@ActionButton@@UAEPAXI@Z 004060d0 f i playanimonce.obj
 0001:00005a70       ?Magnitude@Vector@RadicalMathLibrary@@QBEMXZ 004060f0 f i state.obj
 0001:00005a70       ?Length@Vector@RadicalMathLibrary@@QBEMXZ 004060f0 f i vehicleai.obj
 0001:00005aa0       ??GVector@RadicalMathLibrary@@QBE?AV01@ABV01@@Z 00406120 f i state.obj
 0001:00005ad0       ?HasDriver@Vehicle@@QBE_NXZ 00406150 f i state.obj
 0001:00005af0       ?SetFacingDir@Character@@QAEXM@Z 00406170 f i state.obj
 0001:00005b50       ??0DelayAction@@QAE@M@Z    004061d0 f i state.obj
 0001:00005b70       ?Update@DelayAction@@UAEXM@Z 004061f0 f i state.obj
 0001:00005b90       ?Update@SimulatedObject@sim@@UAEXM@Z 00406210 f i simxr:simulatedobject.obj
 0001:00005b90       ?Free@RadcoreMemAdapt@@UAEXPAX@Z 00406210 f i pure3dxr:context.obj
 0001:00005b90       ?AddGuts@RenderLayer@@UAEXPAVStaticPhysDSG@@@Z 00406210 f i RenderLayer.obj
 0001:00005b90       ?Update@CollectionCondition@@UAEXI@Z 00406210 f i collectdumpedobjective.obj
 0001:00005b90       ?End@BlendDriver@choreo@@UAEXPAVPuppet@2@@Z 00406210 f i choreoxr:blend.obj
 0001:00005b90       ?AddTarget@ReverseCam@@UAEXPAVISuperCamTarget@@@Z 00406210 f i reversecam.obj
 0001:00005b90       ?Warn@AdaptPDDI@@EAEXPBD@Z 00406210 f i pure3dxr:error.obj
 0001:00005b90       ?DisplayInstanced@tPrimGroup@@UAEXI@Z 00406210 f i pure3dxr:primgroup.obj
 0001:00005b90       ?FreeMemoryAligned@StaticHeap@@UAEXPAX@Z 00406210 f i radcorexr:staticheap.obj
 0001:00005b90       ?GetFirstPersonPosition@Vehicle@@UAEXPAVVector@RadicalMathLibrary@@@Z 00406210 f i vehicleinit.obj
 0001:00005b90       ?Reset@RootController@choreo@@UAEXPAVRootBlender@2@@Z 00406210 f i choreoxr:root.obj
 0001:00005b90       ?AddTarget@KullCam@@UAEXPAVISuperCamTarget@@@Z 00406210 f i kullcam.obj
 0001:00005b90       ?OnMemoryCopyAsyncComplete@radSoundBufferedDataSource@@UAEXPAX@Z 00406210 f i radsoundxr:buffereddatasource.obj
 0001:00005b90       ?SetTarget@SuperCam@@UAEXPAVISuperCamTarget@@@Z 00406210 f i debugcam.obj
 0001:00005b90       ?Chain@ExternalMemoryHeap@@UAEXPAUIRadMemoryHeap@@@Z 00406210 f i radcorexr:externalmemoryheap.obj
 0001:00005b90       ?HandleErrorResponse@CGuiScreenLoadSave@@MAEXW4ePromptResponse@CGuiMenuPrompt@@@Z 00406210 f i guiscreenmemorycard.obj
 0001:00005b90       ?RestartToMission@GameplayManager@@UAEXW4MissionEnum@RenderEnums@@@Z 00406210 f i gameplaymanager.obj
 0001:00005b90       ?AllowFreeing@IRadMemoryHeap@@UAEX_N@Z 00406210 f i radcorexr:staticheap.obj
 0001:00005b90       ?Update@VehicleController@@UAEXM@Z 00406210 f i vehiclecontroller.obj
 0001:00005b90       ?OnSetSimState@CollisionEntityDSG@@MAEXPAVSimState@sim@@@Z 00406210 f i FenceEntityDSG.obj
 0001:00005b90       ?LoadFileSync@IconFileHandler@@UAEXPBD@Z 00406210 f i iconfilehandler.obj
 0001:00005b90       ?SetNameOverride@tChunkHandler@@UAEXPBD@Z 00406210 f i atcloader.obj
 0001:00005b90       ?UpdateForRender@StatePropDSGProcAnimator@@UAEXPAVtCompositeDrawable@@@Z 00406210 f i actoranimationwasp.obj
 0001:00005b90       ?Advance@SuspensionJointDriver@@UAEXM@Z 00406210 f i suspensionjointdriver.obj
 0001:00005b90       ?OnEnter@PurchaseCar@ActionButton@@MAEXPAVCharacter@@@Z 00406210 f i actionbuttonhandler.obj
 0001:00005b90       ?OnEnter@PurchaseSkin@ActionButton@@MAEXPAVCharacter@@@Z 00406210 f i actionbuttonhandler.obj
 0001:00005b90       ?SetUncompressedSize@tFile@@UAEXH@Z 00406210 f i pure3dxr:file.obj
 0001:00005b90       ?AddGuts@FrontEndRenderLayer@@UAEXPAVStaticPhysDSG@@@Z 00406210 f i FrontEndRenderLayer.obj
 0001:00005b90       ?LoadFileSync@ScroobyFileHandler@@UAEXPBD@Z 00406210 f i scroobyfilehandler.obj
 0001:00005b90       ?OnUpdate@AnimSwitch@ActionButton@@MAEXM@Z 00406210 f i actionbuttonhandler.obj
 0001:00005b90       ?Begin@RootDriver@choreo@@UAEXPAVPuppet@2@@Z 00406210 f i choreoxr:root.obj
 0001:00005b90       ?SetTarget@AnimatedCam@@UAEXPAVISuperCamTarget@@@Z 00406210 f i animatedcam.obj
 0001:00005b90       ?AddGuts@RenderLayer@@UAEXPAVPathSegment@@@Z 00406210 f i RenderLayer.obj
 0001:00005b90       ?SetPitch@MusicSoundPlayer@Sound@@UAEXM@Z 00406210 f i musicsoundplayer.obj
 0001:00005b90       ?OnPresentationEventBegin@GameplayManager@@MAEXPAVPresentationEvent@@@Z 00406210 f i gameplaymanager.obj
 0001:00005b90       ?PrintOut@VirtualCM@sim@@MBEXM@Z 00406210 f i simxr:virtualcm.obj
 0001:00005b90       ?AddGuts@RenderLayer@@UAEXPAVFenceEntityDSG@@@Z 00406210 f i RenderLayer.obj
 0001:00005b90       ?Update@VehicleCarryingStateProp@@UAEXI@Z 00406210 f i vehiclecarryingstateprop.obj
 0001:00005b90       ?SetState@ActorAnimationUFO@@UAEXH@Z 00406210 f i ActorAnimationUFO.obj
 0001:00005b90       ?WakeUp@Position@@UAEXM@Z  00406210 f i action.obj
 0001:00005b90       ?LoadSettings@BumperCam@@UAEXPAE@Z 00406210 f i bumpercam.obj
 0001:00005b90       ?AddTarget@SuperCam@@UAEXPAVISuperCamTarget@@@Z 00406210 f i animatedcam.obj
 0001:00005b90       ?End@LocomotionDriver@choreo@@UAEXPAVPuppet@2@@Z 00406210 f i choreoxr:locomotion.obj
 0001:00005b90       ?DoCatchUp@VehicleAI@@MAEXM@Z 00406210 f i vehicleai.obj
 0001:00005b90       ?OnUpdate@ButtonHandler@ActionButton@@MAEXM@Z 00406210 f i actionbuttonhandler.obj
 0001:00005b90       ?End@ReplayDriver@choreo@@UAEXPAVPuppet@2@@Z 00406210 f i choreoxr:replay.obj
 0001:00005b90       ?GetBoundingBox@TriggerVolume@@UAEXPAVBox3D@RadicalMathLibrary@@@Z 00406210 f i triggervolume.obj
 0001:00005b90       ?LoadSettings@WalkerCam@@UAEXPAE@Z 00406210 f i walkercam.obj
 0001:00005b90       ?AddTarget@StaticCam@@UAEXPAVISuperCamTarget@@@Z 00406210 f i staticcam.obj
 0001:00005b90       ?AddGuts@FrontEndRenderLayer@@UAEXPAVIntersectDSG@@@Z 00406210 f i FrontEndRenderLayer.obj
 0001:00005b90       ?GetPosition@WorldSphereDSG@@UAEXPAVVector@RadicalMathLibrary@@@Z 00406210 f i WorldSphereDSG.obj
 0001:00005b90       ?AddGuts@RenderLayer@@UAEXPAVAnimCollisionEntityDSG@@@Z 00406210 f i RenderLayer.obj
 0001:00005b90       ?DisplayBoundingBox@InstAnimDynaPhysDSG@@UAEXUpddiColour@@@Z 00406210 f i InstAnimDynaPhysDSG.obj
 0001:00005b90       ?AddToDeformationSpeed@PhysicsJoint0D@sim@@MAEXABVVector@RadicalMathLibrary@@@Z 00406210 f i simxr:physicsjoint.obj
 0001:00005b90       ?Begin@ReplayDriver@choreo@@UAEXPAVPuppet@2@@Z 00406210 f i choreoxr:replay.obj
 0001:00005b90       ?DoSimulation@PlayAnimationAction@@UAEXM@Z 00406210 f i action.obj
 0001:00005b90       ?OnExit@SummonVehiclePhone@ActionButton@@MAEXPAVCharacter@@@Z 00406210 f i actionbuttonhandler.obj
 0001:00005b90       ?AddTarget@ChaseCam@@UAEXPAVISuperCamTarget@@@Z 00406210 f i chasecam.obj
 0001:00005b90       ?Chain@radMemoryDlAllocator@@UAEXPAUIRadMemoryHeap@@@Z 00406210 f i radcorexr:dlheap.obj
 0001:00005b90       ?Advance@RootMatrixDriver@@UAEXM@Z 00406210 f i StatePropDSG.obj
 0001:00005b90       ?SetOutlineColour@GuiMenuItemSprite@@UAEXUpddiColour@@@Z 00406210 f i guimenuitem.obj
 0001:00005b90       ?SetQuality@d3dExtFramebufferEffects@@UAEXW4Quality@pddiExtFramebufferEffects@@@Z 00406210 f i pure3dxr:context.obj
 0001:00005b90       ?OnStop@ExitContext@@MAEXW4ContextEnum@@@Z 00406210 f i exitcontext.obj
 0001:00005b90       ?OnStart@EntryContext@@MAEXW4ContextEnum@@@Z 00406210 f i entrycontext.obj
 0001:00005b90       ?OnSetSimState@Vehicle@@UAEXPAVSimState@sim@@@Z 00406210 f i vehicleinit.obj
 0001:00005b90       ?Update@Action@@UAEXM@Z    00406210 f i action.obj
 0001:00005b90       ?OnExit@Collectible@ActionButton@@MAEXPAVCharacter@@@Z 00406210 f i actionbuttonhandler.obj
 0001:00005b90       ?OnPresentationEventLoadComplete@GameplayManager@@MAEXPAVPresentationEvent@@@Z 00406210 f i gameplaymanager.obj
 0001:00005b90       ?GetCache@PhysicsJoint0D@sim@@MBEXAAVVector@RadicalMathLibrary@@@Z 00406210 f i simxr:physicsjoint.obj
 0001:00005b90       ?Update@Character@@UAEXM@Z 00406210 f i character.obj
 0001:00005b90       ?ProcessShaders@tDrawable@@UAEXAAVShaderCallback@1@@Z 00406210 f i actionbuttonhandler.obj
 0001:00005b90       ?UpdateForPhysics@SuperCam@@UAEXI@Z 00406210 f i animatedcam.obj
 0001:00005b90       ?ResetCache@SimulatedObject@sim@@UAEXH@Z 00406210 f i simxr:simulatedobject.obj
 0001:00005b90       ?LoadSettings@RailCam@@UAEXPAE@Z 00406210 f i railcam.obj
 0001:00005b90       ?RegisterCementFile@FeResourceManager@@QAEXPBD@Z 00406210 f i ScroobyLib:FeResourceManager.obj
 0001:00005b90       ?Advance@AnimationJointDriver@choreo@@UAEXM@Z 00406210 f i choreoxr:animation.obj
 0001:00005b90       ?SetMatrixCount@d3dExtHardwareSkinning@@UAEXI@Z 00406210 f i pure3dxr:context.obj
 0001:00005b90       ?SetTextureType@Builder@tImageHandler@@UAEXW4pddiTextureType@@@Z 00406210 f i pure3dxr:imagefactory.obj
 0001:00005b90       ?WakeUp@WalkerLocomotionAction@@UAEXM@Z 00406210 f i action.obj
 0001:00005b90       ?SetRespawnTime@Collectible@ActionButton@@MAEXM@Z 00406210 f i actionbuttonhandler.obj
 0001:00005b90       ?UpdateRespawnTime@Collectible@ActionButton@@MAEXM@Z 00406210 f i actionbuttonhandler.obj
 0001:00005b90       ?Update@Loco@CharacterAi@@MAEXM@Z 00406210 f i state.obj
 0001:00005b90       ?OnControllerDisconnect@SuperSprintManager@@UAEXH@Z 00406210 f i supersprintmanager.obj
 0001:00005b90       ?OnUpdate@DestroyBossObjective@@MAEXI@Z 00406210 f i destroybossobjective.obj
 0001:00005b90       ?SetState@ActorAnimationWasp@@UAEXH@Z 00406210 f i actoranimationwasp.obj
 0001:00005b90       ?DoSimulation@GroundSnap@@UAEXM@Z 00406210 f i state.obj
 0001:00005b90       ?GetBoundingSphere@WorldSphereDSG@@UAEXPAVSphere@RadicalMathLibrary@@@Z 00406210 f i WorldSphereDSG.obj
 0001:00005b90       ?Info@AdaptPDDI@@EAEXPBD@Z 00406210 f i pure3dxr:error.obj
 0001:00005b90       ?EndInset@tChunkFile@@QAEXPAVtFile@@@Z 00406210 f i pure3dxr:chunkfile.obj
 0001:00005b90       ?SetPosition@tFile@@UAEXH@Z 00406210 f i pure3dxr:file.obj
 0001:00005b90       ?Update@CharacterController@@UAEXM@Z 00406210 f i charactercontroller.obj
 0001:00005b90       ?SetOutputMode@radSoundHalSystem@@UAEXW4radSoundOutputMode@@@Z 00406210 f i radsoundxr:soundsystem.obj
 0001:00005b90       ?GetBoundingBox@WorldSphereDSG@@UAEXPAVBox3D@RadicalMathLibrary@@@Z 00406210 f i WorldSphereDSG.obj
 0001:00005b90       ?Update@GroundSnap@@UAEXM@Z 00406210 f i state.obj
 0001:00005b90       ?AddGuts@RenderLayer@@UAEXPAVStaticEntityDSG@@@Z 00406210 f i RenderLayer.obj
 0001:00005b90       ?RemoveGuts@RenderLayer@@UAEXPAVtMultiController@@@Z 00406210 f i RenderLayer.obj
 0001:00005b90       ?Advance@PhysicsJointMatrixModifier@sim@@UAEXM@Z 00406210 f i vehicleinit.obj
 0001:00005b90       ?DoSimulation@Action@@UAEXM@Z 00406210 f i action.obj
 0001:00005b90       ?WakeUp@Action@@UAEXM@Z    00406210 f i action.obj
 0001:00005b90       ?LoadSettings@ReverseCam@@UAEXPAE@Z 00406210 f i reversecam.obj
 0001:00005b90       ?OnExit@PurchaseSkin@ActionButton@@MAEXPAVCharacter@@@Z 00406210 f i actionbuttonhandler.obj
 0001:00005b90       ?SetVelocity@tParticleSystem@@UAEXABVVector@RadicalMathLibrary@@@Z 00406210 f i pure3dxr:particlesystem.obj
 0001:00005b90       ?SetExpectedFileSize@Builder@tImageHandler@@UAEXH@Z 00406210 f i pure3dxr:imagefactory.obj
 0001:00005b90       ?LoadFileSync@SoundFileHandler@@UAEXPBD@Z 00406210 f i soundfilehandler.obj
 0001:00005b90       ?AddGuts@RenderLayer@@UAEXPAVDynaPhysDSG@@@Z 00406210 f i RenderLayer.obj
 0001:00005b90       ?UnLoadScreen@FeProject@@UAEXPAVScreen@Scrooby@@@Z 00406210 f i ScroobyLib:FeProject.obj
 0001:00005b90       ?OnPostSimUpdate@Character@@EAEXM@Z 00406210 f i character.obj
 0001:00005b90       ?GetBoundingSphere@TriggerVolume@@UAEXPAVSphere@RadicalMathLibrary@@@Z 00406210 f i triggervolume.obj
 0001:00005b90       ?SetDisplayOutline@GuiMenuItemSprite@@UAEX_N@Z 00406210 f i guimenuitem.obj
 0001:00005b90       ?AddGuts@RenderLayer@@UAEXPAVTriggerVolume@@@Z 00406210 f i RenderLayer.obj
 0001:00005b90       ?AddGuts@FrontEndRenderLayer@@UAEXPAVtDrawable@@@Z 00406210 f i FrontEndRenderLayer.obj
 0001:00005b90       ?AddGuts@RenderLayer@@UAEXPAVAnimEntityDSG@@@Z 00406210 f i RenderLayer.obj
 0001:00005b90       ?OnExit@ButtonHandler@ActionButton@@MAEXPAVCharacter@@@Z 00406210 f i actionbuttonhandler.obj
 0001:00005b90       ?LoadFileSync@CementFileHandler@@UAEXPBD@Z 00406210 f i cementfilehandler.obj
 0001:00005b90       ?LoadSettings@ConversationCam@@UAEXPAE@Z 00406210 f i conversationcam.obj
 0001:00005b90       ?Advance@RootController@choreo@@UAEXM@Z 00406210 f i choreoxr:root.obj
 0001:00005b90       ?SetRotationSpeed@Projectile@@UAEXM@Z 00406210 f i projectile.obj
 0001:00005b90       ?Update@InSim@CharacterAi@@MAEXM@Z 00406210 f i state.obj
 0001:00005b90       ?OnPresentationEventLoadComplete@BootupContext@@MAEXPAVPresentationEvent@@@Z 00406210 f i bootupcontext.obj
 0001:00005b90       ?ServiceOncePerFrame@SoundFXLogic@@UAEXI@Z 00406210 f i soundfxlogic.obj
 0001:00005b90       ?SetIntention@PhysicalController@@UAEXW4eIntention@CharacterController@@@Z 00406210 f i charactercontroller.obj
 0001:00005b90       ?DoSimulation@CringeAction@@UAEXM@Z 00406210 f i action.obj
 0001:00005b90       ?SetShadow@IEntityDSG@@UAEXPAVtShadowMesh@@@Z 00406210 f i actordsg.obj
 0001:00005b90       ?LoadSettings@SuperCam@@UAEXPAE@Z 00406210 f i animatedcam.obj
 0001:00005b90       ?DoSimulation@GetUpAction@@UAEXM@Z 00406210 f i action.obj
 0001:00005b90       ?Update@FeDrawable@@UAEXM@Z 00406210 f i ScroobyLib:FeDrawable.obj
 0001:00005b90       ?OnUpdate@ExitContext@@MAEXI@Z 00406210 f i exitcontext.obj
 0001:00005b90       ?OnUpdateCollectibleObjective@CollectibleObjective@@MAEXI@Z 00406210 f i collectibleobjective.obj
 0001:00005b90       ?Reset@AnimationRootDriver@choreo@@UAEXPAVRootBlender@2@@Z 00406210 f i choreoxr:animation.obj
 0001:00005b90       ?AddTarget@TrackerCam@@UAEXPAVISuperCamTarget@@@Z 00406210 f i trackercam.obj
 0001:00005b90       ?OnTrigger@TriggerLocator@@MAEXI@Z 00406210 f i triggerlocator.obj
 0001:00005b90       ?Update@Position@@UAEXM@Z  00406210 f i action.obj
 0001:00005b90       ?SetTo@SphereSP@@UAEXAAVBounds3f@@@Z 00406210 f i SphereSP.obj
 0001:00005b90       ?UpdateTransform@Leaf@Scenegraph@@UAEXABVMatrix@RadicalMathLibrary@@@Z 00406210 f i pure3dxr:scenegraph.obj
 0001:00005b90       ?Update@Arrive@@UAEXM@Z    00406210 f i action.obj
 0001:00005b90       ?GetPosition@PathSegment@@UAEXPAVVector@RadicalMathLibrary@@@Z 00406210 f i pathsegment.obj
 0001:00005b90       ?AddTarget@RailCam@@UAEXPAVISuperCamTarget@@@Z 00406210 f i railcam.obj
 0001:00005b90       ?OnUpdate@BonusObjective@@MAEXI@Z 00406210 f i nocopbonusobjective.obj
 0001:00005b90       ?AddBehaviour@Projectile@@UAEXPAVBehaviour@@@Z 00406210 f i projectile.obj
 0001:00005b90       ?OnPresentationEventLoadComplete@CGuiScreenPlayMovie@@UAEXPAVPresentationEvent@@@Z 00406210 f i guiscreenplaymovie.obj
 0001:00005b90       ?End@RootDriver@choreo@@UAEXPAVPuppet@2@@Z 00406210 f i choreoxr:root.obj
 0001:00005b90       ?SetPriority@radInstanceDrive@@UAEXW4radFilePriority@@@Z 00406210 f i radcorexr:instancedrive.obj
 0001:00005b90       ?TouchProp@Character@@QAEXPAVInstDynaPhysDSG@@@Z 00406210 f i character.obj
 0001:00005b90       ?RemoveGuts@RenderLayer@@UAEXPAVIEntityDSG@@@Z 00406210 f i RenderLayer.obj
 0001:00005b90       ?OnEnter@ButtonHandler@ActionButton@@MAEXPAVCharacter@@@Z 00406210 f i actionbuttonhandler.obj
 0001:00005b90       ?AddGuts@RenderLayer@@UAEXPAVSpatialTree@@@Z 00406210 f i RenderLayer.obj
 0001:00005b90       ?OnUpdate@DestroyObject@ActionButton@@MAEXM@Z 00406210 f i actionbuttonhandler.obj
 0001:00005b90       ?ReSetAudioFormat@radSoundBufferXBox@@UAEXPAUIRadSoundHalAudioFormat@@@Z 00406210 f i radsoundxr:buffer.obj
 0001:00005b90       ?AddGuts@FrontEndRenderLayer@@UAEXPAVStaticEntityDSG@@@Z 00406210 f i FrontEndRenderLayer.obj
 0001:00005b90       ?AddTarget@BumperCam@@UAEXPAVISuperCamTarget@@@Z 00406210 f i bumpercam.obj
 0001:00005b90       ?AddGuts@FrontEndRenderLayer@@UAEXPAVtGeometry@@@Z 00406210 f i FrontEndRenderLayer.obj
 0001:00005b90       ?DoSimulation@CarDoorAction@@UAEXM@Z 00406210 f i action.obj
 0001:00005b90       ?Update@FMVPlayer@@UAEXI@Z 00406210 f i fmvplayer.obj
 0001:00005b90       ?LoadSettings@ChaseCam@@UAEXPAE@Z 00406210 f i chasecam.obj
 0001:00005b90       ?OnPresentationEventLoadComplete@FMVObjective@@MAEXPAVPresentationEvent@@@Z 00406210 f i fmvobjective.obj
 0001:00005b90       ?PrintOut@JointVirtualCM@sim@@UBEXM@Z 00406210 f i simxr:virtualcm.obj
 0001:00005b90       ?Update@MissionCondition@@UAEXI@Z 00406210 f i damagecondition.obj
 0001:00005b90       ?GetDirection@CharacterMappable@@UBEXAAVVector@RadicalMathLibrary@@@Z 00406210 f i charactermappable.obj
 0001:00005b90       ?Advance@BlendJointDriver@choreo@@UAEXM@Z 00406210 f i choreoxr:blend.obj
 0001:00005b90       ?OnUpdate@MissionObjective@@MAEXI@Z 00406210 f i dialogueobjective.obj
 0001:00005b90       ?AddGuts@RenderLayer@@UAEXPAVApp@Scrooby@@@Z 00406210 f i RenderLayer.obj
 0001:00005b90       ?AddTarget@WalkerCam@@UAEXPAVISuperCamTarget@@@Z 00406210 f i walkercam.obj
 0001:00005b90       ?SetMatrix@Locator@@UAEXABVMatrix@RadicalMathLibrary@@@Z 00406210 f i spawnpoint.obj
 0001:00005b90       ?EndPrims@pddiBaseContext@@UAEXPAVd3dPrimStream@@@Z 00406210 f i pure3dxr:basecontext.obj
 0001:00005b90       ?SetPriority@radFile@@UAEXW4radFilePriority@@@Z 00406210 f i radcorexr:file.obj
 0001:00005b90       ?OnUpdate@RacePositionBonusObjective@@MAEXI@Z 00406210 f i racepositionbonusobjective.obj
 0001:00005b90       ?SetUsedSize@pddiPrimBuffer@@UAEXH@Z 00406210 f i pure3dxr:prim.obj
 0001:00005b90       ?Begin@BlendDriver@choreo@@UAEXPAVPuppet@2@@Z 00406210 f i choreoxr:blend.obj
 0001:00005b90       ?OnStop@EntryContext@@MAEXW4ContextEnum@@@Z 00406210 f i entrycontext.obj
 0001:00005b90       ?Clear@pddiBaseContext@@UAEXI@Z 00406210 f i pure3dxr:basecontext.obj
 0001:00005b90       ?OnControllerConnect@Mappable@@UAEXH@Z 00406210 f i mappable.obj
 0001:00005b90       ?AddGuts@RenderLayer@@UAEXPAVWorldSphereDSG@@@Z 00406210 f i RenderLayer.obj
 0001:00005b90       ?OnUpdate@EntryContext@@MAEXI@Z 00406210 f i entrycontext.obj
 0001:00005b90       ?AddConstraint@SimulatedObject@sim@@UAEXABVLocalTarget@2@@Z 00406210 f i simxr:simulatedobject.obj
 0001:00005b90       ?Advance@ReplayDriver@choreo@@UAEXM@Z 00406210 f i choreoxr:replay.obj
 0001:00005b90       ?SetShadow@IEntityDSG@@UAEXPAVtShadowSkin@@@Z 00406210 f i actordsg.obj
 0001:00005b90       ?Begin@LocomotionDriver@choreo@@UAEXPAVPuppet@2@@Z 00406210 f i choreoxr:locomotion.obj
 0001:00005b90       ?SetReadWriteGranularity@radInstanceDrive@@UAEXI@Z 00406210 f i radcorexr:instancedrive.obj
 0001:00005b90       ?AddGuts@RenderLayer@@UAEXPAVIntersectDSG@@@Z 00406210 f i RenderLayer.obj
 0001:00005b90       ?ToggleFirstPerson@SuperCamCentral@@QAEXH@Z 00406210 f i supercamcentral.obj
 0001:00005b90       ?SetCache@PhysicsJoint0D@sim@@MAEXABVVector@RadicalMathLibrary@@@Z 00406210 f i simxr:physicsjoint.obj
 0001:00005b90       ?SetWatcherName@carSoundParameters@@QAEXPBD@Z 00406210 f i carsoundparameters.obj
 0001:00005b90       ?Init@WorldScene@@QAEXH@Z  00406210 f i WorldScene.obj
 0001:00005b90       ?GetPosition@IEntityDSG@@UAEXPAVVector@RadicalMathLibrary@@@Z 00406210 f i IEntityDSG.obj
 0001:00005b90       ?OnSetSimState@AnimCollisionEntityDSG@@MAEXPAVSimState@sim@@@Z 00406210 f i animcollisionentitydsg.obj
 0001:00005b90       ?OnPresentationEventBegin@BootupContext@@MAEXPAVPresentationEvent@@@Z 00406210 f i bootupcontext.obj
 0001:00005b90       ?DoUpdate@Mission@@MAEXH@Z 00406210 f i mission.obj
 0001:00005b90       ?Update@DynaPhysDSG@@UAEXM@Z 00406210 f i DynaPhysDSG.obj
 0001:00005b90       ?OnExit@PurchaseCar@ActionButton@@MAEXPAVCharacter@@@Z 00406210 f i actionbuttonhandler.obj
 0001:00005b90       ?AddGuts@RenderLayer@@UAEXPAVRoadSegment@@@Z 00406210 f i RenderLayer.obj
 0001:00005b90       ?Update@NoState@CharacterAi@@MAEXM@Z 00406210 f i statemanager.obj
 0001:00005b90       ?LoadSettings@FollowCam@@UAEXPAE@Z 00406210 f i followcam.obj
 0001:00005b90       ?TryFixOverFlow@PhysicsJoint0D@sim@@MAEXABVVector@RadicalMathLibrary@@@Z 00406210 f i simxr:physicsjoint.obj
 0001:00005b90       ?OnPresentationEventBegin@FMVObjective@@MAEXPAVPresentationEvent@@@Z 00406210 f i fmvobjective.obj
 0001:00005b90       ?DisplayBoundingBox@ParticleSystemDSG@@UAEXUpddiColour@@@Z 00406210 f i particlesystemdsg.obj
 0001:00005b90       ?SetDialogueLanguage@SoundManager@@QAEXW4XLLanguage@Scrooby@@@Z 00406210 f i soundmanager.obj
 0001:00005b90       ?OnEnter@SummonVehiclePhone@ActionButton@@MAEXPAVCharacter@@@Z 00406210 f i actionbuttonhandler.obj
 0001:00005b90       ?DoSimulation@FlailAction@@UAEXM@Z 00406210 f i action.obj
 0001:00005b90       ?FreeMemoryAligned@MemoryPool@@UAEXPAX@Z 00406210 f i radcorexr:memorypool.obj
 0001:00005b90       ?OnUpdateRoot@NPCharacter@@EAEXM@Z 00406210 f i character.obj
 0001:00005b90       ?GetRotAxis@PhysicsJoint0D@sim@@MBEXAAVVector@RadicalMathLibrary@@@Z 00406210 f i simxr:physicsjoint.obj
 0001:00005b90       ?SetShadow@Vehicle@@UAEXPAVtShadowMesh@@@Z 00406210 f i vehicleinit.obj
 0001:00005b90       ?FreeMemory@StaticHeap@@UAEXPAX@Z 00406210 f i radcorexr:staticheap.obj
 0001:00005b90       ?Advance@StatePropDSGProcAnimator@@UAEXM@Z 00406210 f i actoranimationwasp.obj
 0001:00005ba0       ??_EGroundSnap@@UAEPAXI@Z  00406220 f i state.obj
 0001:00005ba0       ??_GGroundSnap@@UAEPAXI@Z  00406220 f i state.obj
 0001:00005bd0       ??1GroundSnap@@UAE@XZ      00406250 f i state.obj
 0001:00005be0       ??0ChangeNPCControllerState@@QAE@PAVCharacter@@W4State@NPCController@@@Z 00406260 f i state.obj
 0001:00005c10       ?IsInside@InteriorManager@@QAE_NXZ 00406290 f i state.obj
 0001:00005c30       ??0State@CharacterAi@@QAE@PAVCharacter@@@Z 004062b0 f   state.obj
 0001:00005c50       ??1State@CharacterAi@@UAE@XZ 004062d0 f   state.obj
 0001:00005c60       ??0InCar@CharacterAi@@QAE@PAVCharacter@@@Z 004062e0 f   state.obj
 0001:00005cf0       ?GetGroundPlaneAIRef@Vehicle@@UAEHXZ 00406370 f i vehicleinit.obj
 0001:00005cf0       ?GetStateID@InCar@CharacterAi@@UBE?AW4CharacterState@2@XZ 00406370 f i state.obj
 0001:00005cf0       ?GetDataType@Locator@@UBE?AW4Type@LocatorType@@XZ 00406370 f i locator.obj
 0001:00005cf0       ?GetType@SummonVehiclePhone@ActionButton@@UAE?AW4Type@ButtonHandler@2@XZ 00406370 f i actionbuttonhandler.obj
 0001:00005d00       ??1InCar@CharacterAi@@UAE@XZ 00406380 f   state.obj
 0001:00005d50       ?Enter@InCar@CharacterAi@@MAEXXZ 004063d0 f   state.obj
 0001:00005f30       ?Exit@InCar@CharacterAi@@MAEXXZ 004065b0 f   state.obj
 0001:00005f90       ?SequenceAction@InCar@CharacterAi@@MAEXXZ 00406610 f   state.obj
 0001:00006070       ??0Loco@CharacterAi@@QAE@PAVCharacter@@@Z 004066f0 f   state.obj
 0001:00006090       ??1Loco@CharacterAi@@UAE@XZ 00406710 f   state.obj
 0001:000060a0       ?Enter@Loco@CharacterAi@@MAEXXZ 00406720 f   state.obj
 0001:00006150       ?Exit@Loco@CharacterAi@@MAEXXZ 004067d0 f   state.obj
 0001:00006190       ??0GetIn@CharacterAi@@QAE@PAVCharacter@@@Z 00406810 f   state.obj
 0001:00006210       ??1GetIn@CharacterAi@@UAE@XZ 00406890 f   state.obj
 0001:00006260       ?HandleEvent@GetIn@CharacterAi@@MAEXW4EventEnum@@PAX@Z 004068e0 f   state.obj
 0001:00006350       ?CalcGetInPath@GetIn@CharacterAi@@AAEXPAHPAVVector@RadicalMathLibrary@@PA_N2@Z 004069d0 f   state.obj
 0001:00006840       ?ReleaseVerified@radLoadObject@@QAEXXZ 00406ec0 f   radcontent:object.obj
 0001:00006840       ?SequenceAction@GetOut@CharacterAi@@MAEXXZ 00406ec0 f   state.obj
 0001:00006840       ?SequenceAction@GetIn@CharacterAi@@MAEXXZ 00406ec0 f   state.obj
 0001:00006850       ?Update@GetIn@CharacterAi@@MAEXM@Z 00406ed0 f   state.obj
 0001:000068d0       ?Exit@GetIn@CharacterAi@@MAEXXZ 00406f50 f   state.obj
 0001:00006910       ??0GetOut@CharacterAi@@QAE@PAVCharacter@@@Z 00406f90 f   state.obj
 0001:00006980       ??1GetOut@CharacterAi@@UAE@XZ 00407000 f   state.obj
 0001:000069d0       ?Update@GetOut@CharacterAi@@MAEXM@Z 00407050 f   state.obj
 0001:00006a10       ??0InSim@CharacterAi@@QAE@PAVCharacter@@@Z 00407090 f   state.obj
 0001:00006a30       ?GetType@PurchaseCar@ActionButton@@UAE?AW4Type@ButtonHandler@2@XZ 004070b0 f i actionbuttonhandler.obj
 0001:00006a30       ?GetType@ChaseCam@@UAE?AW4Type@SuperCam@@XZ 004070b0 f i chasecam.obj
 0001:00006a30       ?GetAbsoluteMaxObjects@ChaseManager@@UBEHXZ 004070b0 f i chasemanager.obj
 0001:00006a30       ?GetDataType@ZoneEventLocator@@UBE?AW4Type@LocatorType@@XZ 004070b0 f i zoneeventlocator.obj
 0001:00006a30       ?GetStateID@InSim@CharacterAi@@UBE?AW4CharacterState@2@XZ 004070b0 f i state.obj
 0001:00006a40       ??1InSim@CharacterAi@@UAE@XZ 004070c0 f   state.obj
 0001:00006a50       ?Enter@InSim@CharacterAi@@MAEXXZ 004070d0 f   state.obj
 0001:00006b40       ??0?$TArray@VRayIntersectionInfo@sim@@@sim@@QAE@H@Z 004071c0 f i state.obj
 0001:00006be0       ??$SetState@VGetOut@CharacterAi@@@StateManager@CharacterAi@@QAEXXZ 00407260 f i state.obj
 0001:00006c70       ??$SetState@VLoco@CharacterAi@@@StateManager@CharacterAi@@QAEXXZ 004072f0 f i state.obj
 0001:00006cd0       ??_EGetOut@CharacterAi@@W7AEPAXI@Z 00407350 f i state.obj
 0001:00006ce0       ??_EGetIn@CharacterAi@@W7AEPAXI@Z 00407360 f i state.obj
 0001:00006cf0       ??$Abs@M@RadicalMathLibrary@@YAMM@Z 00407370 f i state.obj
 0001:00006d10       ??_EDelayAction@@UAEPAXI@Z 00407390 f i state.obj
 0001:00006d10       ??_E?$ChangeState@VLoco@CharacterAi@@@@UAEPAXI@Z 00407390 f i state.obj
 0001:00006d10       ??_GDelayAction@@UAEPAXI@Z 00407390 f i state.obj
 0001:00006d10       ??_GReleaseDoorsAction@@UAEPAXI@Z 00407390 f i state.obj
 0001:00006d10       ??_G?$ChangeState@VInCar@CharacterAi@@@@UAEPAXI@Z 00407390 f i state.obj
 0001:00006d10       ??_EReleaseDoorsAction@@UAEPAXI@Z 00407390 f i state.obj
 0001:00006d10       ??_G?$ChangeState@VLoco@CharacterAi@@@@UAEPAXI@Z 00407390 f i state.obj
 0001:00006d10       ??_E?$ChangeState@VInCar@CharacterAi@@@@UAEPAXI@Z 00407390 f i state.obj
 0001:00006d40       ??_GDodgeAction@@UAEPAXI@Z 004073c0 f i action.obj
 0001:00006d40       ??_GFlailAction@@UAEPAXI@Z 004073c0 f i action.obj
 0001:00006d40       ??_GCringeAction@@UAEPAXI@Z 004073c0 f i action.obj
 0001:00006d40       ??_GChangeLocomotion@@UAEPAXI@Z 004073c0 f i state.obj
 0001:00006d40       ??_EChangeLocomotion@@UAEPAXI@Z 004073c0 f i state.obj
 0001:00006d40       ??_ETriggerEventAction@@UAEPAXI@Z 004073c0 f i actionbuttonhandler.obj
 0001:00006d40       ??_ECringeAction@@UAEPAXI@Z 004073c0 f i action.obj
 0001:00006d40       ??_EGetUpAction@@UAEPAXI@Z 004073c0 f i action.obj
 0001:00006d40       ??_GTriggerEventAction@@UAEPAXI@Z 004073c0 f i actionbuttonhandler.obj
 0001:00006d40       ??_EAssignValueToFloat@@UAEPAXI@Z 004073c0 f i actionbuttonhandler.obj
 0001:00006d40       ??_GChangeNPCControllerState@@UAEPAXI@Z 004073c0 f i state.obj
 0001:00006d40       ??_EChangeNPCControllerState@@UAEPAXI@Z 004073c0 f i state.obj
 0001:00006d40       ??_EDodgeAction@@UAEPAXI@Z 004073c0 f i action.obj
 0001:00006d40       ??_GAssignValueToFloat@@UAEPAXI@Z 004073c0 f i actionbuttonhandler.obj
 0001:00006d40       ??_EFlailAction@@UAEPAXI@Z 004073c0 f i action.obj
 0001:00006d40       ??_GGetUpAction@@UAEPAXI@Z 004073c0 f i action.obj
 0001:00006d70       ??0KickAction@@QAE@PAVCharacter@@M@Z 004073f0 f i state.obj
 0001:00006da0       ??_GKickAction@@UAEPAXI@Z  00407420 f i state.obj
 0001:00006da0       ??_EKickAction@@UAEPAXI@Z  00407420 f i state.obj
 0001:00006dd0       ??_GState@CharacterAi@@UAEPAXI@Z 00407450 f i state.obj
 0001:00006dd0       ??_EState@CharacterAi@@UAEPAXI@Z 00407450 f i state.obj
 0001:00006e00       ??_GInCar@CharacterAi@@UAEPAXI@Z 00407480 f i state.obj
 0001:00006e00       ??_EInCar@CharacterAi@@UAEPAXI@Z 00407480 f i state.obj
 0001:00006e30       ?Update@InCar@CharacterAi@@MAEXM@Z 004074b0 f   state.obj
 0001:000076e0       ??_GLoco@CharacterAi@@UAEPAXI@Z 00407d60 f i state.obj
 0001:000076e0       ??_ELoco@CharacterAi@@UAEPAXI@Z 00407d60 f i state.obj
 0001:00007710       ?SequenceAction@Loco@CharacterAi@@MAEXXZ 00407d90 f   state.obj
 0001:00007ec0       ??_EGetIn@CharacterAi@@UAEPAXI@Z 00408540 f i state.obj
 0001:00007ec0       ??_GGetIn@CharacterAi@@UAEPAXI@Z 00408540 f i state.obj
 0001:00007ef0       ?Enter@GetIn@CharacterAi@@MAEXXZ 00408570 f   state.obj
 0001:00008ae0       ??_GGetOut@CharacterAi@@UAEPAXI@Z 00409160 f i state.obj
 0001:00008ae0       ??_EGetOut@CharacterAi@@UAEPAXI@Z 00409160 f i state.obj
 0001:00008b10       ?DoGetOut@GetOut@CharacterAi@@IAEXXZ 00409190 f   state.obj
 0001:00009390       ??_GInSim@CharacterAi@@UAEPAXI@Z 00409a10 f i state.obj
 0001:00009390       ??_EInSim@CharacterAi@@UAEPAXI@Z 00409a10 f i state.obj
 0001:000093c0       ?SequenceAction@InSim@CharacterAi@@MAEXXZ 00409a40 f   state.obj
 0001:000093d0       ?Update@?$ChangeState@VInCar@CharacterAi@@@@UAEXM@Z 00409a50 f i state.obj
 0001:000093f0       ??$SetState@VInCar@CharacterAi@@@CharacterAi@@YAXPAVStateManager@0@@Z 00409a70 f i state.obj
 0001:00009480       ?Update@?$ChangeState@VLoco@CharacterAi@@@@UAEXM@Z 00409b00 f i state.obj
 0001:000094a0       ??$SetState@VLoco@CharacterAi@@@CharacterAi@@YAXPAVStateManager@0@@Z 00409b20 f i state.obj
 0001:00009500       ?Enter@GetOut@CharacterAi@@MAEXXZ 00409b80 f   state.obj
 0001:000095e0       ?HandleEvent@GetOut@CharacterAi@@MAEXW4EventEnum@@PAX@Z 00409c60 f   state.obj
 0001:000098c0       ??_GNoState@CharacterAi@@UAEPAXI@Z 00409f40 f i statemanager.obj
 0001:000098c0       ??_ENoState@CharacterAi@@UAEPAXI@Z 00409f40 f i statemanager.obj
 0001:000098f0       ??1NoState@CharacterAi@@UAE@XZ 00409f70 f i statemanager.obj
 0001:00009900       ??0StateManager@CharacterAi@@QAE@PAVCharacter@@@Z 00409f80 f   statemanager.obj
 0001:00009970       ??1StateManager@CharacterAi@@QAE@XZ 00409ff0 f   statemanager.obj
 0001:00009990       ?GetWrenchRespawnTime@RespawnManager@@QAEHXZ 0040a010 f   respawnmanager.obj
 0001:00009990       ?GetBuffer@UnicodeString@@QAEPAGXZ 0040a010 f   ScroobyLib:UnicodeString.obj
 0001:00009990       ?GetCharacter@StateManager@CharacterAi@@QAEPAVCharacter@@XZ 0040a010 f   statemanager.obj
 0001:00009990       ??BPascalCString@@QAEPADXZ 0040a010 f   ScroobyLib:pcstring.obj
 0001:000099a0       ?GetState@StateManager@CharacterAi@@QBE?AW4CharacterState@2@XZ 0040a020 f   statemanager.obj
 0001:000099b0       ?SetState@StateManager@CharacterAi@@QAEXPAVState@2@@Z 0040a030 f   statemanager.obj
 0001:000099e0       ?ResetState@StateManager@CharacterAi@@QAEXXZ 0040a060 f   statemanager.obj
 0001:00009a10       ?Update@StateManager@CharacterAi@@QAEXM@Z 0040a090 f   statemanager.obj
 0001:00009a80       ?Epsilon@RadicalMathLibrary@@YA_NMMM@Z 0040a100 f i action.obj
 0001:00009ab0       ?MagnitudeSqr@Vector@RadicalMathLibrary@@QBEMXZ 0040a130 f i action.obj
 0001:00009ad0       ?GetFacing@Character@@QBEXAAVVector@RadicalMathLibrary@@@Z 0040a150 f i action.obj
 0001:00009b30       ?GetDesiredDir@Character@@QBEMXZ 0040a1b0 f i action.obj
 0001:00009b80       ?SetPosition@Character@@QAEXABVVector@RadicalMathLibrary@@@Z 0040a200 f i action.obj
 0001:00009bf0       ?SetSpeed@Character@@QAEXM@Z 0040a270 f i action.obj
 0001:00009c60       ?WorldToLocal@Character@@QBE?AVVector@RadicalMathLibrary@@ABV23@@Z 0040a2e0 f i action.obj
 0001:00009cb0       ?LocalToWorld@Character@@QBE?AVVector@RadicalMathLibrary@@ABV23@@Z 0040a330 f i action.obj
 0001:00009d00       ??1Action@@UAE@XZ          0040a380 f   action.obj
 0001:00009d10       ?PlayDriver@WalkerLocomotionAction@@QAEXXZ 0040a390 f   action.obj
 0001:00009d30       ?StopDriver@WalkerLocomotionAction@@QAEXXZ 0040a3b0 f   action.obj
 0001:00009d50       ?SolveActualDir@WalkerLocomotionAction@@IAEMMM@Z 0040a3d0 f   action.obj
 0001:00009e10       ?SolveActualSpeed@WalkerLocomotionAction@@IAEMMM@Z 0040a490 f   action.obj
 0001:00009e80       ?DoSimulation@WalkerLocomotionAction@@UAEXM@Z 0040a500 f   action.obj
 0001:0000a050       ??0InCarAction@@QAE@PAVCharacter@@@Z 0040a6d0 f   action.obj
 0001:0000a090       ?DoSimulation@HoldAnimationAction@@UAEXM@Z 0040a710 f   action.obj
 0001:0000a090       ?DoSimulation@InCarAction@@UAEXM@Z 0040a710 f   action.obj
 0001:0000a100       ??0HoldAnimationAction@@QAE@PAVCharacter@@PBDM@Z 0040a780 f   action.obj
 0001:0000a190       ?Update@HoldAnimationAction@@UAEXM@Z 0040a810 f   action.obj
 0001:0000a1d0       ?ShouldRelease@ReverseAction@@MAE_NXZ 0040a850 f   action.obj
 0001:0000a230       ?ShouldRelease@AccelAction@@MAE_NXZ 0040a8b0 f   action.obj
 0001:0000a260       ?ShouldRelease@DecelAction@@MAE_NXZ 0040a8e0 f   action.obj
 0001:0000a2c0       ??0Arrive@@QAE@PAVCharacter@@AAVVector@RadicalMathLibrary@@_N@Z 0040a940 f   action.obj
 0001:0000a330       ??1Arrive@@UAE@XZ          0040a9b0 f   action.obj
 0001:0000a340       ?WakeUp@Arrive@@UAEXM@Z    0040a9c0 f   action.obj
 0001:0000a410       ?Clear@Arrive@@UAEXXZ      0040aa90 f   action.obj
 0001:0000a430       ??0Orient@@QAE@PAVCharacter@@AAVVector@RadicalMathLibrary@@@Z 0040aab0 f   action.obj
 0001:0000a4c0       ??1Orient@@UAE@XZ          0040ab40 f   action.obj
 0001:0000a4d0       ?WakeUp@Orient@@UAEXM@Z    0040ab50 f   action.obj
 0001:0000a4e0       ?DoSimulation@Orient@@UAEXM@Z 0040ab60 f   action.obj
 0001:0000a540       ?Update@Orient@@UAEXM@Z    0040abc0 f   action.obj
 0001:0000a600       ??0Position@@QAE@PAVCharacter@@AAVVector@RadicalMathLibrary@@M_N@Z 0040ac80 f   action.obj
 0001:0000a650       ??1Position@@UAE@XZ        0040acd0 f   action.obj
 0001:0000a660       ?WakeUp@GroundSnap@@UAEXM@Z 0040ace0 f   action.obj
 0001:0000a710       ??0PlayAnimationAction@@QAE@PAVCharacter@@PBDM@Z 0040ad90 f   action.obj
 0001:0000a7a0       ??0PlayAnimationAction@@QAE@PAVCharacter@@ABVtName@@M@Z 0040ae20 f   action.obj
 0001:0000a830       ?AbortWhenMovementOccurs@PlayAnimationAction@@QAEX_N@Z 0040aeb0 f   action.obj
 0001:0000a850       ?Update@PlayAnimationAction@@UAEXM@Z 0040aed0 f   action.obj
 0001:0000a880       ?Clear@PlayAnimationAction@@UAEXXZ 0040af00 f   action.obj
 0001:0000a8d0       ??0PlayIdleAnimationAction@@QAE@PAVCharacter@@PBDM@Z 0040af50 f   action.obj
 0001:0000a900       ?Clear@PlayIdleAnimationAction@@UAEXXZ 0040af80 f   action.obj
 0001:0000a910       ?Abort@PlayIdleAnimationAction@@UAEXXZ 0040af90 f   action.obj
 0001:0000a920       ??0CarDoorAction@@QAE@PAVVehicle@@W4DoorAction@1@W4Door@1@MMPAVCharacter@@PAVSequencer@@@Z 0040afa0 f   action.obj
 0001:0000a970       ?Update@CarDoorAction@@UAEXM@Z 0040aff0 f   action.obj
 0001:0000a9e0       ?Update@ReleaseDoorsAction@@UAEXM@Z 0040b060 f   action.obj
 0001:0000aa00       ??0JumpAction@@QAE@PAVCharacter@@PBDM@Z 0040b080 f   action.obj
 0001:0000ab20       ?SetRootTransform@JumpAction@@QAEXXZ 0040b1a0 f   action.obj
 0001:0000ab50       ?SetRootPosition@JumpAction@@QAEXABVVector@RadicalMathLibrary@@@Z 0040b1d0 f   action.obj
 0001:0000ab60       ?WakeUp@JumpAction@@UAEXM@Z 0040b1e0 f   action.obj
 0001:0000ac00       ?SolveActualDir@JumpAction@@IAEMMM@Z 0040b280 f   action.obj
 0001:0000acb0       ?Clear@JumpAction@@UAEXXZ  0040b330 f   action.obj
 0001:0000ad50       ??0DodgeAction@@QAE@PAVCharacter@@@Z 0040b3d0 f   action.obj
 0001:0000ad80       ?WakeUp@DodgeAction@@UAEXM@Z 0040b400 f   action.obj
 0001:0000ade0       ?Update@DodgeAction@@UAEXM@Z 0040b460 f   action.obj
 0001:0000ade0       ?Update@CringeAction@@UAEXM@Z 0040b460 f   action.obj
 0001:0000ae10       ?Clear@DodgeAction@@UAEXXZ 0040b490 f   action.obj
 0001:0000ae40       ?SolveActualDir@DodgeAction@@IAEMMM@Z 0040b4c0 f   action.obj
 0001:0000aeb0       ??0CringeAction@@QAE@PAVCharacter@@@Z 0040b530 f   action.obj
 0001:0000aee0       ?WakeUp@CringeAction@@UAEXM@Z 0040b560 f   action.obj
 0001:0000af30       ?Clear@CringeAction@@UAEXXZ 0040b5b0 f   action.obj
 0001:0000af50       ??0FlailAction@@QAE@PAVCharacter@@@Z 0040b5d0 f   action.obj
 0001:0000af80       ?WakeUp@FlailAction@@UAEXM@Z 0040b600 f   action.obj
 0001:0000afe0       ?Update@FlailAction@@UAEXM@Z 0040b660 f   action.obj
 0001:0000b000       ?Clear@FlailAction@@UAEXXZ 0040b680 f   action.obj
 0001:0000b030       ??0GetUpAction@@QAE@PAVCharacter@@@Z 0040b6b0 f   action.obj
 0001:0000b060       ?WakeUp@GetUpAction@@UAEXM@Z 0040b6e0 f   action.obj
 0001:0000b0f0       ?Update@GetUpAction@@UAEXM@Z 0040b770 f   action.obj
 0001:0000b210       ?Clear@GetUpAction@@UAEXXZ 0040b890 f   action.obj
 0001:0000b240       ?Update@ChangeLocomotion@@UAEXM@Z 0040b8c0 f   action.obj
 0001:0000b290       ?Update@ChangeNPCControllerState@@UAEXM@Z 0040b910 f   action.obj
 0001:0000b2b0       ?Abort@ChangeNPCControllerState@@UAEXXZ 0040b930 f   action.obj
 0001:0000b2d0       ?Update@KickAction@@UAEXM@Z 0040b950 f   action.obj
 0001:0000b300       ??0SurfAction@@QAE@PAVCharacter@@@Z 0040b980 f   action.obj
 0001:0000b340       ??$SequenceSingleAction@VPlayAnimationAction@@@ActionController@@QAEPAVPlayAnimationAction@@PAV1@@Z 0040b9c0 f i state.obj
 0001:0000b340       ??$SequenceSingleAction@VSurfAction@@@ActionController@@QAEPAVSurfAction@@PAV1@@Z 0040b9c0 f i action.obj
 0001:0000b340       ??$SequenceSingleAction@VAction@@@ActionController@@QAEPAVAction@@PAV1@@Z 0040b9c0 f i state.obj
 0001:0000b370       ??$Release@VAnimationDriver@choreo@@@radLoadObject@@SAXAAPAVAnimationDriver@choreo@@@Z 0040b9f0 f i action.obj
 0001:0000b390       ?AnyStickMovement@@YA_NPAVCharacter@@M@Z 0040ba10 f i action.obj
 0001:0000b470       ??1WalkerLocomotionAction@@UAE@XZ 0040baf0 f   action.obj
 0001:0000b4e0       ?Update@WalkerLocomotionAction@@UAEXM@Z 0040bb60 f   action.obj
 0001:0000b860       ??1InCarAction@@UAE@XZ     0040bee0 f   action.obj
 0001:0000b8c0       ?Clear@InCarAction@@UAEXXZ 0040bf40 f   action.obj
 0001:0000b8f0       ??1HoldAnimationAction@@UAE@XZ 0040bf70 f   action.obj
 0001:0000b950       ?Clear@HoldAnimationAction@@UAEXXZ 0040bfd0 f   action.obj
 0001:0000b980       ??0SteerAction@@QAE@PAVCharacter@@PBDM@Z 0040c000 f   action.obj
 0001:0000b9b0       ?ShouldRelease@SteerAction@@MAE_NXZ 0040c030 f   action.obj
 0001:0000ba20       ??0ReverseAction@@QAE@PAVCharacter@@PBDM@Z 0040c0a0 f   action.obj
 0001:0000ba50       ??0AccelAction@@QAE@PAVCharacter@@PBDM@Z 0040c0d0 f   action.obj
 0001:0000ba80       ??0DecelAction@@QAE@PAVCharacter@@PBDM@Z 0040c100 f   action.obj
 0001:0000bab0       ??_EArrive@@UAEPAXI@Z      0040c130 f i action.obj
 0001:0000bab0       ??_GArrive@@UAEPAXI@Z      0040c130 f i action.obj
 0001:0000bae0       ?DoSimulation@Arrive@@UAEXM@Z 0040c160 f   action.obj
 0001:0000bd00       ??_GOrient@@UAEPAXI@Z      0040c380 f i action.obj
 0001:0000bd00       ??_EOrient@@UAEPAXI@Z      0040c380 f i action.obj
 0001:0000bd30       ??_EPosition@@UAEPAXI@Z    0040c3b0 f i action.obj
 0001:0000bd30       ??_GPosition@@UAEPAXI@Z    0040c3b0 f i action.obj
 0001:0000bd60       ?DoSimulation@Position@@UAEXM@Z 0040c3e0 f   action.obj
 0001:0000beb0       ?ShouldAbort@PlayAnimationAction@@MAE_NXZ 0040c530 f   action.obj
 0001:0000bee0       ??_GPlayIdleAnimationAction@@UAEPAXI@Z 0040c560 f i action.obj
 0001:0000bee0       ??_EPlayIdleAnimationAction@@UAEPAXI@Z 0040c560 f i action.obj
 0001:0000bee0       ??_GPlayAnimationAction@@UAEPAXI@Z 0040c560 f i action.obj
 0001:0000bee0       ??_EPlayAnimationAction@@UAEPAXI@Z 0040c560 f i action.obj
 0001:0000bf10       ??_GCarDoorAction@@UAEPAXI@Z 0040c590 f i action.obj
 0001:0000bf10       ??_ECarDoorAction@@UAEPAXI@Z 0040c590 f i action.obj
 0001:0000bf40       ?WakeUp@CarDoorAction@@UAEXM@Z 0040c5c0 f   action.obj
 0001:0000bf70       ??1JumpAction@@UAE@XZ      0040c5f0 f   action.obj
 0001:0000bff0       ?Reset@JumpAction@@QAEMM_N@Z 0040c670 f   action.obj
 0001:0000c250       ?DoSimulation@JumpAction@@UAEXM@Z 0040c8d0 f   action.obj
 0001:0000c4f0       ?TestForJumpAgain@JumpAction@@QAEXABVVector@RadicalMathLibrary@@MAAV23@@Z 0040cb70 f   action.obj
 0001:0000c6b0       ?DoSimulation@DodgeAction@@UAEXM@Z 0040cd30 f   action.obj
 0001:0000c730       ??1PlayAnimationAction@@UAE@XZ 0040cdb0 f i action.obj
 0001:0000c730       ??1FlailAction@@UAE@XZ     0040cdb0 f i action.obj
 0001:0000c730       ??1DodgeAction@@UAE@XZ     0040cdb0 f i action.obj
 0001:0000c730       ??1ChangeNPCControllerState@@UAE@XZ 0040cdb0 f i state.obj
 0001:0000c730       ??1?$ChangeState@VLoco@CharacterAi@@@@UAE@XZ 0040cdb0 f i state.obj
 0001:0000c730       ??1TriggerEventAction@@UAE@XZ 0040cdb0 f i actionbuttonhandler.obj
 0001:0000c730       ??1AssignValueToFloat@@UAE@XZ 0040cdb0 f i actionbuttonhandler.obj
 0001:0000c730       ??1CringeAction@@UAE@XZ    0040cdb0 f i action.obj
 0001:0000c730       ??1PlayIdleAnimationAction@@UAE@XZ 0040cdb0 f i action.obj
 0001:0000c730       ??1SlaveAction@@UAE@XZ     0040cdb0 f i state.obj
 0001:0000c730       ??1DelayAction@@UAE@XZ     0040cdb0 f i state.obj
 0001:0000c730       ??1?$ChangeState@VInCar@CharacterAi@@@@UAE@XZ 0040cdb0 f i state.obj
 0001:0000c730       ??1ReleaseDoorsAction@@UAE@XZ 0040cdb0 f i state.obj
 0001:0000c730       ??1ChangeLocomotion@@UAE@XZ 0040cdb0 f i state.obj
 0001:0000c730       ??1SurfAction@@UAE@XZ      0040cdb0 f i action.obj
 0001:0000c730       ??1GetUpAction@@UAE@XZ     0040cdb0 f i action.obj
 0001:0000c730       ??1KickAction@@UAE@XZ      0040cdb0 f i state.obj
 0001:0000c730       ??1CarDoorAction@@UAE@XZ   0040cdb0 f i action.obj
 0001:0000c740       ??_ESurfAction@@UAEPAXI@Z  0040cdc0 f i action.obj
 0001:0000c740       ??_GSurfAction@@UAEPAXI@Z  0040cdc0 f i action.obj
 0001:0000c770       ?ShouldAbort@SurfAction@@MAE_NXZ 0040cdf0 f   action.obj
 0001:0000c790       ?Update@SurfAction@@MAEXM@Z 0040ce10 f   action.obj
 0001:0000c870       ?safe_cast@?$SafeCast@VAnimation@choreo@@@radLoadInventory@@UAEPAUIRefCount@@PAU3@@Z 0040cef0 f i action.obj
 0001:0000c890       ?safe_cast@?$SafeCast@VLocomotion@choreo@@@radLoadInventory@@UAEPAUIRefCount@@PAU3@@Z 0040cf10 f i action.obj
 0001:0000c8b0       ??_EWalkerLocomotionAction@@UAEPAXI@Z 0040cf30 f i action.obj
 0001:0000c8b0       ??_GWalkerLocomotionAction@@UAEPAXI@Z 0040cf30 f i action.obj
 0001:0000c8e0       ??_GInCarAction@@UAEPAXI@Z 0040cf60 f i action.obj
 0001:0000c8e0       ??_EInCarAction@@UAEPAXI@Z 0040cf60 f i action.obj
 0001:0000c910       ??_GHoldAnimationAction@@UAEPAXI@Z 0040cf90 f i action.obj
 0001:0000c910       ??_EHoldAnimationAction@@UAEPAXI@Z 0040cf90 f i action.obj
 0001:0000c940       ??1AccelAction@@UAE@XZ     0040cfc0 f i action.obj
 0001:0000c940       ??1SteerAction@@UAE@XZ     0040cfc0 f i action.obj
 0001:0000c940       ??1ReverseAction@@UAE@XZ   0040cfc0 f i action.obj
 0001:0000c940       ??1DecelAction@@UAE@XZ     0040cfc0 f i action.obj
 0001:0000c950       ??_EReverseAction@@UAEPAXI@Z 0040cfd0 f i action.obj
 0001:0000c950       ??_GReverseAction@@UAEPAXI@Z 0040cfd0 f i action.obj
 0001:0000c980       ??_EAccelAction@@UAEPAXI@Z 0040d000 f i action.obj
 0001:0000c980       ??_GSteerAction@@UAEPAXI@Z 0040d000 f i action.obj
 0001:0000c980       ??_GAccelAction@@UAEPAXI@Z 0040d000 f i action.obj
 0001:0000c980       ??_GDecelAction@@UAEPAXI@Z 0040d000 f i action.obj
 0001:0000c980       ??_EDecelAction@@UAEPAXI@Z 0040d000 f i action.obj
 0001:0000c980       ??_ESteerAction@@UAEPAXI@Z 0040d000 f i action.obj
 0001:0000c9b0       ??_EJumpAction@@UAEPAXI@Z  0040d030 f i action.obj
 0001:0000c9b0       ??_GJumpAction@@UAEPAXI@Z  0040d030 f i action.obj
 0001:0000c9e0       ?Reset@JumpAction@@QAEXABVVector@RadicalMathLibrary@@_N@Z 0040d060 f   action.obj
 0001:0000caf0       ?Update@JumpAction@@UAEXM@Z 0040d170 f   action.obj
 0001:0000d0a0       ??$find@VAnimation@choreo@@@choreo@@YAPAVAnimation@0@PBVBaseBank@0@VtUidUnaligned@@@Z 0040d720 f i action.obj
 0001:0000d100       ??$find@VAnimation@choreo@@@choreo@@YAPAVAnimation@0@PBVBaseBank@0@PBD@Z 0040d780 f i action.obj
 0001:0000d180       ??$find@VLocomotion@choreo@@@choreo@@YAPAVLocomotion@0@PBVBaseBank@0@VtUidUnaligned@@@Z 0040d800 f i action.obj
 0001:0000d1e0       ?SwitchLocomotion@WalkerLocomotionAction@@QAEXXZ 0040d860 f   action.obj
 0001:0000d250       ?IWannaRock@InCarAction@@IAEX_N@Z 0040d8d0 f   action.obj
 0001:0000d3a0       ?Update@InCarAction@@UAEXM@Z 0040da20 f   action.obj
 0001:0000d460       ?WakeUp@HoldAnimationAction@@UAEXM@Z 0040dae0 f   action.obj
 0001:0000d510       ?WakeUp@PlayAnimationAction@@UAEXM@Z 0040db90 f   action.obj
 0001:0000d5e0       ?WakeUp@PlayIdleAnimationAction@@UAEXM@Z 0040dc60 f   action.obj
 0001:0000d630       ??0WalkerLocomotionAction@@QAE@PAVCharacter@@@Z 0040dcb0 f   action.obj
 0001:0000d6e0       ?WakeUp@InCarAction@@UAEXM@Z 0040dd60 f   action.obj
 0001:0000d730       ??0ActionController@@QAE@XZ 0040ddb0 f   actioncontroller.obj
 0001:0000d770       ??1ActionController@@UAE@XZ 0040ddf0 f   actioncontroller.obj
 0001:0000d790       ?Clear@ActionController@@QAEXXZ 0040de10 f   actioncontroller.obj
 0001:0000d7b0       ?WakeUp@ActionController@@QAEXM@Z 0040de30 f   actioncontroller.obj
 0001:0000d800       ?DoSimulation@ActionController@@QAEXM@Z 0040de80 f   actioncontroller.obj
 0001:0000d810       ?Update@ActionController@@QAEXM@Z 0040de90 f   actioncontroller.obj
 0001:0000d820       ??_GActionController@@UAEPAXI@Z 0040dea0 f i actioncontroller.obj
 0001:0000d820       ??_EActionController@@UAEPAXI@Z 0040dea0 f i actioncontroller.obj
 0001:0000d840       ??0Sequencer@@QAE@XZ       0040dec0 f   sequencer.obj
 0001:0000d860       ?BeginSequence@Sequencer@@QAEXXZ 0040dee0 f   sequencer.obj
 0001:0000d890       ?EndSequence@Sequencer@@QAEXXZ 0040df10 f   sequencer.obj
 0001:0000d8a0       ?AddAction@Sequencer@@QAEXMMPAVAction@@@Z 0040df20 f   sequencer.obj
 0001:0000d8d0       ?AddActionToSequence@Sequencer@@QAEXMMPAVAction@@@Z 0040df50 f   sequencer.obj
 0001:0000d910       ?IsBusy@Sequencer@@QBE_NXZ 0040df90 f   sequencer.obj
 0001:0000d940       ?WakeUp@Sequencer@@QAEXM@Z 0040dfc0 f   sequencer.obj
 0001:0000d9d0       ?DoSimulation@Sequencer@@QAEXM@Z 0040e050 f   sequencer.obj
 0001:0000da60       ?ClearSequence@Sequencer@@AAEXPAUsSequence@1@@Z 0040e0e0 f   sequencer.obj
 0001:0000dac0       ?Clear@Sequencer@@QAEXXZ   0040e140 f   sequencer.obj
 0001:0000db10       ?Update@Sequencer@@QAEXM@Z 0040e190 f   sequencer.obj
 0001:0000dc10       ??1Sequencer@@UAE@XZ       0040e290 f   sequencer.obj
 0001:0000dc20       ??_GSequencer@@UAEPAXI@Z   0040e2a0 f i sequencer.obj
 0001:0000dc20       ??_ESequencer@@UAEPAXI@Z   0040e2a0 f i sequencer.obj
 0001:0000dc40       ?Run@Task@@QAEXXZ          0040e2c0 f   task.obj
 0001:0000dc50       ?IsRunning@Task@@QAE_NXZ   0040e2d0 f   task.obj
 0001:0000dc60       ?IsDone@Task@@QAE_NXZ      0040e2e0 f   task.obj
 0001:0000dc70       ??0Task@@QAE@XZ            0040e2f0 f   task.obj
 0001:0000dc90       ??1Task@@UAE@XZ            0040e310 f   task.obj
 0001:0000dca0       ??_GTask@@UAEPAXI@Z        0040e320 f i task.obj
 0001:0000dca0       ??_ETask@@UAEPAXI@Z        0040e320 f i task.obj
 0001:0000dcc0       ??K@YA?AVVector@RadicalMathLibrary@@ABV01@M@Z 0040e340 f i chaseai.obj
 0001:0000dcf0       ??0ChaseAI@@QAE@PAVVehicle@@M@Z 0040e370 f   chaseai.obj
 0001:0000dd60       ??1ChaseAI@@UAE@XZ         0040e3e0 f   chaseai.obj
 0001:0000dd80       ?Initialize@ChaseAI@@UAEXXZ 0040e400 f   chaseai.obj
 0001:0000dd90       ?Reset@ChaseAI@@UAEXXZ     0040e410 f   chaseai.obj
 0001:0000ddd0       ?DoCatchUp@ChaseAI@@MAEXM@Z 0040e450 f   chaseai.obj
 0001:0000de00       ?MustRepopulateSegments@ChaseAI@@MAE_NXZ 0040e480 f   chaseai.obj
 0001:0000de20       ?TestReachedTarget@ChaseAI@@MAE_NABVVector@RadicalMathLibrary@@0@Z 0040e4a0 f   chaseai.obj
 0001:0000deb0       ?GetClosestPathElementToTarget@ChaseAI@@MAEXAAVVector@RadicalMathLibrary@@AAUPathElement@RoadManager@@AAPAVRoadSegment@@AAM3@Z 0040e530 f   chaseai.obj
 0001:0000df30       ?UpdateTarget@ChaseAI@@IAEXXZ 0040e5b0 f   chaseai.obj
 0001:0000e020       ?Beeline@ChaseAI@@IAEXM@Z  0040e6a0 f   chaseai.obj
 0001:0000e120       ?TestIntersectBBox@ChaseAI@@IAE_NVVector@RadicalMathLibrary@@0PAVCollisionVolume@sim@@@Z 0040e7a0 f   chaseai.obj
 0001:0000e290       ?RegisterHudMapIcon@ChaseAI@@EAEHXZ 0040e910 f   chaseai.obj
 0001:0000e360       ??_EChaseAI@@UAEPAXI@Z     0040e9e0 f i chaseai.obj
 0001:0000e360       ??_GChaseAI@@UAEPAXI@Z     0040e9e0 f i chaseai.obj
 0001:0000e380       ?Update@ChaseAI@@UAEXM@Z   0040ea00 f   chaseai.obj
 0001:0000e5a0       ??1PotentialField@@UAE@XZ  0040ec20 f   potentialfield.obj
 0001:0000e5c0       ??0PotentialField@@QAE@XZ  0040ec40 f   potentialfield.obj
 0001:0000e5f0       ??_GPotentialField@@UAEPAXI@Z 0040ec70 f i potentialfield.obj
 0001:0000e5f0       ??_EPotentialField@@UAEPAXI@Z 0040ec70 f i potentialfield.obj
 0001:0000e610       ??0Potentials@@QAE@XZ      0040ec90 f   potentials.obj
 0001:0000e620       ??1Potentials@@UAE@XZ      0040eca0 f   potentials.obj
 0001:0000e630       ??_EPotentials@@UAEPAXI@Z  0040ecb0 f i potentials.obj
 0001:0000e630       ??_GPotentials@@UAEPAXI@Z  0040ecb0 f i potentials.obj
 0001:0000e650       ?StartSwerving@TrafficAI@@QAEX_N@Z 0040ecd0 f   trafficai.obj
 0001:0000e6d0       ?StopSwerving@TrafficAI@@AAEXXZ 0040ed50 f   trafficai.obj
 0001:0000e720       ?Swerve@TrafficAI@@AAEXXZ  0040eda0 f   trafficai.obj
 0001:0000e770       ?PerhapsTriggerImpedence@TrafficAI@@AAEXW4ObstacleType@1@MPAX@Z 0040edf0 f   trafficai.obj
 0001:0000e7f0       ?DecideTurn@TrafficAI@@QAE?AW4Direction@1@XZ 0040ee70 f   trafficai.obj
 0001:0000e850       ?SetSegmentIndex@TrafficAI@@QAEXI@Z 0040eed0 f   trafficai.obj
 0001:0000e880       ?GetGoSpeedMps@TrafficAI@@AAEMXZ 0040ef00 f   trafficai.obj
 0001:0000e8d0       ?SetAISpeed@TrafficAI@@QAEXM@Z 0040ef50 f   trafficai.obj
 0001:0000e900       ?GetDensity@radSoundHalEffectI3DL2ReverbXBox@@UAEMXZ 0040ef80 f   radsoundxr:effect.obj
 0001:0000e900       ?GetAISpeed@TrafficAI@@QBEMXZ 0040ef80 f   trafficai.obj
 0001:0000e910       ?MaintainSpeed@TrafficAI@@AAEXM@Z 0040ef90 f   trafficai.obj
 0001:0000e9a0       ?StopForSomething@TrafficAI@@AAEXMW4ObstacleType@1@MPAX@Z 0040f020 f   trafficai.obj
 0001:0000ea80       ?GetLookAheadDistance@TrafficAI@@AAEMXZ 0040f100 f   trafficai.obj
 0001:0000eaa0       ?CheckForObstacles@TrafficAI@@QAEXAAW4ObstacleType@1@AAMAAPAXAA_N@Z 0040f120 f   trafficai.obj
 0001:0000f120       ??1TrafficAI@@UAE@XZ       0040f7a0 f   trafficai.obj
 0001:0000f130       ?Init@TrafficAI@@UAEXXZ    0040f7b0 f   trafficai.obj
 0001:0000f200       ?AttemptLaneChange@TrafficAI@@AAE_NW4ObstacleType@1@MPAX@Z 0040f880 f   trafficai.obj
 0001:0000f520       ??0TrafficAI@@QAE@PAVVehicle@@@Z 0040fba0 f   trafficai.obj
 0001:0000f570       ??_GTrafficAI@@UAEPAXI@Z   0040fbf0 f i trafficai.obj
 0001:0000f570       ??_ETrafficAI@@UAEPAXI@Z   0040fbf0 f i trafficai.obj
 0001:0000f590       ?Update@TrafficAI@@UAEXM@Z 0040fc10 f   trafficai.obj
 0001:0000fb50       ?SetRaceCatchupParams@VehicleAI@@QAEXABURaceCatchupParams@1@@Z 004101d0 f   vehicleai.obj
 0001:0000fb80       ?SetEvadeCatchupParams@VehicleAI@@QAEXABUEvadeCatchupParams@1@@Z 00410200 f   vehicleai.obj
 0001:0000fba0       ?SetTargetCatchupParams@VehicleAI@@QAEXABUTargetCatchupParams@1@@Z 00410220 f   vehicleai.obj
 0001:0000fbc0       ?ResetControllerValues@VehicleAI@@QAEXXZ 00410240 f   vehicleai.obj
 0001:0000fc10       ?Initialize@VehicleAI@@UAEXXZ 00410290 f   vehicleai.obj
 0001:0000fc40       ?SetActive@VehicleAI@@QAEX_N@Z 004102c0 f   vehicleai.obj
 0001:0000fcb0       ?GetPosition@VehicleAI@@UAEXPAVVector@RadicalMathLibrary@@@Z 00410330 f   vehicleai.obj
 0001:0000fcc0       ?GetHeading@VehicleAI@@UAEXPAVVector@RadicalMathLibrary@@@Z 00410340 f   vehicleai.obj
 0001:0000fce0       ?SetMaxShortcutSkill@VehicleAI@@QAEXH@Z 00410360 f   vehicleai.obj
 0001:0000fcf0       ?SetMinShortcutSkill@VehicleAI@@QAEXH@Z 00410370 f   vehicleai.obj
 0001:0000fd00       ?EnterLimbo@VehicleAI@@UAEXXZ 00410380 f   vehicleai.obj
 0001:0000fd30       ?ExitLimbo@VehicleAI@@UAEXXZ 004103b0 f   vehicleai.obj
 0001:0000fd50       ?DetermineShortcutSkill@VehicleAI@@IAEHXZ 004103d0 f   vehicleai.obj
 0001:0000fda0       ?ResetCatchUpParams@VehicleAI@@IAEXXZ 00410420 f   vehicleai.obj
 0001:0000fdd0       ?FindClosestSegment@VehicleAI@@IAEXABVVector@RadicalMathLibrary@@AAHAAMAAV23@@Z 00410450 f   vehicleai.obj
 0001:0000fe90       ?ResetSegments@VehicleAI@@IAEXXZ 00410510 f   vehicleai.obj
 0001:0000fea0       ?ShiftSegments@VehicleAI@@IAEXHH@Z 00410520 f   vehicleai.obj
 0001:0000ff30       ?CheckState@VehicleAI@@IAEXM@Z 004105b0 f   vehicleai.obj
 0001:000105d0       ?DriveTowards@VehicleAI@@IAEXPAVVector@RadicalMathLibrary@@AAM1@Z 00410c50 f   vehicleai.obj
 0001:000107a0       ?SetDestination@VehicleAI@@IAEXAAVVector@RadicalMathLibrary@@@Z 00410e20 f   vehicleai.obj
 0001:000107c0       ?SetNextDestination@VehicleAI@@IAEXAAVVector@RadicalMathLibrary@@@Z 00410e40 f   vehicleai.obj
 0001:000107e0       ?FindClosestPathElement@VehicleAI@@SA_NAAVVector@RadicalMathLibrary@@AAUPathElement@RoadManager@@AAPAVRoadSegment@@AAM3_N@Z 00410e60 f   vehicleai.obj
 0001:000108c0       ?GetRacePathInfo@VehicleAI@@QAEXAAUPathElement@RoadManager@@AAPAVRoadSegment@@AAM2@Z 00410f40 f   vehicleai.obj
 0001:00010900       ??$Clamp@M@RadicalMathLibrary@@YAMMMM@Z 00410f80 f i vehicleai.obj
 0001:00010930       ??$Sign@M@RadicalMathLibrary@@YAMM@Z 00410fb0 f i vehicleai.obj
 0001:00010970       ?Reset@VehicleAI@@UAEXXZ   00410ff0 f   vehicleai.obj
 0001:00010a40       ?Finalize@VehicleAI@@UAEXXZ 004110c0 f   vehicleai.obj
 0001:00010a50       ?FillPathElements@VehicleAI@@IAEXXZ 004110d0 f   vehicleai.obj
 0001:00010b10       ?UpdateSelf@VehicleAI@@MAEXXZ 00411190 f   vehicleai.obj
 0001:00010d00       ?FillSegments@VehicleAI@@IAEXXZ 00411380 f   vehicleai.obj
 0001:00011cd0       ?GetPosAheadAlongRoad@VehicleAI@@IAEXMMHPAVVector@RadicalMathLibrary@@@Z 00412350 f   vehicleai.obj
 0001:00011df0       ?UpdateSegments@VehicleAI@@IAEXXZ 00412470 f   vehicleai.obj
 0001:00012170       ?EvadeTraffic@VehicleAI@@IAEXPAVVehicle@@@Z 004127f0 f   vehicleai.obj
 0001:00012470       ?DoSteering@VehicleAI@@IAEXXZ 00412af0 f   vehicleai.obj
 0001:00012570       ?Allocate@?$SwapArray@UPathElement@RoadManager@@@@QAEXH@Z 00412bf0 f i vehicleai.obj
 0001:000125c0       ??0VehicleAI@@QAE@PAVVehicle@@W4VehicleAITypeEnum@0@_NHH2@Z 00412c40 f   vehicleai.obj
 0001:00012830       ??1VehicleAI@@UAE@XZ       00412eb0 f   vehicleai.obj
 0001:000128e0       ?FollowRoad@VehicleAI@@IAEXXZ 00412f60 f   vehicleai.obj
 0001:00012b10       ??_EVehicleAI@@UAEPAXI@Z   00413190 f i vehicleai.obj
 0001:00012b10       ??_GVehicleAI@@UAEPAXI@Z   00413190 f i vehicleai.obj
 0001:00012b30       ?Update@VehicleAI@@UAEXM@Z 004131b0 f   vehicleai.obj
 0001:00012b70       ??0WaypointAI@@QAE@PAVVehicle@@_NM1@Z 004131f0 f   waypointai.obj
 0001:00012c20       ??1WaypointAI@@UAE@XZ      004132a0 f   waypointai.obj
 0001:00012c40       ?Initialize@WaypointAI@@UAEXXZ 004132c0 f   waypointai.obj
 0001:00012c80       ?Reset@WaypointAI@@UAEXXZ  00413300 f   waypointai.obj
 0001:00012cb0       ?UpdateNeedToWaitForPlayer@WaypointAI@@IAEXM@Z 00413330 f   waypointai.obj
 0001:00012ea0       ?UseTurbo@WaypointAI@@QAEXXZ 00413520 f   waypointai.obj
 0001:00012ec0       ?UpdateNeedsResetOnSpot@WaypointAI@@IAEXM@Z 00413540 f   waypointai.obj
 0001:00012ff0       ?ClearWaypoints@WaypointAI@@QAEXXZ 00413670 f   waypointai.obj
 0001:00013010       ?AddWaypoint@WaypointAI@@QAEXPAVLocator@@@Z 00413690 f   waypointai.obj
 0001:00013100       ?MustRepopulateSegments@WaypointAI@@MAE_NXZ 00413780 f   waypointai.obj
 0001:00013110       ?SetCurrentWayPoint@WaypointAI@@IAEXH@Z 00413790 f   waypointai.obj
 0001:00013140       ?TestReachedTarget@WaypointAI@@MAE_NABVVector@RadicalMathLibrary@@0@Z 004137c0 f   waypointai.obj
 0001:00013200       ?GetClosestPathElementToTarget@WaypointAI@@MAEXAAVVector@RadicalMathLibrary@@AAUPathElement@RoadManager@@AAPAVRoadSegment@@AAM3@Z 00413880 f   waypointai.obj
 0001:000132b0       ?RegisterHudMapIcon@WaypointAI@@EAEHXZ 00413930 f   waypointai.obj
 0001:000133a0       ?TestWaypoint@WaypointAI@@AAE_NH@Z 00413a20 f   waypointai.obj
 0001:00013440       ??_EWaypointAI@@UAEPAXI@Z  00413ac0 f i waypointai.obj
 0001:00013440       ??_GWaypointAI@@UAEPAXI@Z  00413ac0 f i waypointai.obj
 0001:00013460       ?PossiblyUseTurbo@WaypointAI@@IAEXXZ 00413ae0 f   waypointai.obj
 0001:00013530       ?DoCatchUp@WaypointAI@@MAEXM@Z 00413bb0 f   waypointai.obj
 0001:00013890       ?FollowWaypoints@WaypointAI@@IAEXXZ 00413f10 f   waypointai.obj
 0001:00013940       ?Update@WaypointAI@@UAEXM@Z 00413fc0 f   waypointai.obj
 0001:000139c0       ??_EActorAnimation@@UAEPAXI@Z 00414040 f i ActorAnimationUFO.obj
 0001:000139c0       ??_GActorAnimation@@UAEPAXI@Z 00414040 f i ActorAnimationUFO.obj
 0001:000139e0       ??0ActorAnimationUFO@@QAE@XZ 00414060 f   ActorAnimationUFO.obj
 0001:000139f0       ??1ActorAnimationUFO@@UAE@XZ 00414070 f   ActorAnimationUFO.obj
 0001:000139f0       ??1ActorAnimationWasp@@UAE@XZ 00414070 f   actoranimationwasp.obj
 0001:00013a00       ??_GActorAnimationUFO@@UAEPAXI@Z 00414080 f i ActorAnimationUFO.obj
 0001:00013a00       ??_EActorAnimationUFO@@UAEPAXI@Z 00414080 f i ActorAnimationUFO.obj
 0001:00013a00       ??_GActorAnimationWasp@@UAEPAXI@Z 00414080 f i actoranimationwasp.obj
 0001:00013a00       ??_EActorAnimationWasp@@UAEPAXI@Z 00414080 f i actoranimationwasp.obj
 0001:00013a20       ?Update@ActorAnimationUFO@@UAE_NABVMatrix@RadicalMathLibrary@@PAV23@MPAVtCompositeDrawable@@@Z 004140a0 f   ActorAnimationUFO.obj
 0001:00013a90       ?SetPosition@Actor@@UAEXABVVector@RadicalMathLibrary@@@Z 00414110 f   actor.obj
 0001:00013ac0       ?GetPosition@Actor@@UBEXPAVVector@RadicalMathLibrary@@@Z 00414140 f   actor.obj
 0001:00013ad0       ?GetTransform@Actor@@UBEXPAVMatrix@RadicalMathLibrary@@@Z 00414150 f   actor.obj
 0001:00013ae0       ?SetTransform@Actor@@UAEXABVMatrix@RadicalMathLibrary@@@Z 00414160 f   actor.obj
 0001:00013b10       ?SetState@Actor@@UAEXH@Z   00414190 f   actor.obj
 0001:00013b20       ?GetState@Actor@@UBEIXZ    004141a0 f   actor.obj
 0001:00013b30       ?SetStatePropID@Actor@@UAEXI@Z 004141b0 f   actor.obj
 0001:00013b40       ?AddToDSG@Actor@@UAEXXZ    004141c0 f   actor.obj
 0001:00013b70       ?RemoveFromDSG@Actor@@UAEXXZ 004141f0 f   actor.obj
 0001:00013ba0       ?LoadShield@Actor@@UAEXPBD@Z 00414220 f   actor.obj
 0001:00013bb0       ?LoadTractorBeam@Actor@@UAEXPBD@Z 00414230 f   actor.obj
 0001:00013bc0       ?ActivateTractorBeam@Actor@@QAEXXZ 00414240 f   actor.obj
 0001:00013bd0       ?DeactivateTractorBeam@Actor@@QAEXXZ 00414250 f   actor.obj
 0001:00013be0       ?IsTractorBeamOn@Actor@@QBE_NXZ 00414260 f   actor.obj
 0001:00013bf0       ?GetStatePropUID@StatePropDSG@@QBE?AVtUidUnaligned@@XZ 00414270 f i actor.obj
 0001:00013c10       ??0Actor@@QAE@XZ           00414290 f   actor.obj
 0001:00013ca0       ??1Actor@@UAE@XZ           00414320 f   actor.obj
 0001:00013d10       ?GetUID@Actor@@UBE?AVtUidUnaligned@@XZ 00414390 f   actor.obj
 0001:00013d30       ?GetStatePropUID@Actor@@UBE?AVtUidUnaligned@@XZ 004143b0 f   actor.obj
 0001:00013d50       ?SetUID@Actor@@UAEXVtUidUnaligned@@@Z 004143d0 f   actor.obj
 0001:00013d90       ??_EActor@@UAEPAXI@Z       00414410 f i actor.obj
 0001:00013d90       ??_GActor@@UAEPAXI@Z       00414410 f i actor.obj
 0001:00013db0       ??0?$ReserveArray@PAVDynaPhysDSG@@@@QAE@H@Z 00414430 f i actor.obj
 0001:00013de0       ?FillIntersectionListDynamics@Actor@@QAEXABVVector@RadicalMathLibrary@@M@Z 00414460 f   actor.obj
 0001:00013ed0       ?FillIntersectionListFence@Actor@@QAEXABVVector@RadicalMathLibrary@@M@Z 00414550 f   actor.obj
 0001:00013f90       ?FillIntersectionListStatics@Actor@@QAEXABVVector@RadicalMathLibrary@@M@Z 00414610 f   actor.obj
 0001:00014070       ?FillIntersectionList@Actor@@QAEXABVVector@RadicalMathLibrary@@M@Z 004146f0 f   actor.obj
 0001:000140c0       ??1StatePropDSGProcAnimator@@UAE@XZ 00414740 f i actoranimationwasp.obj
 0001:000140d0       ??_GStatePropDSGProcAnimator@@UAEPAXI@Z 00414750 f i actoranimationwasp.obj
 0001:000140d0       ??_EStatePropDSGProcAnimator@@UAEPAXI@Z 00414750 f i actoranimationwasp.obj
 0001:000140f0       ??1WingAnimator@@UAE@XZ    00414770 f   actoranimationwasp.obj
 0001:00014150       ?Advance@WingAnimator@@UAEXM@Z 004147d0 f   actoranimationwasp.obj
 0001:000141d0       ?ScaleAdd@Vector@RadicalMathLibrary@@QAEXMABV12@@Z 00414850 f i actoranimationwasp.obj
 0001:00014200       ??0ActorAnimationWasp@@QAE@XZ 00414880 f   actoranimationwasp.obj
 0001:00014230       ?Update@ActorAnimationWasp@@UAE_NABVMatrix@RadicalMathLibrary@@PAV23@MPAVtCompositeDrawable@@@Z 004148b0 f   actoranimationwasp.obj
 0001:00014320       ??0WingAnimator@@QAE@M@Z   004149a0 f   actoranimationwasp.obj
 0001:00014420       ??_EWingAnimator@@UAEPAXI@Z 00414aa0 f i actoranimationwasp.obj
 0001:00014420       ??_GWingAnimator@@UAEPAXI@Z 00414aa0 f i actoranimationwasp.obj
 0001:00014440       ?UpdateForRender@WingAnimator@@UAEXPAVtCompositeDrawable@@@Z 00414ac0 f   actoranimationwasp.obj
 0001:000145a0       ?CastsShadow@StaticPhysDSG@@UAEHXZ 00414c20 f i actordsg.obj
 0001:000145b0       ??0ActorDSG@@QAE@XZ        00414c30 f   actordsg.obj
 0001:00014600       ?GetNumLoadZones@ZoneEventLocator@@QAEHXZ 00414c80 f i zoneeventlocator.obj
 0001:00014600       ?GetGroundPlaneIndex@DynaPhysDSG@@UAEHXZ 00414c80 f i actordsg.obj
 0001:00014610       ?GetAIRef@ActorDSG@@UAEHXZ 00414c90 f i actordsg.obj
 0001:00014620       ?DisplaySimpleShadow@ActorDSG@@UAEXXZ 00414ca0 f i actordsg.obj
 0001:00014630       ??1ActorDSG@@UAE@XZ        00414cb0 f   actordsg.obj
 0001:000146d0       ?HandleEvent@ActorDSG@@QAEXW4Event@StatePropDSG@@@Z 00414d50 f   actordsg.obj
 0001:000146e0       ?ActivateTractorBeam@ActorDSG@@QAEXXZ 00414d60 f   actordsg.obj
 0001:00014710       ?DeactivateTractorBeam@ActorDSG@@QAEXXZ 00414d90 f   actordsg.obj
 0001:00014750       ?IsTractorBeamOn@ActorDSG@@QBE_NXZ 00414dd0 f   actordsg.obj
 0001:00014770       ?AdvanceAnimation@ActorDSG@@UAEXM@Z 00414df0 f   actordsg.obj
 0001:000147b0       ?DestroyShield@ActorDSG@@IAEXXZ 00414e30 f   actordsg.obj
 0001:000147d0       ?PlayShieldGettingHit@ActorDSG@@IAEXXZ 00414e50 f   actordsg.obj
 0001:00014800       ?RestoreShield@ActorDSG@@QAEXXZ 00414e80 f   actordsg.obj
 0001:00014820       ?SetPhysicsProperties@ActorDSG@@QAEXMMMM@Z 00414ea0 f   actordsg.obj
 0001:000148a0       ?CastsShadow@ActorDSG@@UAEHXZ 00414f20 f   actordsg.obj
 0001:000148d0       ??_EActorDSG@@UAEPAXI@Z    00414f50 f i actordsg.obj
 0001:000148d0       ??_GActorDSG@@UAEPAXI@Z    00414f50 f i actordsg.obj
 0001:000148f0       ?PreReactToCollision@ActorDSG@@UAE?AW4Solving_Answer@sim@@PAVSimState@3@AAVCollision@3@@Z 00414f70 f   actordsg.obj
 0001:00014930       ?SetRank@ActorDSG@@UAEXAAVVector@RadicalMathLibrary@@0@Z 00414fb0 f   actordsg.obj
 0001:00014990       ?PostReactToCollision@ActorDSG@@UAE?AW4Solving_Answer@sim@@AAVVector@RadicalMathLibrary@@AAVCollision@3@@Z 00415010 f   actordsg.obj
 0001:00014a10       ?ApplyForce@ActorDSG@@UAEXABVVector@RadicalMathLibrary@@M@Z 00415090 f   actordsg.obj
 0001:00014a70       ?RecieveEvent@ActorDSG@@UAEXHPAVCStateProp@@@Z 004150f0 f   actordsg.obj
 0001:00014b70       ?Display@ActorDSG@@UAEXXZ  004151f0 f   actordsg.obj
 0001:00014ec0       ?LoadSetup@ActorDSG@@UAEXPAVCStatePropData@@HABVMatrix@RadicalMathLibrary@@PAVCollisionAttributes@@_N3PAVtEntityStore@@@Z 00415540 f   actordsg.obj
 0001:00014f90       ?safe_cast@?$SafeCast@VCStatePropData@@@radLoadInventory@@UAEPAUIRefCount@@PAU3@@Z 00415610 f i actordsg.obj
 0001:00014fb0       ??$find@VCStatePropData@@@p3d@@YAPAVCStatePropData@@PAVtEntityStore@@ABVtName@@@Z 00415630 f i actordsg.obj
 0001:00015080       ?GenerateCoins@ActorDSG@@UAEXH@Z 00415700 f   actordsg.obj
 0001:000152c0       ??$find@VCStatePropData@@@p3d@@YAPAVCStatePropData@@PAVtEntityStore@@PBD@Z 00415940 f i actordsg.obj
 0001:00015330       ?LoadShield@ActorDSG@@QAE_NPBD@Z 004159b0 f   actordsg.obj
 0001:000153b0       ?LoadTractorBeam@ActorDSG@@QAE_NPBD@Z 00415a30 f   actordsg.obj
 0001:00015420       ?GetInstance@ActorManager@@SAPAV1@XZ 00415aa0 f   actormanager.obj
 0001:00015430       ?DestroyInstance@ActorManager@@SAXXZ 00415ab0 f   actormanager.obj
 0001:00015450       ?AddActor@ActorManager@@QAEXPAVActor@@@Z 00415ad0 f   actormanager.obj
 0001:00015480       ?AddActorToBank@ActorManager@@QAEXPAVActor@@@Z 00415b00 f   actormanager.obj
 0001:000154b0       ?RemoveActor@ActorManager@@QAEXH_N@Z 00415b30 f   actormanager.obj
 0001:00015520       ?RemoveActorByDSGPointer@ActorManager@@QAEXPAVActorDSG@@_N@Z 00415ba0 f   actormanager.obj
 0001:00015570       ?RemoveAllActors@ActorManager@@QAEXXZ 00415bf0 f   actormanager.obj
 0001:00015600       ?AddSpawnPoint@ActorManager@@QAEXPAVSpawnPoint@@@Z 00415c80 f   actormanager.obj
 0001:00015630       ?HandleEvent@ActorManager@@UAEXW4EventEnum@@PAX@Z 00415cb0 f   actormanager.obj
 0001:000156b0       ?GetActorByName@ActorManager@@QAEPAVActor@@PBD@Z 00415d30 f   actormanager.obj
 0001:00015730       ?GetActorByUID@ActorManager@@QAEPAVActor@@VtUidUnaligned@@@Z 00415db0 f   actormanager.obj
 0001:000157a0       ?WithinAliveRange@ActorManager@@AAE_NH@Z 00415e20 f   actormanager.obj
 0001:00015820       ?AddSpawnPointScript@ActorManager@@CAXHPAPAD@Z 00415ea0 f   actormanager.obj
 0001:00015920       ?SetProjectileStats@ActorManager@@CAXHPAPAD@Z 00415fa0 f   actormanager.obj
 0001:000159f0       ?PreallocateActors@ActorManager@@CAXHPAPAD@Z 00416070 f   actormanager.obj
 0001:00015ab0       ?GetSpawnPointByName@ActorManager@@QAEPAVSpawnPoint@@PBD@Z 00416130 f   actormanager.obj
 0001:00015b80       ?RemoveAllSpawnPoints@ActorManager@@QAEXXZ 00416200 f   actormanager.obj
 0001:00015bb0       ?CreateActor@ActorManager@@QAEPAVActor@@VtUidUnaligned@@0ABVMatrix@RadicalMathLibrary@@@Z 00416230 f   actormanager.obj
 0001:00015cb0       ?SetCollisionAttributes@ActorManager@@CAXHPAPAD@Z 00416330 f   actormanager.obj
 0001:00015cf0       ?safe_cast@?$SafeCast@VLocator@@@radLoadInventory@@UAEPAUIRefCount@@PAU3@@Z 00416370 f i actormanager.obj
 0001:00015d10       ??1ActorManager@@UAE@XZ    00416390 f   actormanager.obj
 0001:00015e50       ?FireProjectile@ActorManager@@QAEXVtUidUnaligned@@ABVVector@RadicalMathLibrary@@1I@Z 004164d0 f   actormanager.obj
 0001:00015fc0       ?Update@ActorManager@@QAEXI@Z 00416640 f   actormanager.obj
 0001:00016060       ?AddFlyingActor@ActorManager@@CAXHPAPAD@Z 004166e0 f   actormanager.obj
 0001:00016100       ?erase@?$basic_string@DU?$char_traits@D@std@@V?$allocator@D@2@@std@@QAEAAV12@II@Z 00416780 f i actormanager.obj
 0001:00016180       ?_Copy@?$basic_string@DU?$char_traits@D@std@@V?$allocator@D@2@@std@@IAEXII@Z 00416800 f i actormanager.obj
 0001:000162c0       ??$find@VLocator@@@p3d@@YAPAVLocator@@PAVtEntityStore@@ABVtName@@@Z 00416940 f i actormanager.obj
 0001:00016390       ??_EActorManager@@UAEPAXI@Z 00416a10 f i actormanager.obj
 0001:00016390       ??_GActorManager@@UAEPAXI@Z 00416a10 f i actormanager.obj
 0001:000163b0       ??1?$basic_string@DU?$char_traits@D@std@@V?$allocator@D@2@@std@@QAE@XZ 00416a30 f i actormanager.obj
 0001:000163e0       ??$_Ucopy@PAPAVIEntityDSG@@@?$vector@PAVIEntityDSG@@V?$s2alloc@PAVIEntityDSG@@@@@std@@IAEPAPAVIEntityDSG@@PAPAV2@00@Z 00416a60 f i WorldScene.obj
 0001:000163e0       ??$_Ucopy@PAPAVActor@@@?$vector@PAVActor@@V?$s2alloc@PAVActor@@@@@std@@IAEPAPAVActor@@PAPAV2@00@Z 00416a60 f i actormanager.obj
 0001:000163e0       ??$_Ucopy@PAPAVEventListener@@@?$vector@PAVEventListener@@V?$s2alloc@PAVEventListener@@@@@std@@IAEPAPAVEventListener@@PAPAV2@00@Z 00416a60 f i eventmanager.obj
 0001:000163e0       ??$_Ucopy@PAPAVSelectableDialog@@@?$vector@PAVSelectableDialog@@V?$s2alloc@PAVSelectableDialog@@@@@std@@IAEPAPAVSelectableDialog@@PAPAV2@00@Z 00416a60 f i dialogselectiongroup.obj
 0001:000163e0       ??$_Ucopy@PAPAVCollisionObject@sim@@@?$vector@PAVCollisionObject@sim@@V?$s2alloc@PAVCollisionObject@sim@@@@@std@@IAEPAPAVCollisionObject@sim@@PAPAV23@00@Z 00416a60 f i intersectionlist.obj
 0001:000163e0       ??$_Ucopy@PAI@?$vector@IV?$s2alloc@I@@@std@@IAEPAIPAI00@Z 00416a60 f i particlemanager.obj
 0001:00016410       ??$find@VLocator@@@p3d@@YAPAVLocator@@PAVtEntityStore@@PBD@Z 00416a90 f i actormanager.obj
 0001:00016480       ??1logic_error@std@@UAE@XZ 00416b00 f i actormanager.obj
 0001:00016480       ??1out_of_range@std@@UAE@XZ 00416b00 f i leakdetection.obj
 0001:00016480       ??1length_error@std@@UAE@XZ 00416b00 f i actormanager.obj
 0001:000164c0       ?what@logic_error@std@@UBEPBDXZ 00416b40 f i actormanager.obj
 0001:000164d0       ??_Gout_of_range@std@@UAEPAXI@Z 00416b50 f i leakdetection.obj
 0001:000164d0       ??_Glogic_error@std@@UAEPAXI@Z 00416b50 f i actormanager.obj
 0001:000164d0       ??_Eout_of_range@std@@UAEPAXI@Z 00416b50 f i leakdetection.obj
 0001:000164d0       ??_Elength_error@std@@UAEPAXI@Z 00416b50 f i actormanager.obj
 0001:000164d0       ??_Glength_error@std@@UAEPAXI@Z 00416b50 f i actormanager.obj
 0001:000164d0       ??_Elogic_error@std@@UAEPAXI@Z 00416b50 f i actormanager.obj
 0001:000164f0       ??1?$queue@W4eGuiWindowID@CGuiWindow@@V?$deque@W4eGuiWindowID@CGuiWindow@@V?$s2alloc@W4eGuiWindowID@CGuiWindow@@@@@std@@@std@@QAE@XZ 00416b70 f i guimanagerbootup.obj
 0001:000164f0       ??1?$stack@PAVBehaviour@@V?$deque@PAVBehaviour@@V?$allocator@PAVBehaviour@@@std@@@std@@@std@@QAE@XZ 00416b70 f i actormanager.obj
 0001:00016500       ?assign@?$basic_string@DU?$char_traits@D@std@@V?$allocator@D@2@@std@@QAEAAV12@ABV12@II@Z 00416b80 f i actormanager.obj
 0001:000165f0       ?assign@?$basic_string@DU?$char_traits@D@std@@V?$allocator@D@2@@std@@QAEAAV12@PBDI@Z 00416c70 f i actormanager.obj
 0001:000166e0       ??$find@VLocator@@@p3d@@YAPAVLocator@@PBD@Z 00416d60 f i actormanager.obj
 0001:00016700       ?AddFlyingActorByLocator@ActorManager@@CAXHPAPAD@Z 00416d80 f   actormanager.obj
 0001:000167d0       ?AddSpawnPointByLocatorScript@ActorManager@@CAXHPAPAD@Z 00416e50 f   actormanager.obj
 0001:000168d0       ??0?$basic_string@DU?$char_traits@D@std@@V?$allocator@D@2@@std@@QAE@PBD@Z 00416f50 f i actormanager.obj
 0001:00016910       ??0logic_error@std@@QAE@ABV?$basic_string@DU?$char_traits@D@std@@V?$allocator@D@2@@1@@Z 00416f90 f i actormanager.obj
 0001:00016970       ?_Xlen@?$vector@PAVActor@@V?$s2alloc@PAVActor@@@@@std@@IBEXXZ 00416ff0 f i actormanager.obj
 0001:000169e0       ??0logic_error@std@@QAE@ABV01@@Z 00417060 f i actormanager.obj
 0001:00016a50       ??0length_error@std@@QAE@ABV01@@Z 004170d0 f i actormanager.obj
 0001:00016a70       ?_Insert_n@?$vector@PAVActor@@V?$s2alloc@PAVActor@@@@@std@@IAEXViterator@12@IABQAVActor@@@Z 004170f0 f i actormanager.obj
 0001:00016cc0       ?_Xlen@?$deque@PAVBehaviour@@V?$allocator@PAVBehaviour@@@std@@@std@@IBEXXZ 00417340 f i actormanager.obj
 0001:00016d30       ?reserve@?$vector@PAVActor@@V?$s2alloc@PAVActor@@@@@std@@QAEXI@Z 004173b0 f i actormanager.obj
 0001:00016e00       ?_Growmap@?$deque@PAVBehaviour@@V?$allocator@PAVBehaviour@@@std@@@std@@IAEXI@Z 00417480 f i actormanager.obj
 0001:00016f60       ??0?$vector@PAVActor@@V?$s2alloc@PAVActor@@@@@std@@QAE@ABV01@@Z 004175e0 f i actormanager.obj
 0001:00017020       ?push_back@?$vector@PAVActor@@V?$s2alloc@PAVActor@@@@@std@@QAEXABQAVActor@@@Z 004176a0 f i actormanager.obj
 0001:00017090       ?push_back@?$deque@PAVBehaviour@@V?$allocator@PAVBehaviour@@@std@@@std@@QAEXABQAVBehaviour@@@Z 00417710 f i actormanager.obj
 0001:00017110       ?GetActorsByType@ActorManager@@QAE?AV?$vector@PAVActor@@V?$s2alloc@PAVActor@@@@@std@@PBD@Z 00417790 f   actormanager.obj
 0001:000172c0       ?SetActorRotationSpeed@ActorManager@@CAXHPAPAD@Z 00417940 f   actormanager.obj
 0001:00017350       ?AddShield@ActorManager@@CAXHPAPAD@Z 004179d0 f   actormanager.obj
 0001:000173d0       ?AddBehaviour@ActorManager@@CAXHPAPAD@Z 00417a50 f   actormanager.obj
 0001:00017870       ?SetupConsoleFunctions@ActorManager@@AAEXXZ 00417ef0 f   actormanager.obj
 0001:000179b0       ??0ActorManager@@QAE@XZ    00418030 f   actormanager.obj
 0001:00017b30       ?CreateInstance@ActorManager@@SAPAV1@XZ 004181b0 f   actormanager.obj
 0001:00017bb0       ?SetMaxFiringRange@AttackBehaviour@@QAEXM@Z 00418230 f   attackbehaviour.obj
 0001:00017bd0       ?SetFiringArc@AttackBehaviour@@QAEXM@Z 00418250 f   attackbehaviour.obj
 0001:00017bf0       ?SetMovementIntervals@AttackBehaviour@@QAEXM@Z 00418270 f   attackbehaviour.obj
 0001:00017c00       ?IsMovementDisabled@AttackBehaviour@@QBE_NXZ 00418280 f   attackbehaviour.obj
 0001:00017c20       ?Activate@AttackBehaviour@@UAEXXZ 004182a0 f   attackbehaviour.obj
 0001:00017cc0       ?Deactivate@AttackBehaviour@@UAEXXZ 00418340 f   attackbehaviour.obj
 0001:00017d00       ?WithinFiringRange@AttackBehaviour@@IBE_NABVVector@RadicalMathLibrary@@0@Z 00418380 f   attackbehaviour.obj
 0001:00017d50       ?WithinFiringArc@AttackBehaviour@@IBE_NABVVector@RadicalMathLibrary@@00@Z 004183d0 f   attackbehaviour.obj
 0001:00017dd0       ?IsTooClose@AttackBehaviour@@IBE_NABVVector@RadicalMathLibrary@@0@Z 00418450 f   attackbehaviour.obj
 0001:00017e20       ?MoveIntoAttackRange@AttackBehaviour@@IAEXPAVActor@@ABVVector@RadicalMathLibrary@@@Z 004184a0 f   attackbehaviour.obj
 0001:00017f40       ?MoveAway@AttackBehaviour@@IAEXPAVActor@@ABVVector@RadicalMathLibrary@@@Z 004185c0 f   attackbehaviour.obj
 0001:00017fd0       ?HandleEvent@AttackBehaviour@@UAEXW4EventEnum@@PAX@Z 00418650 f   attackbehaviour.obj
 0001:000180c0       ?IsExclusive@Behaviour@@UBE_NXZ 00418740 f i attackbehaviour.obj
 0001:000180c0       ?GetAutoRepack@radLoadHashedStore@@UAE_NXZ 00418740 f i radcontent:inventory.obj
 0001:000180c0       ?GetEndianSwap@radLoadStream@@UAE_NXZ 00418740 f i pure3dxr:chunkfile.obj
 0001:000180d0       ??0AttackBehaviour@@QAE@MM@Z 00418750 f   attackbehaviour.obj
 0001:00018190       ??_EAttackBehaviour@@WM@AEPAXI@Z 00418810 f i attackbehaviour.obj
 0001:000181a0       ??1AttackBehaviour@@UAE@XZ 00418820 f   attackbehaviour.obj
 0001:00018200       ?Apply@AttackBehaviour@@UAEXPAVActor@@I@Z 00418880 f   attackbehaviour.obj
 0001:00018450       ??_GAttackBehaviour@@UAEPAXI@Z 00418ad0 f i attackbehaviour.obj
 0001:00018450       ??_EAttackBehaviour@@UAEPAXI@Z 00418ad0 f i attackbehaviour.obj
 0001:00018470       ?Activate@AttractionBehaviour@@UAEXXZ 00418af0 f   attractionbehaviour.obj
 0001:00018480       ?Deactivate@AttractionBehaviour@@UAEXXZ 00418b00 f   attractionbehaviour.obj
 0001:00018490       ?WithinSensoryRange@AttractionBehaviour@@ABE_NABVActor@@ABVAvatar@@@Z 00418b10 f   attractionbehaviour.obj
 0001:00018500       ?FindNewWatchPosition@AttractionBehaviour@@ABE_NABVActor@@ABVVector@RadicalMathLibrary@@PAV34@@Z 00418b80 f   attractionbehaviour.obj
 0001:000185a0       ??0AttractionBehaviour@@QAE@MMM@Z 00418c20 f   attractionbehaviour.obj
 0001:000187a0       ??_EAttractionBehaviour@@WM@AEPAXI@Z 00418e20 f i attractionbehaviour.obj
 0001:000187b0       ??1AttractionBehaviour@@UAE@XZ 00418e30 f   attractionbehaviour.obj
 0001:00018830       ?Apply@AttractionBehaviour@@UAEXPAVActor@@I@Z 00418eb0 f   attractionbehaviour.obj
 0001:00018990       ?HandleEvent@AttractionBehaviour@@UAEXW4EventEnum@@PAX@Z 00419010 f   attractionbehaviour.obj
 0001:00018ae0       ??_GAttractionBehaviour@@UAEPAXI@Z 00419160 f i attractionbehaviour.obj
 0001:00018ae0       ??_EAttractionBehaviour@@UAEPAXI@Z 00419160 f i attractionbehaviour.obj
 0001:00018b00       ?Activate@UFOAttackBehaviour@@UAEXXZ 00419180 f   ufoattackbehaviour.obj
 0001:00018b00       ?Deactivate@UFOAttackBehaviour@@UAEXXZ 00419180 f   ufoattackbehaviour.obj
 0001:00018b00       ?Deactivate@EvasionBehaviour@@UAEXXZ 00419180 f   evasionbehaviour.obj
 0001:00018b00       ?Activate@EvasionBehaviour@@UAEXXZ 00419180 f   evasionbehaviour.obj
 0001:00018b00       ?Reset@tMultiController@@UAEXXZ 00419180 f   pure3dxr:multicontroller.obj
 0001:00018b10       ?SetSpeed@EvasionBehaviour@@QAEXM@Z 00419190 f   evasionbehaviour.obj
 0001:00018b20       ?FindGroundHeight@EvasionBehaviour@@ABE_NMMPAM@Z 004191a0 f   evasionbehaviour.obj
 0001:00018b80       ??0EvasionBehaviour@@QAE@MMMMM@Z 00419200 f   evasionbehaviour.obj
 0001:00018c20       ??1EvasionBehaviour@@UAE@XZ 004192a0 f   evasionbehaviour.obj
 0001:00018c20       ??1Behaviour@@UAE@XZ       004192a0 f   attackbehaviour.obj
 0001:00018c30       ?FindEvasionDestination@EvasionBehaviour@@AAE_NABVVector@RadicalMathLibrary@@PAV23@@Z 004192b0 f   evasionbehaviour.obj
 0001:00018d30       ??_EBehaviour@@UAEPAXI@Z   004193b0 f i attackbehaviour.obj
 0001:00018d30       ??_GEvasionBehaviour@@UAEPAXI@Z 004193b0 f i evasionbehaviour.obj
 0001:00018d30       ??_EEvasionBehaviour@@UAEPAXI@Z 004193b0 f i evasionbehaviour.obj
 0001:00018d30       ??_GBehaviour@@UAEPAXI@Z   004193b0 f i attackbehaviour.obj
 0001:00018d50       ?Apply@EvasionBehaviour@@UAEXPAVActor@@I@Z 004193d0 f   evasionbehaviour.obj
 0001:00018e70       ?SetRotationSpeed@FlyingActor@@UAEXM@Z 004194f0 f   flyingactor.obj
 0001:00018e90       ?LookAt@FlyingActor@@UAEXABVVector@RadicalMathLibrary@@I@Z 00419510 f   flyingactor.obj
 0001:00019030       ?ReleaseBehaviours@FlyingActor@@UAEXXZ 004196b0 f   flyingactor.obj
 0001:00019070       ?FindGroundIntersection@FlyingActor@@IAE_NPAMPAVVector@RadicalMathLibrary@@@Z 004196f0 f   flyingactor.obj
 0001:00019190       ?RecieveEvent@FlyingActor@@UAEXHPAVCStateProp@@@Z 00419810 f   flyingactor.obj
 0001:00019250       ??$fill@PAVVector@RadicalMathLibrary@@V12@@std@@YAXPAVVector@RadicalMathLibrary@@0ABV12@@Z 004198d0 f i flyingactor.obj
 0001:00019290       ??$_Copy_opt@PAVVector@RadicalMathLibrary@@PAV12@@std@@YAPAVVector@RadicalMathLibrary@@PAV12@00U_Nonscalar_ptr_iterator_tag@0@@Z 00419910 f i flyingactor.obj
 0001:000192d0       ??$_Copy_backward_opt@PAVVector@RadicalMathLibrary@@PAV12@@std@@YAPAVVector@RadicalMathLibrary@@PAV12@00U_Nonscalar_ptr_iterator_tag@0@@Z 00419950 f i flyingactor.obj
 0001:00019310       ?ChangeBehaviour@FlyingActor@@IAE_NPAVBehaviour@@@Z 00419990 f   flyingactor.obj
 0001:00019390       ??$_Uninit_copy@PAVVector@RadicalMathLibrary@@PAV12@V?$s2alloc@VVector@RadicalMathLibrary@@@@@std@@YAPAVVector@RadicalMathLibrary@@PAV12@00AAV?$s2alloc@VVector@RadicalMathLibrary@@@@U_Nonscalar_ptr_iterator_tag@0@@Z 00419a10 f i flyingactor.obj
 0001:00019390       ??$_Uninit_copy@Viterator@?$vector@VVector@RadicalMathLibrary@@V?$s2alloc@VVector@RadicalMathLibrary@@@@@std@@PAVVector@RadicalMathLibrary@@V?$s2alloc@VVector@RadicalMathLibrary@@@@@std@@YAPAVVector@RadicalMathLibrary@@Viterator@?$vector@VVector@RadicalMathLibrary@@V?$s2alloc@VVector@RadicalMathLibrary@@@@@0@0PAV12@AAV?$s2alloc@VVector@RadicalMathLibrary@@@@U_Nonscalar_ptr_iterator_tag@0@@Z 00419a10 f i flyingactor.obj
 0001:000193d0       ?safe_cast@?$SafeCast@VtDrawable@@@radLoadInventory@@UAEPAUIRefCount@@PAU3@@Z 00419a50 f i flyingactor.obj
 0001:000193f0       ?AddBehaviour@FlyingActor@@UAEXPAVBehaviour@@@Z 00419a70 f   flyingactor.obj
 0001:00019510       ?Activate@FlyingActor@@UAEXXZ 00419b90 f   flyingactor.obj
 0001:00019570       ?DeactivateBehaviours@FlyingActor@@UAEXXZ 00419bf0 f   flyingactor.obj
 0001:00019580       ??$find@VtDrawable@@@p3d@@YAPAVtDrawable@@PAVtEntityStore@@ABVtName@@@Z 00419c00 f i flyingactor.obj
 0001:00019650       ?_Ufill@?$vector@VVector@RadicalMathLibrary@@V?$s2alloc@VVector@RadicalMathLibrary@@@@@std@@IAEPAVVector@RadicalMathLibrary@@PAV34@IABV34@@Z 00419cd0 f i flyingactor.obj
 0001:00019680       ??$find@VtDrawable@@@p3d@@YAPAVtDrawable@@PAVtEntityStore@@PBD@Z 00419d00 f i flyingactor.obj
 0001:000196f0       ?UpdateMovement@FlyingActor@@IAE_NIPAVVector@RadicalMathLibrary@@@Z 00419d70 f   flyingactor.obj
 0001:000199b0       ??1FlyingActor@@UAE@XZ     0041a030 f   flyingactor.obj
 0001:00019aa0       ?IsMoving@FlyingActor@@UBE_NXZ 0041a120 f i flyingactor.obj
 0001:00019ab0       ?Init@FlyingActor@@UAE_NPBD0@Z 0041a130 f   flyingactor.obj
 0001:00019cb0       ?Update@FlyingActor@@UAEXI@Z 0041a330 f   flyingactor.obj
 0001:00019df0       ??_EFlyingActor@@UAEPAXI@Z 0041a470 f i flyingactor.obj
 0001:00019df0       ??_GFlyingActor@@UAEPAXI@Z 0041a470 f i flyingactor.obj
 0001:00019e10       ?_Xlen@?$vector@VVector@RadicalMathLibrary@@V?$s2alloc@VVector@RadicalMathLibrary@@@@@std@@IBEXXZ 0041a490 f i flyingactor.obj
 0001:00019e80       ?_Insert_n@?$vector@VVector@RadicalMathLibrary@@V?$s2alloc@VVector@RadicalMathLibrary@@@@@std@@IAEXViterator@12@IABVVector@RadicalMathLibrary@@@Z 0041a500 f i flyingactor.obj
 0001:0001a140       ?reserve@?$vector@VVector@RadicalMathLibrary@@V?$s2alloc@VVector@RadicalMathLibrary@@@@@std@@QAEXI@Z 0041a7c0 f i flyingactor.obj
 0001:0001a230       ?resize@?$vector@VVector@RadicalMathLibrary@@V?$s2alloc@VVector@RadicalMathLibrary@@@@@std@@QAEXIVVector@RadicalMathLibrary@@@Z 0041a8b0 f i flyingactor.obj
 0001:0001a2e0       ?insert@?$vector@VVector@RadicalMathLibrary@@V?$s2alloc@VVector@RadicalMathLibrary@@@@@std@@QAE?AViterator@12@V312@ABVVector@RadicalMathLibrary@@@Z 0041a960 f i flyingactor.obj
 0001:0001a350       ?push_back@?$vector@VVector@RadicalMathLibrary@@V?$s2alloc@VVector@RadicalMathLibrary@@@@@std@@QAEXABVVector@RadicalMathLibrary@@@Z 0041a9d0 f i flyingactor.obj
 0001:0001a3d0       ??0FlyingActor@@QAE@XZ     0041aa50 f   flyingactor.obj
 0001:0001a4d0       ?FindWaypoint@FlyingActor@@IAEXABVVector@RadicalMathLibrary@@0H@Z 0041ab50 f   flyingactor.obj
 0001:0001a700       ?MoveTo@FlyingActor@@UAEXABVVector@RadicalMathLibrary@@M@Z 0041ad80 f   flyingactor.obj
 0001:0001a8f0       ?LineSegmentIntersection@IntersectionList@@IAE_NABULineSegment2D@1@0PAM@Z 0041af70 f   intersectionlist.obj
 0001:0001aa40       ??$fill@PAULineSegment2D@IntersectionList@@U12@@std@@YAXPAULineSegment2D@IntersectionList@@0ABU12@@Z 0041b0c0 f i intersectionlist.obj
 0001:0001aa80       ??$_Copy_opt@PAULineSegment2D@IntersectionList@@PAU12@@std@@YAPAULineSegment2D@IntersectionList@@PAU12@00U_Nonscalar_ptr_iterator_tag@0@@Z 0041b100 f i intersectionlist.obj
 0001:0001aac0       ??$_Copy_backward_opt@PAULineSegment2D@IntersectionList@@PAU12@@std@@YAPAULineSegment2D@IntersectionList@@PAU12@00U_Nonscalar_ptr_iterator_tag@0@@Z 0041b140 f i intersectionlist.obj
 0001:0001ab00       ??$_Uninit_copy@PAULineSegment2D@IntersectionList@@PAU12@V?$s2alloc@ULineSegment2D@IntersectionList@@@@@std@@YAPAULineSegment2D@IntersectionList@@PAU12@00AAV?$s2alloc@ULineSegment2D@IntersectionList@@@@U_Nonscalar_ptr_iterator_tag@0@@Z 0041b180 f i intersectionlist.obj
 0001:0001ab00       ??$_Uninit_copy@Viterator@?$vector@ULineSegment2D@IntersectionList@@V?$s2alloc@ULineSegment2D@IntersectionList@@@@@std@@PAULineSegment2D@IntersectionList@@V?$s2alloc@ULineSegment2D@IntersectionList@@@@@std@@YAPAULineSegment2D@IntersectionList@@Viterator@?$vector@ULineSegment2D@IntersectionList@@V?$s2alloc@ULineSegment2D@IntersectionList@@@@@0@0PAU12@AAV?$s2alloc@ULineSegment2D@IntersectionList@@@@U_Nonscalar_ptr_iterator_tag@0@@Z 0041b180 f i intersectionlist.obj
 0001:0001ab40       ?size@?$Map@PAVCollisionObject@sim@@PAVDynaPhysDSG@@@@QBEIXZ 0041b1c0 f i intersectionlist.obj
 0001:0001ab60       ??$_Uninit_fill_n@PAULineSegment2D@IntersectionList@@IU12@V?$s2alloc@ULineSegment2D@IntersectionList@@@@@std@@YAXPAULineSegment2D@IntersectionList@@IABU12@AAV?$s2alloc@ULineSegment2D@IntersectionList@@@@U_Nonscalar_ptr_iterator_tag@0@@Z 0041b1e0 f i intersectionlist.obj
 0001:0001aba0       ??$copy_backward@PAV?$MapElement@W4ParticleID@ParticleEnum@@H@@PAV1@@std@@YAPAV?$MapElement@W4ParticleID@ParticleEnum@@H@@PAV1@00@Z 0041b220 f i vehicleparticleemitter.obj
 0001:0001aba0       ??$copy_backward@PAV?$MapElement@PAVCollisionObject@sim@@PAVDynaPhysDSG@@@@PAV1@@std@@YAPAV?$MapElement@PAVCollisionObject@sim@@PAVDynaPhysDSG@@@@PAV1@00@Z 0041b220 f i intersectionlist.obj
 0001:0001abd0       ??$_Uninit_copy@Viterator@?$vector@PAVCollisionObject@sim@@V?$s2alloc@PAVCollisionObject@sim@@@@@std@@PAPAVCollisionObject@sim@@V?$s2alloc@PAVCollisionObject@sim@@@@@std@@YAPAPAVCollisionObject@sim@@Viterator@?$vector@PAVCollisionObject@sim@@V?$s2alloc@PAVCollisionObject@sim@@@@@0@0PAPAV12@AAV?$s2alloc@PAVCollisionObject@sim@@@@U_Nonscalar_ptr_iterator_tag@0@@Z 0041b250 f i intersectionlist.obj
 0001:0001abd0       ??$_Uninit_copy@PAPAVCollisionObject@sim@@PAPAV12@V?$s2alloc@PAVCollisionObject@sim@@@@@std@@YAPAPAVCollisionObject@sim@@PAPAV12@00AAV?$s2alloc@PAVCollisionObject@sim@@@@U_Nonscalar_ptr_iterator_tag@0@@Z 0041b250 f i intersectionlist.obj
 0001:0001abd0       ??$_Uninit_copy@Vconst_iterator@?$vector@PAVActor@@V?$s2alloc@PAVActor@@@@@std@@PAPAVActor@@V?$s2alloc@PAVActor@@@@@std@@YAPAPAVActor@@Vconst_iterator@?$vector@PAVActor@@V?$s2alloc@PAVActor@@@@@0@0PAPAV1@AAV?$s2alloc@PAVActor@@@@U_Nonscalar_ptr_iterator_tag@0@@Z 0041b250 f i actormanager.obj
 0001:0001abd0       ??$_Uninit_copy@PAPAVIEntityDSG@@PAPAV1@V?$s2alloc@PAVIEntityDSG@@@@@std@@YAPAPAVIEntityDSG@@PAPAV1@00AAV?$s2alloc@PAVIEntityDSG@@@@U_Nonscalar_ptr_iterator_tag@0@@Z 0041b250 f i WorldScene.obj
 0001:0001abd0       ??$_Uninit_copy@PAPAVEventListener@@PAPAV1@V?$s2alloc@PAVEventListener@@@@@std@@YAPAPAVEventListener@@PAPAV1@00AAV?$s2alloc@PAVEventListener@@@@U_Nonscalar_ptr_iterator_tag@0@@Z 0041b250 f i eventmanager.obj
 0001:0001abd0       ??$_Uninit_copy@PAPAW4eGuiWindowID@CGuiWindow@@PAPAW412@V?$s2alloc@PAW4eGuiWindowID@CGuiWindow@@@@@std@@YAPAPAW4eGuiWindowID@CGuiWindow@@PAPAW412@00AAV?$s2alloc@PAW4eGuiWindowID@CGuiWindow@@@@U_Nonscalar_ptr_iterator_tag@0@@Z 0041b250 f i guimanagerbootup.obj
 0001:0001abd0       ??$_Uninit_copy@PAIPAIV?$s2alloc@I@@@std@@YAPAIPAI00AAV?$s2alloc@I@@U_Nonscalar_ptr_iterator_tag@0@@Z 0041b250 f i particlemanager.obj
 0001:0001abd0       ??$_Uninit_copy@PAW4TutorialMode@@PAW41@V?$s2alloc@W4TutorialMode@@@@@std@@YAPAW4TutorialMode@@PAW41@00AAV?$s2alloc@W4TutorialMode@@@@U_Nonscalar_ptr_iterator_tag@0@@Z 0041b250 f i tutorialmanager.obj
 0001:0001abd0       ??$_Uninit_copy@PAPAVSelectableDialog@@PAPAV1@V?$s2alloc@PAVSelectableDialog@@@@@std@@YAPAPAVSelectableDialog@@PAPAV1@00AAV?$s2alloc@PAVSelectableDialog@@@@U_Nonscalar_ptr_iterator_tag@0@@Z 0041b250 f i dialogselectiongroup.obj
 0001:0001abd0       ??$_Uninit_copy@Viterator@?$vector@W4TutorialMode@@V?$s2alloc@W4TutorialMode@@@@@std@@PAW4TutorialMode@@V?$s2alloc@W4TutorialMode@@@@@std@@YAPAW4TutorialMode@@Viterator@?$vector@W4TutorialMode@@V?$s2alloc@W4TutorialMode@@@@@0@0PAW41@AAV?$s2alloc@W4TutorialMode@@@@U_Nonscalar_ptr_iterator_tag@0@@Z 0041b250 f i tutorialmanager.obj
 0001:0001abd0       ??$_Uninit_copy@Viterator@?$vector@PAVIEntityDSG@@V?$s2alloc@PAVIEntityDSG@@@@@std@@PAPAVIEntityDSG@@V?$s2alloc@PAVIEntityDSG@@@@@std@@YAPAPAVIEntityDSG@@Viterator@?$vector@PAVIEntityDSG@@V?$s2alloc@PAVIEntityDSG@@@@@0@0PAPAV1@AAV?$s2alloc@PAVIEntityDSG@@@@U_Nonscalar_ptr_iterator_tag@0@@Z 0041b250 f i WorldScene.obj
 0001:0001abd0       ??$_Uninit_copy@Viterator@?$vector@PAVEventListener@@V?$s2alloc@PAVEventListener@@@@@std@@PAPAVEventListener@@V?$s2alloc@PAVEventListener@@@@@std@@YAPAPAVEventListener@@Viterator@?$vector@PAVEventListener@@V?$s2alloc@PAVEventListener@@@@@0@0PAPAV1@AAV?$s2alloc@PAVEventListener@@@@U_Nonscalar_ptr_iterator_tag@0@@Z 0041b250 f i eventmanager.obj
 0001:0001abd0       ??$_Uninit_copy@Viterator@?$vector@PAVActor@@V?$s2alloc@PAVActor@@@@@std@@PAPAVActor@@V?$s2alloc@PAVActor@@@@@std@@YAPAPAVActor@@Viterator@?$vector@PAVActor@@V?$s2alloc@PAVActor@@@@@0@0PAPAV1@AAV?$s2alloc@PAVActor@@@@U_Nonscalar_ptr_iterator_tag@0@@Z 0041b250 f i actormanager.obj
 0001:0001abd0       ??$_Uninit_copy@PAPAVActor@@PAPAV1@V?$s2alloc@PAVActor@@@@@std@@YAPAPAVActor@@PAPAV1@00AAV?$s2alloc@PAVActor@@@@U_Nonscalar_ptr_iterator_tag@0@@Z 0041b250 f i actormanager.obj
 0001:0001abd0       ??$_Uninit_copy@PAW4ContextEnum@@PAW41@V?$s2alloc@W4ContextEnum@@@@@std@@YAPAW4ContextEnum@@PAW41@00AAV?$s2alloc@W4ContextEnum@@@@U_Nonscalar_ptr_iterator_tag@0@@Z 0041b250 f i gameflow.obj
 0001:0001abd0       ??$_Uninit_copy@Viterator@?$vector@PAVSelectableDialog@@V?$s2alloc@PAVSelectableDialog@@@@@std@@PAPAVSelectableDialog@@V?$s2alloc@PAVSelectableDialog@@@@@std@@YAPAPAVSelectableDialog@@Viterator@?$vector@PAVSelectableDialog@@V?$s2alloc@PAVSelectableDialog@@@@@0@0PAPAV1@AAV?$s2alloc@PAVSelectableDialog@@@@U_Nonscalar_ptr_iterator_tag@0@@Z 0041b250 f i dialogselectiongroup.obj
 0001:0001ac00       ??$_Med3@Viterator@?$vector@V?$MapElement@PAVCollisionObject@sim@@PAVDynaPhysDSG@@@@V?$s2alloc@V?$MapElement@PAVCollisionObject@sim@@PAVDynaPhysDSG@@@@@@@std@@@std@@YAXViterator@?$vector@V?$MapElement@PAVCollisionObject@sim@@PAVDynaPhysDSG@@@@V?$s2alloc@V?$MapElement@PAVCollisionObject@sim@@PAVDynaPhysDSG@@@@@@@0@00@Z 0041b280 f i intersectionlist.obj
 0001:0001ac60       ??$_Push_heap@Viterator@?$vector@V?$MapElement@PAVCollisionObject@sim@@PAVDynaPhysDSG@@@@V?$s2alloc@V?$MapElement@PAVCollisionObject@sim@@PAVDynaPhysDSG@@@@@@@std@@HV?$MapElement@PAVCollisionObject@sim@@PAVDynaPhysDSG@@@@@std@@YAXViterator@?$vector@V?$MapElement@PAVCollisionObject@sim@@PAVDynaPhysDSG@@@@V?$s2alloc@V?$MapElement@PAVCollisionObject@sim@@PAVDynaPhysDSG@@@@@@@0@HHV?$MapElement@PAVCollisionObject@sim@@PAVDynaPhysDSG@@@@@Z 0041b2e0 f i intersectionlist.obj
 0001:0001acb0       ??$_Median@Viterator@?$vector@V?$MapElement@PAVCollisionObject@sim@@PAVDynaPhysDSG@@@@V?$s2alloc@V?$MapElement@PAVCollisionObject@sim@@PAVDynaPhysDSG@@@@@@@std@@@std@@YAXViterator@?$vector@V?$MapElement@PAVCollisionObject@sim@@PAVDynaPhysDSG@@@@V?$s2alloc@V?$MapElement@PAVCollisionObject@sim@@PAVDynaPhysDSG@@@@@@@0@00@Z 0041b330 f i intersectionlist.obj
 0001:0001ad40       ??$_Adjust_heap@Viterator@?$vector@V?$MapElement@PAVCollisionObject@sim@@PAVDynaPhysDSG@@@@V?$s2alloc@V?$MapElement@PAVCollisionObject@sim@@PAVDynaPhysDSG@@@@@@@std@@HV?$MapElement@PAVCollisionObject@sim@@PAVDynaPhysDSG@@@@@std@@YAXViterator@?$vector@V?$MapElement@PAVCollisionObject@sim@@PAVDynaPhysDSG@@@@V?$s2alloc@V?$MapElement@PAVCollisionObject@sim@@PAVDynaPhysDSG@@@@@@@0@HHV?$MapElement@PAVCollisionObject@sim@@PAVDynaPhysDSG@@@@@Z 0041b3c0 f i intersectionlist.obj
 0001:0001adb0       ?_Ufill@?$vector@ULineSegment2D@IntersectionList@@V?$s2alloc@ULineSegment2D@IntersectionList@@@@@std@@IAEPAULineSegment2D@IntersectionList@@PAU34@IABU34@@Z 0041b430 f i intersectionlist.obj
 0001:0001ade0       ??$_Lower_bound@Viterator@?$vector@V?$MapElement@PAVCollisionObject@sim@@PAVDynaPhysDSG@@@@V?$s2alloc@V?$MapElement@PAVCollisionObject@sim@@PAVDynaPhysDSG@@@@@@@std@@V?$MapElement@PAVCollisionObject@sim@@PAVDynaPhysDSG@@@@H@std@@YA?AViterator@?$vector@V?$MapElement@PAVCollisionObject@sim@@PAVDynaPhysDSG@@@@V?$s2alloc@V?$MapElement@PAVCollisionObject@sim@@PAVDynaPhysDSG@@@@@@@0@V120@0ABV?$MapElement@PAVCollisionObject@sim@@PAVDynaPhysDSG@@@@PAH@Z 0041b460 f i intersectionlist.obj
 0001:0001ae30       ??$_Unguarded_partition@Viterator@?$vector@V?$MapElement@PAVCollisionObject@sim@@PAVDynaPhysDSG@@@@V?$s2alloc@V?$MapElement@PAVCollisionObject@sim@@PAVDynaPhysDSG@@@@@@@std@@@std@@YA?AU?$pair@Viterator@?$vector@V?$MapElement@PAVCollisionObject@sim@@PAVDynaPhysDSG@@@@V?$s2alloc@V?$MapElement@PAVCollisionObject@sim@@PAVDynaPhysDSG@@@@@@@std@@V123@@0@Viterator@?$vector@V?$MapElement@PAVCollisionObject@sim@@PAVDynaPhysDSG@@@@V?$s2alloc@V?$MapElement@PAVCollisionObject@sim@@PAVDynaPhysDSG@@@@@@@0@0@Z 0041b4b0 f i intersectionlist.obj
 0001:0001aff0       ??$_Make_heap@Viterator@?$vector@V?$MapElement@PAVCollisionObject@sim@@PAVDynaPhysDSG@@@@V?$s2alloc@V?$MapElement@PAVCollisionObject@sim@@PAVDynaPhysDSG@@@@@@@std@@HV?$MapElement@PAVCollisionObject@sim@@PAVDynaPhysDSG@@@@@std@@YAXViterator@?$vector@V?$MapElement@PAVCollisionObject@sim@@PAVDynaPhysDSG@@@@V?$s2alloc@V?$MapElement@PAVCollisionObject@sim@@PAVDynaPhysDSG@@@@@@@0@0PAHPAV?$MapElement@PAVCollisionObject@sim@@PAVDynaPhysDSG@@@@@Z 0041b670 f i intersectionlist.obj
 0001:0001b040       ?TestIntersectionStatics@IntersectionList@@QAE_NABVVector@RadicalMathLibrary@@0PAV23@@Z 0041b6c0 f   intersectionlist.obj
 0001:0001b2a0       ?TestIntersectionDynamics@IntersectionList@@QAE_NABVVector@RadicalMathLibrary@@0PAV23@PAPAVDynaPhysDSG@@@Z 0041b920 f   intersectionlist.obj
 0001:0001b440       ?TestIntersection@IntersectionList@@QAE_NABVVector@RadicalMathLibrary@@0PAV23@@Z 0041bac0 f   intersectionlist.obj
 0001:0001b730       ?LineOfSight@IntersectionList@@QAE_NABVVector@RadicalMathLibrary@@0M_N@Z 0041bdb0 f   intersectionlist.obj
 0001:0001b930       ?clear@?$Map@PAVCollisionObject@sim@@PAVDynaPhysDSG@@@@QAEXXZ 0041bfb0 f i intersectionlist.obj
 0001:0001b960       ??$_Insertion_sort@Viterator@?$vector@V?$MapElement@PAVCollisionObject@sim@@PAVDynaPhysDSG@@@@V?$s2alloc@V?$MapElement@PAVCollisionObject@sim@@PAVDynaPhysDSG@@@@@@@std@@@std@@YAXViterator@?$vector@V?$MapElement@PAVCollisionObject@sim@@PAVDynaPhysDSG@@@@V?$s2alloc@V?$MapElement@PAVCollisionObject@sim@@PAVDynaPhysDSG@@@@@@@0@0@Z 0041bfe0 f i intersectionlist.obj
 0001:0001b9e0       ?ClearDynamics@IntersectionList@@QAEXXZ 0041c060 f   intersectionlist.obj
 0001:0001ba40       ??$sort_heap@Viterator@?$vector@V?$MapElement@PAVCollisionObject@sim@@PAVDynaPhysDSG@@@@V?$s2alloc@V?$MapElement@PAVCollisionObject@sim@@PAVDynaPhysDSG@@@@@@@std@@@std@@YAXViterator@?$vector@V?$MapElement@PAVCollisionObject@sim@@PAVDynaPhysDSG@@@@V?$s2alloc@V?$MapElement@PAVCollisionObject@sim@@PAVDynaPhysDSG@@@@@@@0@0@Z 0041c0c0 f i intersectionlist.obj
 0001:0001ba90       ?_Insert_n@?$vector@V?$MapElement@PAVCollisionObject@sim@@PAVDynaPhysDSG@@@@V?$s2alloc@V?$MapElement@PAVCollisionObject@sim@@PAVDynaPhysDSG@@@@@@@std@@IAEXViterator@12@IABV?$MapElement@PAVCollisionObject@sim@@PAVDynaPhysDSG@@@@@Z 0041c110 f i intersectionlist.obj
 0001:0001bce0       ??$_Sort@Viterator@?$vector@V?$MapElement@PAVCollisionObject@sim@@PAVDynaPhysDSG@@@@V?$s2alloc@V?$MapElement@PAVCollisionObject@sim@@PAVDynaPhysDSG@@@@@@@std@@H@std@@YAXViterator@?$vector@V?$MapElement@PAVCollisionObject@sim@@PAVDynaPhysDSG@@@@V?$s2alloc@V?$MapElement@PAVCollisionObject@sim@@PAVDynaPhysDSG@@@@@@@0@0H@Z 0041c360 f i intersectionlist.obj
 0001:0001bdb0       ?_Xlen@?$vector@V?$MapElement@PAVCollisionObject@sim@@PAVDynaPhysDSG@@@@V?$s2alloc@V?$MapElement@PAVCollisionObject@sim@@PAVDynaPhysDSG@@@@@@@std@@IBEXXZ 0041c430 f i intersectionlist.obj
 0001:0001bdb0       ?_Xlen@?$vector@ULineSegment2D@IntersectionList@@V?$s2alloc@ULineSegment2D@IntersectionList@@@@@std@@IBEXXZ 0041c430 f i intersectionlist.obj
 0001:0001bdb0       ?_Xlen@?$vector@PAVCollisionObject@sim@@V?$s2alloc@PAVCollisionObject@sim@@@@@std@@IBEXXZ 0041c430 f i intersectionlist.obj
 0001:0001be20       ?_Insert_n@?$vector@PAVCollisionObject@sim@@V?$s2alloc@PAVCollisionObject@sim@@@@@std@@IAEXViterator@12@IABQAVCollisionObject@sim@@@Z 0041c4a0 f i intersectionlist.obj
 0001:0001c070       ?_Insert_n@?$vector@ULineSegment2D@IntersectionList@@V?$s2alloc@ULineSegment2D@IntersectionList@@@@@std@@IAEXViterator@12@IABULineSegment2D@IntersectionList@@@Z 0041c6f0 f i intersectionlist.obj
 0001:0001c2e0       ?reserve@?$vector@V?$MapElement@PAVCollisionObject@sim@@PAVDynaPhysDSG@@@@V?$s2alloc@V?$MapElement@PAVCollisionObject@sim@@PAVDynaPhysDSG@@@@@@@std@@QAEXI@Z 0041c960 f i intersectionlist.obj
 0001:0001c3b0       ?reserve@?$vector@PAVCollisionObject@sim@@V?$s2alloc@PAVCollisionObject@sim@@@@@std@@QAEXI@Z 0041ca30 f i intersectionlist.obj
 0001:0001c480       ?reserve@?$vector@ULineSegment2D@IntersectionList@@V?$s2alloc@ULineSegment2D@IntersectionList@@@@@std@@QAEXI@Z 0041cb00 f i intersectionlist.obj
 0001:0001c550       ?resize@?$vector@PAVCollisionObject@sim@@V?$s2alloc@PAVCollisionObject@sim@@@@@std@@QAEXIPAVCollisionObject@sim@@@Z 0041cbd0 f i intersectionlist.obj
 0001:0001c5e0       ?resize@?$vector@ULineSegment2D@IntersectionList@@V?$s2alloc@ULineSegment2D@IntersectionList@@@@@std@@QAEXIULineSegment2D@IntersectionList@@@Z 0041cc60 f i intersectionlist.obj
 0001:0001c660       ?reserve@?$Map@PAVCollisionObject@sim@@PAVDynaPhysDSG@@@@QAEXI@Z 0041cce0 f i intersectionlist.obj
 0001:0001c670       ?push_back@?$vector@V?$MapElement@PAVCollisionObject@sim@@PAVDynaPhysDSG@@@@V?$s2alloc@V?$MapElement@PAVCollisionObject@sim@@PAVDynaPhysDSG@@@@@@@std@@QAEXABV?$MapElement@PAVCollisionObject@sim@@PAVDynaPhysDSG@@@@@Z 0041ccf0 f i intersectionlist.obj
 0001:0001c6e0       ?RefreshIfDirty@?$Map@PAVCollisionObject@sim@@PAVDynaPhysDSG@@@@IBEXXZ 0041cd60 f i intersectionlist.obj
 0001:0001c710       ?push_back@?$vector@PAVCollisionObject@sim@@V?$s2alloc@PAVCollisionObject@sim@@@@@std@@QAEXABQAVCollisionObject@sim@@@Z 0041cd90 f i intersectionlist.obj
 0001:0001c780       ?push_back@?$vector@ULineSegment2D@IntersectionList@@V?$s2alloc@ULineSegment2D@IntersectionList@@@@@std@@QAEXABULineSegment2D@IntersectionList@@@Z 0041ce00 f i intersectionlist.obj
 0001:0001c7f0       ??0?$Map@W4ParticleID@ParticleEnum@@H@@QAE@XZ 0041ce70 f i vehicleparticleemitter.obj
 0001:0001c7f0       ??0?$Map@VtUidUnaligned@@PAVtPose@@@@QAE@XZ 0041ce70 f i StatePropDSG.obj
 0001:0001c7f0       ??0?$Map@VtUidUnaligned@@V1@@@QAE@XZ 0041ce70 f i AnimDynaPhysLoader.obj
 0001:0001c7f0       ??0?$Map@PAVCollisionObject@sim@@PAVDynaPhysDSG@@@@QAE@XZ 0041ce70 f i intersectionlist.obj
 0001:0001c810       ?find@?$Map@PAVCollisionObject@sim@@PAVDynaPhysDSG@@@@QAE?AViterator@?$vector@V?$MapElement@PAVCollisionObject@sim@@PAVDynaPhysDSG@@@@V?$s2alloc@V?$MapElement@PAVCollisionObject@sim@@PAVDynaPhysDSG@@@@@@@std@@ABQAVCollisionObject@sim@@@Z 0041ce90 f i intersectionlist.obj
 0001:0001c870       ?insert@?$Map@PAVCollisionObject@sim@@PAVDynaPhysDSG@@@@QAEXABQAVCollisionObject@sim@@ABQAVDynaPhysDSG@@@Z 0041cef0 f i intersectionlist.obj
 0001:0001c8d0       ??0IntersectionList@@QAE@XZ 0041cf50 f   intersectionlist.obj
 0001:0001c970       ?ClearAnimPhys@IntersectionList@@QAEXXZ 0041cff0 f   intersectionlist.obj
 0001:0001c9c0       ?ClearStatics@IntersectionList@@QAEXXZ 0041d040 f   intersectionlist.obj
 0001:0001ca10       ?ClearFencePieces@IntersectionList@@QAEXXZ 0041d090 f   intersectionlist.obj
 0001:0001ca50       ?AddStatic@IntersectionList@@QAEXPAVSimState@sim@@@Z 0041d0d0 f   intersectionlist.obj
 0001:0001ca90       ?AddDynamic@IntersectionList@@QAEXPAVSimState@sim@@PAVDynaPhysDSG@@@Z 0041d110 f   intersectionlist.obj
 0001:0001cb10       ?AddAnimPhys@IntersectionList@@QAEXPAVSimStateArticulated@sim@@@Z 0041d190 f   intersectionlist.obj
 0001:0001cb50       ?AddFencePiece@IntersectionList@@QAEXPAVFenceEntityDSG@@@Z 0041d1d0 f   intersectionlist.obj
 0001:0001cba0       ?FillIntersectionListFence@IntersectionList@@QAEHABVVector@RadicalMathLibrary@@M@Z 0041d220 f   intersectionlist.obj
 0001:0001cc60       ?FillIntersectionListDynamics@IntersectionList@@QAEHABVVector@RadicalMathLibrary@@M_NPAVDynaPhysDSG@@@Z 0041d2e0 f   intersectionlist.obj
 0001:0001cd30       ?FillIntersectionListAnimPhys@IntersectionList@@QAEHABVVector@RadicalMathLibrary@@M@Z 0041d3b0 f   intersectionlist.obj
 0001:0001ce00       ?Clear@IntersectionList@@QAEXXZ 0041d480 f   intersectionlist.obj
 0001:0001ce20       ?FillIntersectionListStatics@IntersectionList@@QAEHABVVector@RadicalMathLibrary@@M@Z 0041d4a0 f   intersectionlist.obj
 0001:0001cef0       ??1IntersectionList@@UAE@XZ 0041d570 f   intersectionlist.obj
 0001:0001cfa0       ??_GIntersectionList@@UAEPAXI@Z 0041d620 f i intersectionlist.obj
 0001:0001cfa0       ??_EIntersectionList@@UAEPAXI@Z 0041d620 f i intersectionlist.obj
 0001:0001cfc0       ??0Projectile@@QAE@XZ      0041d640 f   projectile.obj
 0001:0001cfe0       ??1Projectile@@UAE@XZ      0041d660 f   projectile.obj
 0001:0001d040       ?SetSpeed@Projectile@@SAXM@Z 0041d6c0 f   projectile.obj
 0001:0001d060       ?Fire@Projectile@@QAEXXZ   0041d6e0 f   projectile.obj
 0001:0001d070       ?CalculateIntersections@Projectile@@QAEXXZ 0041d6f0 f   projectile.obj
 0001:0001d120       ?AdjustCollisionPosition@Projectile@@IAEXABVVector@RadicalMathLibrary@@00PAV23@@Z 0041d7a0 f   projectile.obj
 0001:0001d1f0       ?IsJumpingPlayer@Projectile@@IAE_NPAVDynaPhysDSG@@@Z 0041d870 f   projectile.obj
 0001:0001d220       ??_EProjectile@@UAEPAXI@Z  0041d8a0 f i projectile.obj
 0001:0001d220       ??_GProjectile@@UAEPAXI@Z  0041d8a0 f i projectile.obj
 0001:0001d240       ?ApplyDamage@Projectile@@IAEXPAVDynaPhysDSG@@@Z 0041d8c0 f   projectile.obj
 0001:0001d4c0       ?Update@Projectile@@UAEXI@Z 0041db40 f   projectile.obj
 0001:0001d6e0       ?Init@Projectile@@UAE_NPBD0@Z 0041dd60 f   projectile.obj
 0001:0001d7e0       ??0ProjectileDSG@@QAE@XZ   0041de60 f   projectiledsg.obj
 0001:0001d810       ??1ProjectileDSG@@UAE@XZ   0041de90 f   projectiledsg.obj
 0001:0001d830       ?PreReactToCollision@ProjectileDSG@@UAE?AW4Solving_Answer@sim@@PAVSimState@3@AAVCollision@3@@Z 0041deb0 f   projectiledsg.obj
 0001:0001d830       ?PostReactToCollision@ProjectileDSG@@UAE?AW4Solving_Answer@sim@@AAVVector@RadicalMathLibrary@@AAVCollision@3@@Z 0041deb0 f   projectiledsg.obj
 0001:0001d830       ?CommitFile@radDrive@@UAE?AW4CompletionStatus@1@PAXPBD@Z 0041deb0 f   radcorexr:drive.obj
 0001:0001d840       ??_GProjectileDSG@@UAEPAXI@Z 0041dec0 f i projectiledsg.obj
 0001:0001d840       ??_EProjectileDSG@@UAEPAXI@Z 0041dec0 f i projectiledsg.obj
 0001:0001d860       ?CanRespawn@SpawnPoint@@QBE_NXZ 0041dee0 f   spawnpoint.obj
 0001:0001d870       ?HandleEvent@SpawnPoint@@UAEXW4EventEnum@@PAX@Z 0041def0 f   spawnpoint.obj
 0001:0001d8d0       ?AddBehaviour@SpawnPoint@@QAEXPAVBehaviour@@@Z 0041df50 f   spawnpoint.obj
 0001:0001d900       ?OnTrigger@SpawnPoint@@MAEXI@Z 0041df80 f   spawnpoint.obj
 0001:0001d9e0       ??0SpawnPoint@@QAE@PBD0ABVSphere@RadicalMathLibrary@@I@Z 0041e060 f   spawnpoint.obj
 0001:0001dbd0       ?GetNumTriggers@TriggerLocator@@UAEIXZ 0041e250 f i spawnpoint.obj
 0001:0001dbe0       ??_ESpawnPoint@@WDM@AEPAXI@Z 0041e260 f i spawnpoint.obj
 0001:0001dbf0       ??1SpawnPoint@@UAE@XZ      0041e270 f   spawnpoint.obj
 0001:0001dcd0       ??_ESpawnPoint@@UAEPAXI@Z  0041e350 f i spawnpoint.obj
 0001:0001dcd0       ??_GSpawnPoint@@UAEPAXI@Z  0041e350 f i spawnpoint.obj
 0001:0001dcf0       ?SetMaxFiringRange@UFOAttackBehaviour@@QAEXM@Z 0041e370 f   ufoattackbehaviour.obj
 0001:0001dd10       ?SetActorMoveSpeed@UFOAttackBehaviour@@QAEXM@Z 0041e390 f   ufoattackbehaviour.obj
 0001:0001dd10       ?SetActorMoveSpeed@AttackBehaviour@@QAEXM@Z 0041e390 f   attackbehaviour.obj
 0001:0001dd20       ?FindTarget@UFOAttackBehaviour@@IAEPAVDynaPhysDSG@@ABVVector@RadicalMathLibrary@@PBVActorDSG@@@Z 0041e3a0 f   ufoattackbehaviour.obj
 0001:0001dde0       ??1UFOAttackBehaviour@@UAE@XZ 0041e460 f   ufoattackbehaviour.obj
 0001:0001de10       ??0UFOAttackBehaviour@@QAE@M@Z 0041e490 f   ufoattackbehaviour.obj
 0001:0001dec0       ??_EUFOAttackBehaviour@@UAEPAXI@Z 0041e540 f i ufoattackbehaviour.obj
 0001:0001dec0       ??_GUFOAttackBehaviour@@UAEPAXI@Z 0041e540 f i ufoattackbehaviour.obj
 0001:0001dee0       ?Apply@UFOAttackBehaviour@@UAEXPAVActor@@I@Z 0041e560 f   ufoattackbehaviour.obj
 0001:0001e0f0       ??0UFOBeamAlwaysOn@@QAE@XZ 0041e770 f   ufobeamalwaysonbehaviour.obj
 0001:0001e110       ??1UFOBeamAlwaysOn@@UAE@XZ 0041e790 f   ufobeamalwaysonbehaviour.obj
 0001:0001e120       ??_GUFOBeamAlwaysOn@@UAEPAXI@Z 0041e7a0 f i ufobeamalwaysonbehaviour.obj
 0001:0001e120       ??_EUFOBeamAlwaysOn@@UAEPAXI@Z 0041e7a0 f i ufobeamalwaysonbehaviour.obj
 0001:0001e140       ?Apply@UFOBeamAlwaysOn@@UAEXPAVActor@@I@Z 0041e7c0 f   ufobeamalwaysonbehaviour.obj
 0001:0001e2b0       ?SetCharacterRespawnPosition@UFOBehaviour@@QAEXPAVEventLocator@@@Z 0041e930 f   ufobehaviour.obj
 0001:0001e2f0       ?WithinTractorBeamRange@UFOBehaviour@@IBE_NABVVector@RadicalMathLibrary@@PAVIEntityDSG@@@Z 0041e970 f   ufobehaviour.obj
 0001:0001e340       ?SuckIntoUFO@UFOBehaviour@@IAE_NABVVector@RadicalMathLibrary@@PAVDynaPhysDSG@@M@Z 0041e9c0 f   ufobehaviour.obj
 0001:0001e470       ?ReachedTopOfTractorBeam@UFOBehaviour@@IAE_NABVVector@RadicalMathLibrary@@PAVDynaPhysDSG@@@Z 0041eaf0 f   ufobehaviour.obj
 0001:0001e4d0       ?safe_cast@?$SafeCast@VEventLocator@@@radLoadInventory@@UAEPAUIRefCount@@PAU3@@Z 0041eb50 f i ufobehaviour.obj
 0001:0001e4f0       ??0UFOBehaviour@@QAE@XZ    0041eb70 f   ufobehaviour.obj
 0001:0001e570       ??1UFOBehaviour@@UAE@XZ    0041ebf0 f   ufobehaviour.obj
 0001:0001e5e0       ??$find@VEventLocator@@@p3d@@YAPAVEventLocator@@PAVtEntityStore@@ABVtName@@@Z 0041ec60 f i ufobehaviour.obj
 0001:0001e6b0       ??$find@VEventLocator@@@p3d@@YAPAVEventLocator@@PAVtEntityStore@@PBD@Z 0041ed30 f i ufobehaviour.obj
 0001:0001e720       ?GetTargetsInTractorRange@UFOBehaviour@@IAEXAAVVector@RadicalMathLibrary@@MPAV?$SwapArray@PAVDynaPhysDSG@@@@@Z 0041eda0 f   ufobehaviour.obj
 0001:0001e850       ??$find@VEventLocator@@@p3d@@YAPAVEventLocator@@PBD@Z 0041eed0 f i ufobehaviour.obj
 0001:0001e870       ?DestroyObject@UFOBehaviour@@IAE_NPAVDynaPhysDSG@@@Z 0041eef0 f   ufobehaviour.obj
 0001:0001ea60       ?GetFloat@tChunkFile@@QAEMXZ 0041f0e0 f i atcloader.obj
 0001:0001ea80       ?LoadObject@ATCLoader@@EAEPAVtEntity@@PAVtChunkFile@@PAVtEntityStore@@@Z 0041f100 f   atcloader.obj
 0001:0001ec00       ??0ATCLoader@@QAE@XZ       0041f280 f   atcloader.obj
 0001:0001ec20       ?GetInstance@ATCManager@@SAPAV1@XZ 0041f2a0 f   atcmanager.obj
 0001:0001ec30       ?CreateCollisionAttributes@ATCManager@@QAEPAVCollisionAttributes@@IIM@Z 0041f2b0 f   atcmanager.obj
 0001:0001ec90       ?Init@ATCManager@@QAEXXZ   0041f310 f   atcmanager.obj
 0001:0001ecc0       ?SetATCTable@ATCManager@@QAEXPAUAttributeRow@@I@Z 0041f340 f   atcmanager.obj
 0001:0001ed40       ??0ATCManager@@AAE@XZ      0041f3c0 f   atcmanager.obj
 0001:0001ed40       ??0tName@@QAE@XZ           0041f3c0 f   pure3dxr:entity.obj
 0001:0001ed40       ??0Button@@QAE@XZ          0041f3c0 f   button.obj
 0001:0001ed50       ??1ATCManager@@AAE@XZ      0041f3d0 f   atcmanager.obj
 0001:0001ed60       ?CreateInstance@ATCManager@@SAPAV1@XZ 0041f3e0 f   atcmanager.obj
 0001:0001eda0       ?DestroyInstance@ATCManager@@SAXXZ 0041f420 f   atcmanager.obj
 0001:0001edd0       ??0AnimatedCam@@QAE@XZ     0041f450 f   animatedcam.obj
 0001:0001ee00       ?GetIntTable@pddiBaseShader@@MAEPAUpddiShadeIntTable@@XZ 0041f480 f i pure3dxr:refractshader.obj
 0001:0001ee00       ?GetTotalMemoryUsed@Memory@@YAIXZ 0041f480 f i memoryutilities.obj
 0001:0001ee00       ?GetName@CharacterTarget@@UAEQBDXZ 0041f480 f i charactertarget.obj
 0001:0001ee00       ?pPosition@Character@@UAEPAVVector@RadicalMathLibrary@@XZ 0041f480 f i character.obj
 0001:0001ee00       ?GetNumSubObj@SimulatedObject@sim@@UBEHXZ 0041f480 f i simxr:physicsobject.obj
 0001:0001ee00       ?GetRig@P3DEntityStoreWrapperBank@choreo@@UBEPAVRig@2@XZ 0041f480 f i choreoxr:basebank.obj
 0001:0001ee00       ?GetChunkID@tSequencerLoader@@UAEIXZ 0041f480 f i pure3dxr:sequencer.obj
 0001:0001ee00       ?GetColourTable@pddiBaseShader@@MAEPAUpddiShadeColourTable@@XZ 0041f480 f i pure3dxr:refractshader.obj
 0001:0001ee00       ?GetNumTargets@SuperCam@@UBEIXZ 0041f480 f i animatedcam.obj
 0001:0001ee00       ?GetChunkID@tEventAnimTextLoader@@UAEIXZ 0041f480 f i pure3dxr:sequencer.obj
 0001:0001ee00       ?GetNumFaceNormals@tGeometry@@UAEHXZ 0041f480 f i pure3dxr:geometry.obj
 0001:0001ee00       ?GetStateID@NoState@CharacterAi@@UBE?AW4CharacterState@2@XZ 0041f480 f i statemanager.obj
 0001:0001ee00       ?GetDataType@EventLocator@@UBE?AW4Type@LocatorType@@XZ 0041f480 f i eventlocator.obj
 0001:0001ee00       ?CastsShadow@IEntityDSG@@UAEHXZ 0041f480 f i FenceEntityDSG.obj
 0001:0001ee00       ?GetType@SphereTriggerVolume@@UBE?AW4Type@TriggerVolume@@XZ 0041f480 f i spheretriggervolume.obj
 0001:0001ee00       ?pPosition@PathSegment@@UAEPAVVector@RadicalMathLibrary@@XZ 0041f480 f i pathsegment.obj
 0001:0001ee00       ?pPosition@ParticleSystemDSG@@UAEPAVVector@RadicalMathLibrary@@XZ 0041f480 f i particlesystemdsg.obj
 0001:0001ee00       ?GetNumTriggers@Locator@@UAEIXZ 0041f480 f i carstartlocator.obj
 0001:0001ee00       ?GetMemoryImagePtr@Builder@tImageHandler@@UAEPAXXZ 0041f480 f i pure3dxr:imagefactory.obj
 0001:0001ee00       ?GetPriority@RootBlender@choreo@@UBEHXZ 0041f480 f i choreoxr:rootblender.obj
 0001:0001ee00       ?CloneSimple@pddiShader@@UAEPAVpddiBaseShader@@XZ 0041f480 f i pure3dxr:refractshader.obj
 0001:0001ee00       ?GetTotalMemoryUnavailable@Memory@@YAIXZ 0041f480 f i memoryutilities.obj
 0001:0001ee00       ?GetPriority@RootMatrixDriver@@UBEHXZ 0041f480 f i StatePropDSG.obj
 0001:0001ee00       ?Origin@tEventOrigin@@UAEIXZ 0041f480 f i pure3dxr:sequencer.obj
 0001:0001ee00       ?GetType@CollectorCard@@UBE?AW4eCardType@@XZ 0041f480 f i collectorcard.obj
 0001:0001ee00       ?GetType@DestroyObject@ActionButton@@UAE?AW4Type@ButtonHandler@2@XZ 0041f480 f i actionbuttonhandler.obj
 0001:0001ee00       ?GetDisplayMode@d3dDisplay@@UAE?AW4pddiDisplayMode@@XZ 0041f480 f i pure3dxr:display.obj
 0001:0001ee00       ?GetPriority@RootFixupDriver@choreo@@UBEHXZ 0041f480 f i choreoxr:rootblender.obj
 0001:0001ee00       ?GetTextureTable@pddiBaseShader@@MAEPAUpddiShadeTextureTable@@XZ 0041f480 f i pure3dxr:refractshader.obj
 0001:0001ee00       ?GetFloatTable@pddiBaseShader@@MAEPAUpddiShadeFloatTable@@XZ 0041f480 f i pure3dxr:refractshader.obj
 0001:0001ee00       ?Format@radDrive@@UAE?AW4CompletionStatus@1@XZ 0041f480 f i radcorexr:drive.obj
 0001:0001ee00       ?GetPaletteMemoryImagePtr@Builder@tImageHandler@@UAEPAXXZ 0041f480 f i pure3dxr:imagefactory.obj
 0001:0001ee00       ?GetPriority@PoseDriver@poser@@UBEHXZ 0041f480 f i mouthflapper.obj
 0001:0001ee00       ?GetLargestFreeBlock@Memory@@YAIXZ 0041f480 f i memoryutilities.obj
 0001:0001ee00       ?NewRawIterator@P3DEntityStoreWrapperBank@choreo@@UAEPAVRawIterator@BaseBank@2@XZ 0041f480 f i choreoxr:basebank.obj
 0001:0001ee00       ?Lock@tImage32@@UAEPAUpddiLockInfo@@XZ 0041f480 f i pure3dxr:image.obj
 0001:0001ee00       ?GetPriority@FootBlender@choreo@@UBEHXZ 0041f480 f i choreoxr:footblender.obj
 0001:0001ee00       ?GetFreeTextureMem@d3dDisplay@@UAEIXZ 0041f480 f i pure3dxr:display.obj
 0001:0001ee00       ?GetPriority@JointBlender@choreo@@UBEHXZ 0041f480 f i choreoxr:jointblender.obj
 0001:0001ee00       ?HasMenu@CGuiWindow@@UAEPAVCGuiMenu@@XZ 0041f480 f i guiwindow.obj
 0001:0001ee00       ?GetType@GenericEventButtonHandler@ActionButton@@UAE?AW4Type@ButtonHandler@2@XZ 0041f480 f i actionbuttonhandler.obj
 0001:0001ee00       ?GetMinimumJointIndex@RootMatrixDriver@@UBEHXZ 0041f480 f i StatePropDSG.obj
 0001:0001ee00       ?GetMinimumJointIndex@PoseDriver@poser@@UBEHXZ 0041f480 f i mouthflapper.obj
 0001:0001ee00       ?GetVectorTable@pddiBaseShader@@MAEPAUpddiShadeVectorTable@@XZ 0041f480 f i pure3dxr:refractshader.obj
 0001:0001ee00       ?GetPriority@ReplayBlender@choreo@@UBEHXZ 0041f480 f i choreoxr:replayblender.obj
 0001:0001ee00       ?pPosition@InstStatEntityDSG@@UAEPAVVector@RadicalMathLibrary@@XZ 0041f480 f i InstStatEntityDSG.obj
 0001:0001ee00       ?Lock@tImage8@@UAEPAUpddiLockInfo@@XZ 0041f480 f i pure3dxr:image.obj
 0001:0001ee00       ?GetWorldMatrix@DrawablePoseElement@tCompositeDrawable@@UAEPBVMatrix@RadicalMathLibrary@@XZ 0041f480 f i pure3dxr:compositedrawable.obj
 0001:0001ee00       ?HasMenu@CGuiScreen@@UAEPAVCGuiMenu@@XZ 0041f480 f i guiscreen.obj
 0001:0001ee00       ?GetConversationName@DialogSelectionGroup@@UAEIXZ 0041f480 f i dialogselectiongroup.obj
 0001:0001ee00       ?pPosition@LensFlareDSG@@UAEPAVVector@RadicalMathLibrary@@XZ 0041f480 f i LensFlareDSG.obj
 0001:0001ee00       ?Clone@tMultiController@@UAEPAVtFrameController@@XZ 0041f480 f i pure3dxr:multicontroller.obj
 0001:0001ee00       ?GetNumChildren@Leaf@Scenegraph@@UAEIXZ 0041f480 f i pure3dxr:scenegraph.obj
 0001:0001ee00       ?pPosition@WorldSphereDSG@@UAEPAVVector@RadicalMathLibrary@@XZ 0041f480 f i WorldSphereDSG.obj
 0001:0001ee00       ?GetMatrixTable@pddiBaseShader@@MAEPAUpddiShadeMatrixTable@@XZ 0041f480 f i pure3dxr:refractshader.obj
 0001:0001ee00       ?GetUserData@PresentationEvent@@MAEPAXXZ 0041f480 f i presentation.obj
 0001:0001ee00       ?GetFaceNormals@tGeometry@@UAEPAVVector@RadicalMathLibrary@@XZ 0041f480 f i pure3dxr:geometry.obj
 0001:0001ee00       ?GetFreeVideoMem@d3dDisplay@@UAEIXZ 0041f480 f i pure3dxr:display.obj
 0001:0001ee10       ?OnButton@CharacterMappable@@UAEXHHPBVButton@@@Z 0041f490 f i charactermappable.obj
 0001:0001ee10       ?UpdateDeformation@PhysicsJoint0D@sim@@MAEXMMM@Z 0041f490 f i simxr:physicsjoint.obj
 0001:0001ee10       ?OnButton@CheatInputHandler@@UAEXHHPBVButton@@@Z 0041f490 f i cheatinputhandler.obj
 0001:0001ee10       ?OnButton@SuperSprintManager@@UAEXHHPBVButton@@@Z 0041f490 f i supersprintmanager.obj
 0001:0001ee10       ?OnButton@VehicleMappable@@UAEXHHPBVButton@@@Z 0041f490 f i vehiclemappable.obj
 0001:0001ee10       ?OnButtonDown@CharacterMappable@@UAEXHHPBVButton@@@Z 0041f490 f i charactermappable.obj
 0001:0001ee10       ?VelocityProjection@PhysicsJoint0D@sim@@MBEXABVVector@RadicalMathLibrary@@MAAV34@@Z 0041f490 f i simxr:physicsjoint.obj
 0001:0001ee10       ?SetCompressedData@Builder@tImageHandler@@UAEXHPADH@Z 0041f490 f i pure3dxr:imagefactory.obj
 0001:0001ee10       ?GetMemoryObjectAligned@TrackingHeap@@UAEXPAPAUIRadMemoryObject@@II@Z 0041f490 f i radcorexr:trackingheap.obj
 0001:0001ee10       ?OnButtonUp@CharacterMappable@@UAEXHHPBVButton@@@Z 0041f490 f i charactermappable.obj
 0001:0001ee10       ?OnButtonUp@VehicleMappable@@UAEXHHPBVButton@@@Z 0041f490 f i vehiclemappable.obj
 0001:0001ee10       ?SetCompressedData@pddiTexture@@UAEXHQBDH@Z 0041f490 f i pure3dxr:texture.obj
 0001:0001ee10       ?OnButton@FMVUserInputHandler@@UAEXHHPBVButton@@@Z 0041f490 f i fmvuserinputhandler.obj
 0001:0001ee10       ?SetCompressedData@TextureBuilder@@UAEXHPADH@Z 0041f490 f i pure3dxr:imagefactory.obj
 0001:0001ee10       ?GetMemoryObjectAligned@radMemoryDlAllocator@@UAEXPAPAUIRadMemoryObject@@II@Z 0041f490 f i radcorexr:dlheap.obj
 0001:0001ee10       ?OnButtonUp@SuperCamController@@UAEXHHPBVButton@@@Z 0041f490 f i supercamcontroller.obj
 0001:0001ee10       ?SetCollisionOffset@SuperCam@@UAEXPBVVector@RadicalMathLibrary@@IABV23@@Z 0041f490 f i animatedcam.obj
 0001:0001ee10       ?OnButton@SuperCamController@@UAEXHHPBVButton@@@Z 0041f490 f i supercamcontroller.obj
 0001:0001ee10       ?OnButtonUp@FMVUserInputHandler@@UAEXHHPBVButton@@@Z 0041f490 f i fmvuserinputhandler.obj
 0001:0001ee10       ?GetMemoryObjectAligned@StaticHeap@@UAEXPAPAUIRadMemoryObject@@II@Z 0041f490 f i radcorexr:staticheap.obj
 0001:0001ee10       ?CompareNormalAndHeight@TrafficLocomotion@@UAEXHAAVVector@RadicalMathLibrary@@0@Z 0041f490 f i trafficlocomotion.obj
 0001:0001ee20       ?GetCollisionRadius@SuperCam@@UBEMXZ 0041f4a0 f i animatedcam.obj
 0001:0001ee30       ?GetRootGroundFixup@LocomotionRootDriver@choreo@@UBEMXZ 0041f4b0 f i choreoxr:locomotion.obj
 0001:0001ee30       ?GetFootGroundFixup@BlendFootDriver@choreo@@UBEMXZ 0041f4b0 f i choreoxr:blend.obj
 0001:0001ee30       ?GetTargetSpeedModifier@SuperCam@@MAEMXZ 0041f4b0 f i animatedcam.obj
 0001:0001ee30       ?GetInputScale@NPCharacter@@MAEMXZ 0041f4b0 f i character.obj
 0001:0001ee30       ?GetIntersectionRadius@SuperCam@@UBEMXZ 0041f4b0 f i animatedcam.obj
 0001:0001ee30       ?InvMass@SimulatedObject@sim@@UBEMXZ 0041f4b0 f i simxr:simulatedobject.obj
 0001:0001ee40       ?CanSave@tTargaHandler@@UAE_NXZ 0041f4c0 f i xboxplatform.obj
 0001:0001ee40       ?ValidateHeap@radMemoryDlAllocator@@UAE_NXZ 0041f4c0 f i radcorexr:dlheap.obj
 0001:0001ee40       ?IsCaptured@MusicSoundPlayer@Sound@@UAE_NXZ 0041f4c0 f i musicsoundplayer.obj
 0001:0001ee40       ?IsClose@FollowCondition@@UAE_NXZ 0041f4c0 f i followcondition.obj
 0001:0001ee40       ?HasRootGroundFixup@RootTransformController@choreo@@UBE_NXZ 0041f4c0 f i choreoxr:root.obj
 0001:0001ee40       ?ValidateHeap@TrackingHeap@@UAE_NXZ 0041f4c0 f i radcorexr:trackingheap.obj
 0001:0001ee40       ?ShouldRespawn@RespawnCollectible@ActionButton@@MBE_NXZ 0041f4c0 f i actionbuttonhandler.obj
 0001:0001ee40       ?CanLoad@tPNGHandler@@UAE_NXZ 0041f4c0 f i xboxplatform.obj
 0001:0001ee40       ?RequiresPushTransforForDisplay@SimState@sim@@UBE_NXZ 0041f4c0 f i simxr:simstate.obj
 0001:0001ee40       ?IsVertexShader@d3dSpheremapVertexShader@@UAE_NXZ 0041f4c0 f i pure3dxr:spheremapshader.obj
 0001:0001ee40       ?GetIsCyclic@AutoPlayAnimLoop@ActionButton@@MBE_NXZ 0041f4c0 f i actionbuttonhandler.obj
 0001:0001ee40       ?ValidateHeap@StaticHeap@@UAE_NXZ 0041f4c0 f i radcorexr:staticheap.obj
 0001:0001ee40       ?HasRootRotation@LocomotionRootDriver@choreo@@UBE_NXZ 0041f4c0 f i choreoxr:locomotion.obj
 0001:0001ee40       ?IsChaseCondition@RaceCondition@@UAE_NXZ 0041f4c0 f i racecondition.obj
 0001:0001ee40       ?IsClose@MissionCondition@@UAE_NXZ 0041f4c0 f i missioncondition.obj
 0001:0001ee40       ?CanLoad@tBMPHandler@@UAE_NXZ 0041f4c0 f i xboxplatform.obj
 0001:0001ee40       ?IsCar@Vehicle@@UBE_NXZ    0041f4c0 f i vehicle.obj
 0001:0001ee40       ?HasFootPlanted@BlendFootDriver@choreo@@UBE_NXZ 0041f4c0 f i choreoxr:blend.obj
 0001:0001ee40       ?IsSundayDrive@SuperSprintManager@@UAE_NXZ 0041f4c0 f i supersprintmanager.obj
 0001:0001ee40       ?UsesActionButton@PurchaseCar@ActionButton@@UBE_NXZ 0041f4c0 f i actionbuttonhandler.obj
 0001:0001ee40       ?ValidateHeap@ExternalMemoryHeap@@UAE_NXZ 0041f4c0 f i radcorexr:externalmemoryheap.obj
 0001:0001ee40       ?HasRootGroundFixup@LocomotionRootDriver@choreo@@UBE_NXZ 0041f4c0 f i choreoxr:locomotion.obj
 0001:0001ee40       ?IsValid@FeTextChildHardCodedString@@UAE_NXZ 0041f4c0 f i ScroobyLib:FeText.obj
 0001:0001ee40       ?IsInstanceEnabled@ButtonHandler@ActionButton@@UBE_NXZ 0041f4c0 f i actionbuttonhandler.obj
 0001:0001ee40       ?HasRootTranslation@RootTransformController@choreo@@UBE_NXZ 0041f4c0 f i choreoxr:root.obj
 0001:0001ee40       ?IsDone@MemorySpaceAsyncRequest_Copy@@UAE_NXZ 0041f4c0 f i radcorexr:memoryspacewin32.obj
 0001:0001ee40       ?IsVertexShader@d3dToon2VertexShader@@UAE_NXZ 0041f4c0 f i pure3dxr:toon2vertexshader.obj
 0001:0001ee40       ?IsClose@DamageCondition@@UAE_NXZ 0041f4c0 f i damagecondition.obj
 0001:0001ee40       ?CanSwitch@SuperCam@@MAE_NXZ 0041f4c0 f i animatedcam.obj
 0001:0001ee40       ?CanLoad@tDXTNHandler@@UAE_NXZ 0041f4c0 f i pure3dxr:imagefactory.obj
 0001:0001ee40       ?MovesDrawable@Translator@GuiSFX@@UBE_NXZ 0041f4c0 f i transitions.obj
 0001:0001ee40       ?IsDrawable@FeDrawable@@UAE_NXZ 0041f4c0 f i ScroobyLib:FeScreen.obj
 0001:0001ee40       ?NeedsUpdate@SummonVehiclePhone@ActionButton@@MBE_NXZ 0041f4c0 f i actionbuttonhandler.obj
 0001:0001ee40       ?IsPage@FePage@@UBE_NXZ    0041f4c0 f i ScroobyLib:FePage.obj
 0001:0001ee40       ?IsSuperSprint@SuperSprintManager@@UAE_NXZ 0041f4c0 f i supersprintmanager.obj
 0001:0001ee40       ?MovesDrawable@UnderdampedTranslator@GuiSFX@@UBE_NXZ 0041f4c0 f i transitions.obj
 0001:0001ee40       ?NeedsUpdate@Collectible@ActionButton@@MBE_NXZ 0041f4c0 f i actionbuttonhandler.obj
 0001:0001ee40       ?HasRootTranslation@LocomotionRootDriver@choreo@@UBE_NXZ 0041f4c0 f i choreoxr:locomotion.obj
 0001:0001ee40       ?IsSlave@SlaveAction@@UBE_NXZ 0041f4c0 f i action.obj
 0001:0001ee40       ?IsOwner@FeOwner@@UBE_NXZ  0041f4c0 f i ScroobyLib:FeOwner.obj
 0001:0001ee40       ?HasFootGroundFixup@BlendFootDriver@choreo@@UBE_NXZ 0041f4c0 f i choreoxr:blend.obj
 0001:0001ee40       ?IsVertexShader@d3dBumpMapVertexShader@@UAE_NXZ 0041f4c0 f i pure3dxr:bumpmapvertexshader.obj
 0001:0001ee40       ?IsVertexShader@d3dToonVertexShader@@UAE_NXZ 0041f4c0 f i pure3dxr:toonvertexshader.obj
 0001:0001ee40       ?UsesActionButton@PurchaseSkin@ActionButton@@UBE_NXZ 0041f4c0 f i actionbuttonhandler.obj
 0001:0001ee40       ?UsesActionButton@ButtonHandler@ActionButton@@UBE_NXZ 0041f4c0 f i actionbuttonhandler.obj
 0001:0001ee40       ?HasRootRotation@RootTransformController@choreo@@UBE_NXZ 0041f4c0 f i choreoxr:root.obj
 0001:0001ee40       ?DeformationEmpty@PhysicsJoint0D@sim@@UBE_NXZ 0041f4c0 f i simxr:physicsjoint.obj
 0001:0001ee40       ?CanLoad@tRawImageHandler@@UAE_NXZ 0041f4c0 f i pure3dxr:imagefactory.obj
 0001:0001ee40       ?HasAlpha@StatePropDSG@@UBE_NXZ 0041f4c0 f i actordsg.obj
 0001:0001ee40       ?CanLoad@tTargaHandler@@UAE_NXZ 0041f4c0 f i xboxplatform.obj
 0001:0001ee40       ?IsVertexShader@d3dRefractVertexShader@@UAE_NXZ 0041f4c0 f i pure3dxr:refractshader.obj
 0001:0001ee40       ?IsChaseCondition@FollowCondition@@UAE_NXZ 0041f4c0 f i followcondition.obj
 0001:0001ee40       ?MovesDrawable@PulseScale@GuiSFX@@UBE_NXZ 0041f4c0 f i transitions.obj
 0001:0001ee40       ?NeedsUpdate@PurchaseReward@ActionButton@@MBE_NXZ 0041f4c0 f i actionbuttonhandler.obj
 0001:0001ee50       ?EnableShake@SuperCam@@UAEXXZ 0041f4d0 f i animatedcam.obj
 0001:0001ee70       ?LookBack@SuperCam@@UAEX_N@Z 0041f4f0 f i animatedcam.obj
 0001:0001ee90       ?DoFirstTime@SuperCam@@UAEXXZ 0041f510 f i animatedcam.obj
 0001:0001eea0       ?DoCameraCut@SuperCam@@UAEXXZ 0041f520 f i animatedcam.obj
 0001:0001eeb0       ?AllowSkipping@AnimatedCam@@SAX_N@Z 0041f530 f   animatedcam.obj
 0001:0001eec0       ?CameraSwitchPending@AnimatedCam@@KA_NXZ 0041f540 f   animatedcam.obj
 0001:0001eed0       ?ClearCamera@AnimatedCam@@SAXXZ 0041f550 f   animatedcam.obj
 0001:0001eee0       ?GetName@AnimatedCam@@UBEQBDXZ 0041f560 f   animatedcam.obj
 0001:0001eef0       ?GetType@AnimatedCam@@UAE?AW4Type@SuperCam@@XZ 0041f570 f   animatedcam.obj
 0001:0001ef00       ?LetterBoxStart@AnimatedCam@@MAEXXZ 0041f580 f   animatedcam.obj
 0001:0001ef60       ?LetterBoxStop@AnimatedCam@@MAEXXZ 0041f5e0 f   animatedcam.obj
 0001:0001ef90       ?OnInit@AnimatedCam@@UAEXXZ 0041f610 f   animatedcam.obj
 0001:0001efc0       ?OnShutdown@AnimatedCam@@UAEXXZ 0041f640 f   animatedcam.obj
 0001:0001f000       ?Reset@AnimatedCam@@SAXXZ  0041f680 f   animatedcam.obj
 0001:0001f020       ?SetMissionStartCamera@AnimatedCam@@SAXVtName@@@Z 0041f6a0 f   animatedcam.obj
 0001:0001f070       ?SetMissionStartMulticontroller@AnimatedCam@@SAXVtName@@@Z 0041f6f0 f   animatedcam.obj
 0001:0001f0c0       ?SetTarget@ReverseCam@@UAEXPAVISuperCamTarget@@@Z 0041f740 f   reversecam.obj
 0001:0001f0c0       ?SetTarget@RailCam@@UAEXPAVISuperCamTarget@@@Z 0041f740 f   railcam.obj
 0001:0001f0c0       ?SetPeeloutMin@globalSettings@@UAEXM@Z 0041f740 f   globalsettings.obj
 0001:0001f0c0       ?SetTarget@TrackerCam@@UAEXPAVISuperCamTarget@@@Z 0041f740 f   trackercam.obj
 0001:0001f0c0       ?SetTarget@StaticCam@@UAEXPAVISuperCamTarget@@@Z 0041f740 f   staticcam.obj
 0001:0001f0c0       ?SetTarget@ChaseCam@@UAEXPAVISuperCamTarget@@@Z 0041f740 f   chasecam.obj
 0001:0001f0c0       ?SetNextCameraType@AnimatedCam@@QAEXW4Type@SuperCam@@@Z 0041f740 f   animatedcam.obj
 0001:0001f0d0       ?Skip@AnimatedCam@@SAXXZ   0041f750 f   animatedcam.obj
 0001:0001f100       ?SetCameraSwitchPending@AnimatedCam@@KAX_N@Z 0041f780 f   animatedcam.obj
 0001:0001f110       ?SetCameraTransitionFlags@AnimatedCam@@SAXH@Z 0041f790 f   animatedcam.obj
 0001:0001f120       ?SupressNextLetterbox@AnimatedCam@@SAXXZ 0041f7a0 f   animatedcam.obj
 0001:0001f130       ??1AnimatedCam@@UAE@XZ     0041f7b0 f   animatedcam.obj
 0001:0001f1f0       ?SetCamera@AnimatedCam@@SAXVtName@@@Z 0041f870 f   animatedcam.obj
 0001:0001f280       ?SetMulticontroller@AnimatedCam@@SAXVtName@@@Z 0041f900 f   animatedcam.obj
 0001:0001f310       ?TriggerMissionStartCamera@AnimatedCam@@SAXXZ 0041f990 f   animatedcam.obj
 0001:0001f3e0       ?Update@AnimatedCam@@UAEXI@Z 0041fa60 f   animatedcam.obj
 0001:0001f5f0       ?safe_cast@?$SafeCast@VtCamera@@@radLoadInventory@@UAEPAUIRefCount@@PAU3@@Z 0041fc70 f i animatedcam.obj
 0001:0001f610       ?safe_cast@?$SafeCast@VtMultiController@@@radLoadInventory@@UAEPAUIRefCount@@PAU3@@Z 0041fc90 f i animatedcam.obj
 0001:0001f630       ??_GAnimatedCam@@UAEPAXI@Z 0041fcb0 f i animatedcam.obj
 0001:0001f630       ??_EAnimatedCam@@UAEPAXI@Z 0041fcb0 f i animatedcam.obj
 0001:0001f650       ??$find@VtCamera@@@p3d@@YAPAVtCamera@@PAVtEntityStore@@ABVtName@@@Z 0041fcd0 f i animatedcam.obj
 0001:0001f720       ??$find@VtMultiController@@@p3d@@YAPAVtMultiController@@PAVtEntityStore@@ABVtName@@@Z 0041fda0 f i animatedcam.obj
 0001:0001f7f0       ??$find@VtCamera@@@p3d@@YAPAVtCamera@@VtUidUnaligned@@@Z 0041fe70 f i animatedcam.obj
 0001:0001f870       ??$find@VtMultiController@@@p3d@@YAPAVtMultiController@@VtUidUnaligned@@@Z 0041fef0 f i animatedcam.obj
 0001:0001f8f0       ?LookupCamera@AnimatedCam@@KAXXZ 0041ff70 f   animatedcam.obj
 0001:0001f970       ?LookupMulticontroller@AnimatedCam@@KAXXZ 0041fff0 f   animatedcam.obj
 0001:0001f9f0       ?CheckPendingCameraSwitch@AnimatedCam@@SAXXZ 00420070 f   animatedcam.obj
 0001:0001fa50       ??_GBumperCamData@@UAEPAXI@Z 004200d0 f i bumpercam.obj
 0001:0001fa50       ??_EBumperCamData@@UAEPAXI@Z 004200d0 f i bumpercam.obj
 0001:0001fa70       ??1BumperCam@@UAE@XZ       004200f0 f   bumpercam.obj
 0001:0001fa90       ?GetName@BumperCam@@UBEQBDXZ 00420110 f i bumpercam.obj
 0001:0001faa0       ?GetStateID@GetOut@CharacterAi@@UBE?AW4CharacterState@2@XZ 00420120 f i state.obj
 0001:0001faa0       ?GetDataType@SplineLocator@@UBE?AW4Type@LocatorType@@XZ 00420120 f i splinelocator.obj
 0001:0001faa0       ?GetType@AnimSwitch@ActionButton@@UAE?AW4Type@ButtonHandler@2@XZ 00420120 f i actionbuttonhandler.obj
 0001:0001faa0       ?GetType@BumperCam@@UAE?AW4Type@SuperCam@@XZ 00420120 f i bumpercam.obj
 0001:0001faa0       ?GetAIRef@FenceEntityDSG@@UAEHXZ 00420120 f i FenceEntityDSG.obj
 0001:0001fab0       ?SetTarget@BumperCam@@UAEXPAVISuperCamTarget@@@Z 00420130 f i bumpercam.obj
 0001:0001fac0       ?GetNumTargets@BumperCam@@UBEIXZ 00420140 f i bumpercam.obj
 0001:0001fad0       ?Update@BumperCam@@UAEXI@Z 00420150 f   bumpercam.obj
 0001:0001fdb0       ?UpdateForPhysics@BumperCam@@UAEXI@Z 00420430 f   bumpercam.obj
 0001:0001fe50       ?SetCollisionOffset@BumperCam@@UAEXPBVVector@RadicalMathLibrary@@IABV23@@Z 004204d0 f   bumpercam.obj
 0001:0001fe60       ??0BumperCam@@QAE@XZ       004204e0 f   bumpercam.obj
 0001:0001ff00       ??_GBumperCam@@UAEPAXI@Z   00420580 f i bumpercam.obj
 0001:0001ff00       ??_EBumperCam@@UAEPAXI@Z   00420580 f i bumpercam.obj
 0001:0001ff20       ?MotionCubic@SuperCam@@IBEXPAM0MM@Z 004205a0 f i chasecam.obj
 0001:0001ff90       ??_GChaseCamData@@UAEPAXI@Z 00420610 f i chasecam.obj
 0001:0001ff90       ??_EChaseCamData@@UAEPAXI@Z 00420610 f i chasecam.obj
 0001:0001ffb0       ??1ChaseCam@@UAE@XZ        00420630 f   chasecam.obj
 0001:0001ffd0       ?GetName@ChaseCam@@UBEQBDXZ 00420650 f i chasecam.obj
 0001:0001ffe0       ??0ChaseCam@@QAE@XZ        00420660 f   chasecam.obj
 0001:000200b0       ??_EChaseCam@@UAEPAXI@Z    00420730 f i chasecam.obj
 0001:000200b0       ??_GChaseCam@@UAEPAXI@Z    00420730 f i chasecam.obj
 0001:000200d0       ?Update@ChaseCam@@UAEXI@Z  00420750 f   chasecam.obj
 0001:000203f0       ?DoCameraCut@ChaseCam@@EAEXXZ 00420a70 f   chasecam.obj
 0001:000204d0       ??1ConversationCamData@@UAE@XZ 00420b50 f i conversationcam.obj
 0001:000204e0       ??_EConversationCamData@@UAEPAXI@Z 00420b60 f i conversationcam.obj
 0001:000204e0       ??_GConversationCamData@@UAEPAXI@Z 00420b60 f i conversationcam.obj
 0001:00020500       ?Update@ConversationCam@@UAEXI@Z 00420b80 f   conversationcam.obj
 0001:00020f90       ?LockCharacterPositions@ConversationCam@@QAEXXZ 00421610 f   conversationcam.obj
 0001:00020fc0       ?GetNumTargets@ConversationCam@@UBEIXZ 00421640 f   conversationcam.obj
 0001:00021170       ?SetCameraByIndex@ConversationCam@@CAXI@Z 004217f0 f   conversationcam.obj
 0001:00021260       ?SetCameraDistanceByIndex@ConversationCam@@CAXIM@Z 004218e0 f   conversationcam.obj
 0001:00021270       ?SetCharacter@ConversationCam@@QAEXHPAVCharacter@@@Z 004218f0 f   conversationcam.obj
 0001:00021290       ?SetNpcIsChild@ConversationCam@@SAX_N@Z 00421910 f   conversationcam.obj
 0001:000212a0       ?SetPcIsChild@ConversationCam@@SAX_N@Z 00421920 f   conversationcam.obj
 0001:000212b0       ?UsePcCam@ConversationCam@@SAXXZ 00421930 f   conversationcam.obj
 0001:000212c0       ?UseNpcCam@ConversationCam@@SAXXZ 00421940 f   conversationcam.obj
 0001:000212d0       ?OnInit@ConversationCam@@UAEXXZ 00421950 f   conversationcam.obj
 0001:000212e0       ?OnShutdown@ConversationCam@@UAEXXZ 00421960 f   conversationcam.obj
 0001:00021350       ??$find@PAVtName@@V1@@std@@YAPAVtName@@PAV1@0ABV1@@Z 004219d0 f i conversationcam.obj
 0001:00021390       ??0ConversationCam@@QAE@XZ 00421a10 f   conversationcam.obj
 0001:00021470       ?GetName@ConversationCam@@UBEQBDXZ 00421af0 f i conversationcam.obj
 0001:00021480       ?GetType@ConversationCam@@UAE?AW4Type@SuperCam@@XZ 00421b00 f i conversationcam.obj
 0001:00021490       ??1ConversationCam@@UAE@XZ 00421b10 f   conversationcam.obj
 0001:00021540       ?SetCameraByName@ConversationCam@@SAXABVtName@@@Z 00421bc0 f   conversationcam.obj
 0001:00021560       ?SetCameraDistanceByName@ConversationCam@@SAXABVtName@@M@Z 00421be0 f   conversationcam.obj
 0001:00021580       ?SetPcCameraByName@ConversationCam@@SAXABVtName@@@Z 00421c00 f   conversationcam.obj
 0001:000215a0       ?SetNpcCameraByName@ConversationCam@@SAXABVtName@@@Z 00421c20 f   conversationcam.obj
 0001:000215c0       ??_GConversationCam@@UAEPAXI@Z 00421c40 f i conversationcam.obj
 0001:000215c0       ??_EConversationCam@@UAEPAXI@Z 00421c40 f i conversationcam.obj
 0001:000215e0       ??$find@VLocator@@@p3d@@YAPAVLocator@@VtUidUnaligned@@@Z 00421c60 f i conversationcam.obj
 0001:00021660       ?SetCamBestSide@ConversationCam@@SAXABVtName@@@Z 00421ce0 f   conversationcam.obj
 0001:00021690       ??0DebugCam@@QAE@XZ        00421d10 f   debugcam.obj
 0001:000216f0       ?GetName@DebugCam@@UBEQBDXZ 00421d70 f i debugcam.obj
 0001:00021700       ??1DebugCam@@UAE@XZ        00421d80 f   debugcam.obj
 0001:00021710       ?Update@DebugCam@@UAEXI@Z  00421d90 f   debugcam.obj
 0001:00021980       ??_EDebugCam@@UAEPAXI@Z    00422000 f i debugcam.obj
 0001:00021980       ??_GDebugCam@@UAEPAXI@Z    00422000 f i debugcam.obj
 0001:000219a0       ??_GFollowCamData@@UAEPAXI@Z 00422020 f i followcam.obj
 0001:000219a0       ??_EFollowCamData@@UAEPAXI@Z 00422020 f i followcam.obj
 0001:000219c0       ??1FollowCam@@UAE@XZ       00422040 f   followcam.obj
 0001:000219e0       ?GetCollisionRadius@FollowCam@@UBEMXZ 00422060 f i followcam.obj
 0001:000219f0       ?GetName@FollowCam@@UBEQBDXZ 00422070 f i followcam.obj
 0001:00021a10       ?GetType@FollowCam@@UAE?AW4Type@SuperCam@@XZ 00422090 f i followcam.obj
 0001:00021a20       ?SetCollisionOffset@FollowCam@@UAEXPBVVector@RadicalMathLibrary@@IABV23@@Z 004220a0 f i followcam.obj
 0001:00021a60       ?OnInit@FollowCam@@MAEXXZ  004220e0 f i followcam.obj
 0001:00021a80       ?UpdateForPhysics@FollowCam@@UAEXI@Z 00422100 f   followcam.obj
 0001:00021dd0       ?CopyToData@FollowCam@@QAEXXZ 00422450 f   followcam.obj
 0001:00021de0       ?AddTarget@FollowCam@@UAEXPAVISuperCamTarget@@@Z 00422460 f   followcam.obj
 0001:00021de0       ?AddTarget@WrecklessCam@@UAEXPAVISuperCamTarget@@@Z 00422460 f   wrecklesscam.obj
 0001:00021e00       ?EnableShake@DebugCam@@UAEXXZ 00422480 f   debugcam.obj
 0001:00021e00       ?EnableShake@ReverseCam@@UAEXXZ 00422480 f   reversecam.obj
 0001:00021e00       ?EnableShake@FollowCam@@UAEXXZ 00422480 f   followcam.obj
 0001:00021e30       ?ShouldReverse@FollowCam@@QBE_NXZ 004224b0 f   followcam.obj
 0001:00021ec0       ?InitUnstable@FollowCam@@AAEXXZ 00422540 f   followcam.obj
 0001:00021f60       ?InitQuickTurn@FollowCam@@AAEXXZ 004225e0 f   followcam.obj
 0001:00021f70       ?UpdateQuickTurn@FollowCam@@AAEXI@Z 004225f0 f   followcam.obj
 0001:00021fa0       ?GetTargetPosition@FollowCam@@AAEXPAVVector@RadicalMathLibrary@@_N@Z 00422620 f   followcam.obj
 0001:000220b0       ?CalculateTarget@FollowCam@@AAEXPAVVector@RadicalMathLibrary@@IM@Z 00422730 f   followcam.obj
 0001:000221e0       ?GetDesiredRod@FollowCam@@AAE_NPAVVector@RadicalMathLibrary@@@Z 00422860 f   followcam.obj
 0001:00022250       ??0FollowCamData@@QAE@XZ   004228d0 f i followcam.obj
 0001:000222d0       ??0FollowCam@@QAE@W4FollowType@0@@Z 00422950 f   followcam.obj
 0001:000223c0       ??_EFollowCam@@UAEPAXI@Z   00422a40 f i followcam.obj
 0001:000223c0       ??_GFollowCam@@UAEPAXI@Z   00422a40 f i followcam.obj
 0001:000223e0       ?DoCameraCut@FollowCam@@EAEXXZ 00422a60 f   followcam.obj
 0001:000224e0       ?UpdateUnstable@FollowCam@@AAEXI@Z 00422b60 f   followcam.obj
 0001:00022570       ?IsPushingStick@FollowCam@@AAE_NXZ 00422bf0 f   followcam.obj
 0001:00022620       ?CalculateRod@FollowCam@@AAEXPAVVector@RadicalMathLibrary@@IM@Z 00422ca0 f   followcam.obj
 0001:00022a30       ??0?$Iterator@VFollowCamDataChunk@@@tInventory@@QAE@XZ 004230b0 f i followcam.obj
 0001:00022ac0       ?Next@?$Iterator@VFollowCamDataChunk@@@tInventory@@QAEPAVFollowCamDataChunk@@XZ 00423140 f i followcam.obj
 0001:00022b00       ?Update@FollowCam@@UAEXI@Z 00423180 f   followcam.obj
 0001:00022e20       ?SetTarget@FollowCam@@UAEXPAVISuperCamTarget@@@Z 004234a0 f   followcam.obj
 0001:00023010       ??0KullCam@@QAE@XZ         00423690 f   kullcam.obj
 0001:00023090       ?GetName@KullCam@@UBEQBDXZ 00423710 f i kullcam.obj
 0001:000230a0       ?GetNumTargets@KullCam@@UBEIXZ 00423720 f i kullcam.obj
 0001:000230b0       ??1KullCam@@UAE@XZ         00423730 f   kullcam.obj
 0001:000230c0       ??_GKullCam@@UAEPAXI@Z     00423740 f i kullcam.obj
 0001:000230c0       ??_EKullCam@@UAEPAXI@Z     00423740 f i kullcam.obj
 0001:000230e0       ?Update@KullCam@@UAEXI@Z   00423760 f   kullcam.obj
 0001:00023330       ?FilterFov@SuperCam@@IAEXMMMAAM0MMM@Z 004239b0 f i railcam.obj
 0001:000233c0       ?Interpolate@Vector@RadicalMathLibrary@@QAEXABV12@0M@Z 00423a40 f i railcam.obj
 0001:00023410       ??1RailCam@@UAE@XZ         00423a90 f   railcam.obj
 0001:00023480       ?GetName@RailCam@@UBEQBDXZ 00423b00 f i railcam.obj
 0001:00023490       ?OnInit@RailCam@@MAEXXZ    00423b10 f   railcam.obj
 0001:000234e0       ?OnShutdown@RailCam@@MAEXXZ 00423b60 f   railcam.obj
 0001:000234f0       ?GetTargetPosition@RailCam@@AAEXPAVVector@RadicalMathLibrary@@_N@Z 00423b70 f   railcam.obj
 0001:00023510       ?IntervalClamp@RailCam@@ABE?AW4SolutionType@1@AAM@Z 00423b90 f   railcam.obj
 0001:00023560       ?ProjectPointOnLine@RailCam@@ABEAAMABVVector@RadicalMathLibrary@@00AAM@Z 00423be0 f   railcam.obj
 0001:000235f0       ?IntersectLineCylinder@RailCam@@AAE?AW4SolutionType@1@HABVVector@RadicalMathLibrary@@M0AAM@Z 00423c70 f   railcam.obj
 0001:000239a0       ?FinalizeRailPosition@RailCam@@AAE?AVVector@RadicalMathLibrary@@W4SolutionType@1@@Z 00424020 f   railcam.obj
 0001:00023b40       ?TestEval@RailCam@@AAE?AVVector@RadicalMathLibrary@@M@Z 004241c0 f   railcam.obj
 0001:00023e20       ??0RailCam@@QAE@XZ         004244a0 f   railcam.obj
 0001:00023f80       ??_ERailCam@@UAEPAXI@Z     00424600 f i railcam.obj
 0001:00023f80       ??_GRailCam@@UAEPAXI@Z     00424600 f i railcam.obj
 0001:00023fa0       ?FindCameraPosition_Distance@RailCam@@AAE?AVVector@RadicalMathLibrary@@ABV23@M@Z 00424620 f   railcam.obj
 0001:00024280       ?FindCameraPosition_Projection@RailCam@@AAE?AVVector@RadicalMathLibrary@@ABV23@M@Z 00424900 f   railcam.obj
 0001:00024630       ?FindCameraLookAt@RailCam@@AAE?AVVector@RadicalMathLibrary@@ABV23@0@Z 00424cb0 f   railcam.obj
 0001:00024800       ?Update@RailCam@@UAEXI@Z   00424e80 f   railcam.obj
 0001:00024bc0       ??0RelativeAnimatedCam@@QAE@XZ 00425240 f   relativeanimatedcam.obj
 0001:00024c20       ?CheckPendingCameraSwitch@RelativeAnimatedCam@@SAXXZ 004252a0 f   relativeanimatedcam.obj
 0001:00024c90       ?GetName@RelativeAnimatedCam@@UBEQBDXZ 00425310 f   relativeanimatedcam.obj
 0001:00024ca0       ?GetType@RelativeAnimatedCam@@UAE?AW4Type@SuperCam@@XZ 00425320 f   relativeanimatedcam.obj
 0001:00024cb0       ?SetCameraAnimationController@RelativeAnimatedCam@@QAEXPAVtCameraAnimationController@@@Z 00425330 f   relativeanimatedcam.obj
 0001:00024ce0       ?SetOffsetMatrix@RelativeAnimatedCam@@QAEXABVMatrix@RadicalMathLibrary@@@Z 00425360 f   relativeanimatedcam.obj
 0001:00024d20       ?Update@RelativeAnimatedCam@@UAEXI@Z 004253a0 f   relativeanimatedcam.obj
 0001:00024d30       ??_GRelativeAnimatedCam@@UAEPAXI@Z 004253b0 f i relativeanimatedcam.obj
 0001:00024d30       ??_ERelativeAnimatedCam@@UAEPAXI@Z 004253b0 f i relativeanimatedcam.obj
 0001:00024d50       ??1RelativeAnimatedCam@@UAE@XZ 004253d0 f i relativeanimatedcam.obj
 0001:00024d60       ??0ReverseCam@@QAE@XZ      004253e0 f   reversecam.obj
 0001:00024dc0       ?GetCollisionRadius@ReverseCam@@UBEMXZ 00425440 f i reversecam.obj
 0001:00024dc0       ?GetGroundFixupWeight@RootBlender@choreo@@QBEMXZ 00425440 f i choreoxr:rootblender.obj
 0001:00024dc0       ?GetDialogueVolume@daSoundTuner@Sound@@UAEMXZ 00425440 f i soundtuner.obj
 0001:00024dd0       ?OnInit@WalkerCam@@MAEXXZ  00425450 f i walkercam.obj
 0001:00024dd0       ?OnInit@StaticCam@@MAEXXZ  00425450 f i staticcam.obj
 0001:00024dd0       ?OnInit@ReverseCam@@MAEXXZ 00425450 f i reversecam.obj
 0001:00024de0       ?GetName@ReverseCam@@UBEQBDXZ 00425460 f i reversecam.obj
 0001:00024df0       ?GetType@ReverseCam@@UAE?AW4Type@SuperCam@@XZ 00425470 f i reversecam.obj
 0001:00024e00       ?SetCollisionOffset@ReverseCam@@UAEXPBVVector@RadicalMathLibrary@@IABV23@@Z 00425480 f i reversecam.obj
 0001:00024e40       ??1ReverseCam@@UAE@XZ      004254c0 f   reversecam.obj
 0001:00024e50       ?Update@ReverseCam@@UAEXI@Z 004254d0 f   reversecam.obj
 0001:000253c0       ?UpdateForPhysics@ReverseCam@@UAEXI@Z 00425a40 f   reversecam.obj
 0001:00025520       ?DisableShake@DebugCam@@UAEXXZ 00425ba0 f   debugcam.obj
 0001:00025520       ?DisableShake@SuperCam@@UAEXXZ 00425ba0 f   animatedcam.obj
 0001:00025520       ?DisableShake@ReverseCam@@UAEXXZ 00425ba0 f   reversecam.obj
 0001:00025520       ?DisableShake@FollowCam@@UAEXXZ 00425ba0 f   followcam.obj
 0001:00025540       ?CanSwitch@ReverseCam@@MAE_NXZ 00425bc0 f   reversecam.obj
 0001:000255c0       ??_GReverseCam@@UAEPAXI@Z  00425c40 f i reversecam.obj
 0001:000255c0       ??_EReverseCam@@UAEPAXI@Z  00425c40 f i reversecam.obj
 0001:000255e0       ??1ICameraShaker@@UAE@XZ   00425c60 f i sinecosshaker.obj
 0001:000255f0       ??_GICameraShaker@@UAEPAXI@Z 00425c70 f i sinecosshaker.obj
 0001:000255f0       ??_EICameraShaker@@UAEPAXI@Z 00425c70 f i sinecosshaker.obj
 0001:00025610       ?SetShakeData@SineCosShaker@@UAEXPBUShakeEventData@@@Z 00425c90 f   sinecosshaker.obj
 0001:00025640       ??0SineCosShaker@@QAE@XZ   00425cc0 f   sinecosshaker.obj
 0001:00025690       ?Reset@SineCosShaker@@UAEXXZ 00425d10 f i sinecosshaker.obj
 0001:000256a0       ?SetDirection@SineCosShaker@@UAEXABVVector@RadicalMathLibrary@@@Z 00425d20 f i sinecosshaker.obj
 0001:000256c0       ?SetLooping@SineCosShaker@@UAEX_N@Z 00425d40 f i sinecosshaker.obj
 0001:000256c0       ?AllowFreeing@StaticHeap@@UAEX_N@Z 00425d40 f i radcorexr:staticheap.obj
 0001:000256d0       ?DoneShaking@SineCosShaker@@UAE_NXZ 00425d50 f i sinecosshaker.obj
 0001:000256e0       ?GetName@SineCosShaker@@UAEQBDXZ 00425d60 f i sinecosshaker.obj
 0001:000256f0       ??1SineCosShaker@@UAE@XZ   00425d70 f   sinecosshaker.obj
 0001:00025750       ?ShakeCamera@SineCosShaker@@UAEXPAVVector@RadicalMathLibrary@@0I@Z 00425dd0 f   sinecosshaker.obj
 0001:00025850       ??_GSineCosShaker@@UAEPAXI@Z 00425ed0 f i sinecosshaker.obj
 0001:00025850       ??_ESineCosShaker@@UAEPAXI@Z 00425ed0 f i sinecosshaker.obj
 0001:00025870       ?safe_cast@?$SafeCast@VtVectorCamera@@@radLoadInventory@@UAEPAUIRefCount@@PAU3@@Z 00425ef0 f i snapshotcam.obj
 0001:00025890       ?DoWrecklessZoom@SuperCam@@IAEXMMMMMAAM0MM@Z 00425f10 f i staticcam.obj
 0001:00025940       ??0StaticCam@@QAE@XZ       00425fc0 f   staticcam.obj
 0001:000259c0       ?GetName@StaticCam@@UBEQBDXZ 00426040 f i staticcam.obj
 0001:000259d0       ?GetDataType@SpawnPoint@@UBE?AW4Type@LocatorType@@XZ 00426050 f i spawnpoint.obj
 0001:000259d0       ?GetType@StaticCam@@UAE?AW4Type@SuperCam@@XZ 00426050 f i staticcam.obj
 0001:000259e0       ??1StaticCam@@UAE@XZ       00426060 f   staticcam.obj
 0001:000259f0       ?Update@StaticCam@@UAEXI@Z 00426070 f   staticcam.obj
 0001:00025e10       ?GetTargetSpeedModifier@StaticCam@@MAEMXZ 00426490 f   staticcam.obj
 0001:00025e10       ?GetTargetSpeedModifier@RailCam@@MAEMXZ 00426490 f   railcam.obj
 0001:00025eb0       ??_EStaticCam@@UAEPAXI@Z   00426530 f i staticcam.obj
 0001:00025eb0       ??_GStaticCam@@UAEPAXI@Z   00426530 f i staticcam.obj
 0001:00025ed0       ?UnregisterDebugControls@SuperCam@@QAEXXZ 00426550 f   supercam.obj
 0001:00025ee0       ?SetFOV@SuperCam@@QAEXM@Z  00426560 f   supercam.obj
 0001:00025f30       ?GetFOV@SuperCam@@QBEMXZ   004265b0 f   supercam.obj
 0001:00025f50       ?DisableOverride@SuperCam@@IAEXXZ 004265d0 f   supercam.obj
 0001:00025fa0       ?SetFOVOverride@SuperCam@@IAEXM@Z 00426620 f   supercam.obj
 0001:00025fe0       ?SetCamera@SuperCam@@IAEXPAVtPointCamera@@@Z 00426660 f   supercam.obj
 0001:00026000       ?ClampAngle@SuperCam@@IBEHPAM@Z 00426680 f   supercam.obj
 0001:00026080       ?AdjustAngles@SuperCam@@IBEXPAM00@Z 00426700 f   supercam.obj
 0001:00026100       ?CorrectDist@SuperCam@@IAEXABVVector@RadicalMathLibrary@@AAV23@@Z 00426780 f   supercam.obj
 0001:00026180       ?InitMyController@SuperCam@@IAEXH@Z 00426800 f   supercam.obj
 0001:00026240       ?ShutDownMyController@SuperCam@@IAEXXZ 004268c0 f   supercam.obj
 0001:00026290       ?SphericalMotion@SuperCam@@IBEXABVVector@RadicalMathLibrary@@AAV23@01M@Z 00426910 f   supercam.obj
 0001:000263e0       ?UpdateVUP@SuperCam@@IAE?AVVector@RadicalMathLibrary@@V23@0@Z 00426a60 f   supercam.obj
 0001:000264c0       ?EaseMotion@SuperCam@@IAEMMMM@Z 00426b40 f   supercam.obj
 0001:00026580       ?EndShake@SuperCam@@AAEXXZ 00426c00 f   supercam.obj
 0001:000265e0       ?EndTransition@SuperCam@@IAEX_N@Z 00426c60 f   supercam.obj
 0001:00026680       ?TransitionFOV@SuperCam@@AAEXMPAMI@Z 00426d00 f   supercam.obj
 0001:00026710       ?EaseIn@SuperCam@@AAEXMPAVVector@RadicalMathLibrary@@0I@Z 00426d90 f   supercam.obj
 0001:00026790       ?SetCameraShakerData@SuperCam@@IAEXPBUShakeEventData@@@Z 00426e10 f   supercam.obj
 0001:000267c0       ??0SuperCam@@QAE@XZ        00426e40 f   supercam.obj
 0001:00026920       ??1SuperCam@@UAE@XZ        00426fa0 f   supercam.obj
 0001:000269d0       ?GetPosition@SuperCam@@QBEXPAVVector@RadicalMathLibrary@@@Z 00427050 f   supercam.obj
 0001:00026a30       ?GetTarget@SuperCam@@QBEXPAVVector@RadicalMathLibrary@@@Z 004270b0 f   supercam.obj
 0001:00026a90       ?GetHeading@SuperCam@@QBEXPAVVector@RadicalMathLibrary@@@Z 00427110 f   supercam.obj
 0001:00026b50       ?GetHeadingNormalized@SuperCam@@QAEXPAVVector@RadicalMathLibrary@@@Z 004271d0 f   supercam.obj
 0001:00026ba0       ?GetCameraUp@SuperCam@@QBEXPAVVector@RadicalMathLibrary@@@Z 00427220 f   supercam.obj
 0001:00026be0       ?Shutdown@SuperCam@@IAEXXZ 00427260 f   supercam.obj
 0001:00026c00       ?DoCameraTransition@SuperCam@@UAEX_NI@Z 00427280 f   supercam.obj
 0001:00026c60       ?SetupShake@SuperCam@@AAEXXZ 004272e0 f   supercam.obj
 0001:00026ce0       ?SetupTransition@SuperCam@@AAEX_N@Z 00427360 f   supercam.obj
 0001:00026dc0       ?TransitionCamera@SuperCam@@AAEXMPAVVector@RadicalMathLibrary@@0PAMI_N@Z 00427440 f   supercam.obj
 0001:00027000       ??_ESuperCam@@UAEPAXI@Z    00427680 f i supercam.obj
 0001:00027000       ??_GSuperCam@@UAEPAXI@Z    00427680 f i supercam.obj
 0001:00027020       ?SetCameraValues@SuperCam@@IAEXIVVector@RadicalMathLibrary@@0PBV23@@Z 004276a0 f   supercam.obj
 0001:00027420       ?OverrideFOV@SuperCam@@IAEX_NMM@Z 00427aa0 f   supercam.obj
 0001:000274e0       ?IsInit@SuperCamCentral@@QBE_NXZ 00427b60 f   supercamcentral.obj
 0001:000274f0       ?UpdateCameraCollisionSpherePosition@SuperCamCentral@@AAEXAAVVector@RadicalMathLibrary@@@Z 00427b70 f   supercamcentral.obj
 0001:00027530       ?UpdateCameraCollisionSphereRadius@SuperCamCentral@@AAEXM@Z 00427bb0 f   supercamcentral.obj
 0001:00027540       ?PreCollisionPrep@SuperCamCentral@@QAEXXZ 00427bc0 f   supercamcentral.obj
 0001:00027640       ?AddCameraCollisionOffset@SuperCamCentral@@QAEXAAVVector@RadicalMathLibrary@@@Z 00427cc0 f   supercamcentral.obj
 0001:00027760       ?RegisterSuperCam@SuperCamCentral@@QAEIPAVSuperCam@@@Z 00427de0 f   supercamcentral.obj
 0001:000277d0       ?GetSuperCam@SuperCamCentral@@QBEPAVSuperCam@@W4Type@2@@Z 00427e50 f   supercamcentral.obj
 0001:00027810       ?SetCamera@SuperCamCentral@@QAEXPAVtPointCamera@@@Z 00427e90 f   supercamcentral.obj
 0001:00027860       ?SetTarget@SuperCamCentral@@QAEXPAVISuperCamTarget@@@Z 00427ee0 f   supercamcentral.obj
 0001:000278c0       ?AddTarget@SuperCamCentral@@QAEXPAVISuperCamTarget@@@Z 00427f40 f   supercamcentral.obj
 0001:00027900       ?SubmitStatics@SuperCamCentral@@QAEXXZ 00427f80 f   supercamcentral.obj
 0001:00027a20       ?UpdateForPhysics@SuperCamCentral@@QAEXI@Z 004280a0 f   supercamcentral.obj
 0001:00027a60       ?AllowCameraToggle@SuperCamCentral@@QAE_NXZ 004280e0 f   supercamcentral.obj
 0001:00027a90       ?AllowAutoCameraChange@SuperCamCentral@@QAE_NXZ 00428110 f   supercamcentral.obj
 0001:00027ae0       ?RegisterFOVLocator@SuperCamCentral@@QAEXPAVFOVLocator@@@Z 00428160 f   supercamcentral.obj
 0001:00027b30       ?UnregisterFOVLocator@SuperCamCentral@@QAEXXZ 004281b0 f   supercamcentral.obj
 0001:00027b70       ?NoTransition@SuperCamCentral@@QAEXXZ 004281f0 f   supercamcentral.obj
 0001:00027ba0       ?IsCutCam@SuperCamCentral@@QAE_NXZ 00428220 f   supercamcentral.obj
 0001:00027be0       ?LoadData@SuperCamCentral@@UAEXPBEI@Z 00428260 f   supercamcentral.obj
 0001:00027c10       ?SaveData@SuperCamCentral@@UAEXPAEI@Z 00428290 f   supercamcentral.obj
 0001:00027c40       ?ResetData@SuperCamCentral@@UAEXXZ 004282c0 f   supercamcentral.obj
 0001:00027c60       ?IsLegalType@SuperCamCentral@@QAE_NW4Type@SuperCam@@@Z 004282e0 f   supercamcentral.obj
 0001:00027d60       ??0SuperCamCentral@@QAE@XZ 004283e0 f   supercamcentral.obj
 0001:00027f60       ?Init@SuperCamCentral@@QAEX_N@Z 004285e0 f   supercamcentral.obj
 0001:000283b0       ?SetActiveSuperCam@SuperCamCentral@@AAEXIHI@Z 00428a30 f   supercamcentral.obj
 0001:00028550       ??1SuperCamCentral@@UAE@XZ 00428bd0 f   supercamcentral.obj
 0001:000285e0       ?SelectSuperCam@SuperCamCentral@@QAEXIHI@Z 00428c60 f   supercamcentral.obj
 0001:000287c0       ?SelectSuperCam@SuperCamCentral@@QAEXW4Type@SuperCam@@HI@Z 00428e40 f   supercamcentral.obj
 0001:00028870       ?SelectSuperCam@SuperCamCentral@@QAEXPAVSuperCam@@HI@Z 00428ef0 f   supercamcentral.obj
 0001:000288b0       ?HandleEvent@SuperCamCentral@@UAEXW4EventEnum@@PAX@Z 00428f30 f   supercamcentral.obj
 0001:000289c0       ??_GSuperCamCentral@@UAEPAXI@Z 00429040 f i supercamcentral.obj
 0001:000289c0       ??_ESuperCamCentral@@UAEPAXI@Z 00429040 f i supercamcentral.obj
 0001:000289e0       ?UnregisterSuperCam@SuperCamCentral@@QAEXPAVSuperCam@@@Z 00429060 f   supercamcentral.obj
 0001:00028ac0       ?UnregisterSuperCam@SuperCamCentral@@QAEXI@Z 00429140 f   supercamcentral.obj
 0001:00028ae0       ?ToggleSuperCam@SuperCamCentral@@QAE_N_N0@Z 00429160 f   supercamcentral.obj
 0001:00028bc0       ?Update@SuperCamCentral@@QAEXI@Z 00429240 f   supercamcentral.obj
 0001:00028fd0       ??0SuperCamController@@QAE@XZ 00429650 f   supercamcontroller.obj
 0001:00028ff0       ??1SuperCamController@@UAE@XZ 00429670 f   supercamcontroller.obj
 0001:00029000       ?LoadControllerMappings@SuperCamController@@UAEXI@Z 00429680 f   supercamcontroller.obj
 0001:000290b0       ?OnButtonDown@SuperCamController@@UAEXHHPBVButton@@@Z 00429730 f   supercamcontroller.obj
 0001:000290e0       ??_GSuperCamController@@UAEPAXI@Z 00429760 f i supercamcontroller.obj
 0001:000290e0       ??_ESuperCamController@@UAEPAXI@Z 00429760 f i supercamcontroller.obj
 0001:00029100       ?GetInstance@SuperCamManager@@SAPAV1@XZ 00429780 f   supercammanager.obj
 0001:00029110       ?Init@SuperCamManager@@QAEX_N@Z 00429790 f   supercammanager.obj
 0001:00029140       ?GetSCC@SuperCamManager@@QAEPAVSuperCamCentral@@H@Z 004297c0 f   supercammanager.obj
 0001:00029160       ?PreCollisionPrep@SuperCamManager@@QAEXXZ 004297e0 f   supercammanager.obj
 0001:00029170       ?Update@SuperCamManager@@QAEXI@Z 004297f0 f   supercammanager.obj
 0001:00029180       ?SubmitStatics@SuperCamManager@@QAEXXZ 00429800 f   supercammanager.obj
 0001:00029190       ?ToggleFirstPerson@SuperCamManager@@QAEXH@Z 00429810 f   supercammanager.obj
 0001:000291e0       ??0SuperCamManager@@AAE@XZ 00429860 f   supercammanager.obj
 0001:00029200       ??1SuperCamManager@@AAE@XZ 00429880 f   supercammanager.obj
 0001:00029220       ?CreateInstance@SuperCamManager@@SAPAV1@XZ 004298a0 f   supercammanager.obj
 0001:00029290       ?DestroyInstance@SuperCamManager@@SAXXZ 00429910 f   supercammanager.obj
 0001:000292b0       ??0SuperSprintCam@@QAE@XZ  00429930 f   supersprintcam.obj
 0001:00029300       ?GetName@SuperSprintCam@@UBEQBDXZ 00429980 f i supersprintcam.obj
 0001:00029310       ?GetType@SuperSprintCam@@UAE?AW4Type@SuperCam@@XZ 00429990 f i supersprintcam.obj
 0001:00029320       ??1SuperSprintCam@@UAE@XZ  004299a0 f   supersprintcam.obj
 0001:00029330       ?OnRegisterDebugControls@SuperSprintCam@@MAEXXZ 004299b0 f   supersprintcam.obj
 0001:00029340       ?OnUnregisterDebugControls@SuperSprintCam@@MAEXXZ 004299c0 f   supersprintcam.obj
 0001:00029350       ??_ESuperSprintCam@@UAEPAXI@Z 004299d0 f i supersprintcam.obj
 0001:00029350       ??_GSuperSprintCam@@UAEPAXI@Z 004299d0 f i supersprintcam.obj
 0001:00029370       ??$find@VtVectorCamera@@@p3d@@YAPAVtVectorCamera@@PAVtEntityStore@@ABVtName@@@Z 004299f0 f i supersprintcam.obj
 0001:00029440       ??$find@VtVectorCamera@@@p3d@@YAPAVtVectorCamera@@PAVtEntityStore@@PBD@Z 00429ac0 f i supersprintcam.obj
 0001:000294b0       ?Update@SuperSprintCam@@UAEXI@Z 00429b30 f   supersprintcam.obj
 0001:00029630       ??1TrackerCamData@@UAE@XZ  00429cb0 f i trackercam.obj
 0001:00029640       ??_ETrackerCamData@@UAEPAXI@Z 00429cc0 f i trackercam.obj
 0001:00029640       ??_GTrackerCamData@@UAEPAXI@Z 00429cc0 f i trackercam.obj
 0001:00029660       ??0TrackerCam@@QAE@XZ      00429ce0 f   trackercam.obj
 0001:000296f0       ?GetName@TrackerCam@@UBEQBDXZ 00429d70 f i trackercam.obj
 0001:00029700       ?GetNumTargets@WalkerCam@@UBEIXZ 00429d80 f i walkercam.obj
 0001:00029700       ?GetNumTargets@TrackerCam@@UBEIXZ 00429d80 f i trackercam.obj
 0001:00029700       ?GetNumTargets@RailCam@@UBEIXZ 00429d80 f i railcam.obj
 0001:00029700       ?GetNumTargets@ChaseCam@@UBEIXZ 00429d80 f i chasecam.obj
 0001:00029700       ?GetNumTargets@StaticCam@@UBEIXZ 00429d80 f i staticcam.obj
 0001:00029700       ?GetNumTargets@ReverseCam@@UBEIXZ 00429d80 f i reversecam.obj
 0001:00029710       ??1TrackerCam@@UAE@XZ      00429d90 f   trackercam.obj
 0001:00029730       ??1d3dState@@QAE@XZ        00429db0 f   pure3dxr:state.obj
 0001:00029730       ?OnInitialize@TimerObjective@@MAEXXZ 00429db0 f   timerobjective.obj
 0001:00029730       ?PreRender@d3dCSRPShader@@UAEXXZ 00429db0 f   pure3dxr:csrpshader.obj
 0001:00029730       ?Clear@Action@@UAEXXZ      00429db0 f   action.obj
 0001:00029730       ?InitRunning@CGuiScreenViewCards@@MAEXXZ 00429db0 f   guiscreenviewcards.obj
 0001:00029730       ??1JointInfo@SkeletonInfo@sim@@QAE@XZ 00429db0 f   simxr:skeletoninfo.obj
 0001:00029730       ?Init@VehicleController@@UAEXXZ 00429db0 f   chaseai.obj
 0001:00029730       ?InitOutro@CGuiScreenViewMovies@@MAEXXZ 00429db0 f   guiscreenviewmovies.obj
 0001:00029730       ?Cleanup@SoundFXLogic@@UAEXXZ 00429db0 f   soundfxlogic.obj
 0001:00029730       ??1Wheel@@AAE@XZ           00429db0 f   wheel.obj
 0001:00029730       ?InitRunning@CGuiScreenLevelEnd@@MAEXXZ 00429db0 f   guiscreenlevelend.obj
 0001:00029730       ?PreRender@pddiBaseShader@@MAEXXZ 00429db0 f   pure3dxr:refractshader.obj
 0001:00029730       ?PrintStats@radLoadManager@@UAEXXZ 00429db0 f   radcontent:manager.obj
 0001:00029730       ??1BakedBillboardQuad@@QAE@XZ 00429db0 f   pchsrr2.obj
 0001:00029730       ?InitOutro@CGuiScreenLevelEnd@@MAEXXZ 00429db0 f   guiscreenlevelend.obj
 0001:00029730       ?state_stopped_set_volume@radmusic@@YAXPAUstruct_music_engine@1@M@Z 00429db0 f   radmusicxr:music_engine_state_stopped.obj
 0001:00029730       ?UpdateForSimEnvironment@SimulatedObject@sim@@UAEXXZ 00429db0 f   simxr:simulatedobject.obj
 0001:00029730       ?OnUnregisterDebugControls@TrackerCam@@EAEXXZ 00429db0 f   trackercam.obj
 0001:00029730       ?OnUnregisterDebugControls@WalkerCam@@EAEXXZ 00429db0 f   walkercam.obj
 0001:00029730       ?SetDebugInfo@UpshiftEngineState@@UAEXXZ 00429db0 f   vehiclesoundplayer.obj
 0001:00029730       ?InitOutro@CGuiScreenMultiHud@@MAEXXZ 00429db0 f   guiscreenmultihud.obj
 0001:00029730       ?OnSuspend@EntryContext@@MAEXXZ 00429db0 f   entrycontext.obj
 0001:00029730       ?Clear@CarDoorAction@@UAEXXZ 00429db0 f   action.obj
 0001:00029730       ??1CollisionObjectPair@sim@@QAE@XZ 00429db0 f   simxr:collisionmanager.obj
 0001:00029730       ?state_stopped_enter@radmusic@@YAXPAUstruct_music_engine@1@@Z 00429db0 f   radmusicxr:music_engine_state_stopped.obj
 0001:00029730       ?LetterBoxStop@RelativeAnimatedCam@@MAEXXZ 00429db0 f   relativeanimatedcam.obj
 0001:00029730       ?Exit@InSim@CharacterAi@@MAEXXZ 00429db0 f   state.obj
 0001:00029730       ?Render@FootprintManager@@QAEXXZ 00429db0 f   footprintmanager.obj
 0001:00029730       ?EnterGame@ActionButtonManager@@QAEXXZ 00429db0 f   actionbuttonmanager.obj
 0001:00029730       ?ResetDeformation@PhysicsJoint0D@sim@@UAEXXZ 00429db0 f   simxr:physicsjoint.obj
 0001:00029730       ?UsePermanentMem@p3d@@YAX_N@Z 00429db0 f   pure3dxr:memory.obj
 0001:00029730       ?CreateAnimPhysObject@MissionScriptLoader@@CAXHPAPAD@Z 00429db0 f   missionscriptloader.obj
 0001:00029730       ?RenderUpdate@StaticPhysDSG@@UAEXXZ 00429db0 f   StaticPhysDSG.obj
 0001:00029730       ?RenderUpdate@IEntityDSG@@UAEXXZ 00429db0 f   IEntityDSG.obj
 0001:00029730       ?DrawSync@pddiBaseContext@@UAEXXZ 00429db0 f   pure3dxr:basecontext.obj
 0001:00029730       ?InitOutro@CGuiScreenAutoLoad@@MAEXXZ 00429db0 f   guiscreenloadgame.obj
 0001:00029730       ?OnSuspend@ExitContext@@MAEXXZ 00429db0 f   exitcontext.obj
 0001:00029730       ?OnPlaybackComplete@SoundFXGameplayLogic@@UAEXXZ 00429db0 f   soundfxgameplaylogic.obj
 0001:00029730       ??1pddiFont@@QAE@XZ        00429db0 f   pure3dxr:font.obj
 0001:00029730       ?AbortCurrentMission@GameplayManager@@UAEXXZ 00429db0 f   gameplaymanager.obj
 0001:00029730       ?OnResume@FrontEndContext@@MAEXXZ 00429db0 f   frontendcontext.obj
 0001:00029730       ?RenderUpdate@AnimEntityDSG@@UAEXXZ 00429db0 f   animentitydsg.obj
 0001:00029730       ?state_stopped_paused@radmusic@@YAXPAUstruct_music_engine@1@_N@Z 00429db0 f   radmusicxr:music_engine_state_stopped.obj
 0001:00029730       ?InitOutro@CGuiScreenCardGallery@@MAEXXZ 00429db0 f   guiscreencardgallery.obj
 0001:00029730       ?OnStart@NoDamageBonusObjective@@MAEXXZ 00429db0 f   nodamagebonusobjective.obj
 0001:00029730       ?state_stopped_set_pitch@radmusic@@YAXPAUstruct_music_engine@1@M@Z 00429db0 f   radmusicxr:music_engine_state_stopped.obj
 0001:00029730       ?InitRunning@CGuiScreenLoadGame@@MAEXXZ 00429db0 f   guiscreenloadgame.obj
 0001:00029730       ?OnFinalize@LoadVehicleObjective@@MAEXXZ 00429db0 f   loadvehicleobjective.obj
 0001:00029730       ?OnShutdown@SuperSprintCam@@MAEXXZ 00429db0 f   supersprintcam.obj
 0001:00029730       ?InitPoints@RectTriggerVolume@@MAEXXZ 00429db0 f   recttriggervolume.obj
 0001:00029730       ?OnUnregisterDebugControls@ChaseCam@@EAEXXZ 00429db0 f   chasecam.obj
 0001:00029730       ?EndImage@ImageBuilder@@UAEXXZ 00429db0 f   pure3dxr:imagefactory.obj
 0001:00029730       ?InitRunning@CGuiScreenMiniMenu@@MAEXXZ 00429db0 f   guiscreenminimenu.obj
 0001:00029730       ?Display@TriggerVolume@@UAEXXZ 00429db0 f   triggervolume.obj
 0001:00029730       ??1Randomizer@RadicalMathLibrary@@QAE@XZ 00429db0 f   radmathxr:random.obj
 0001:00029730       ?OnGameplayStop@PresentationManager@@QAEXXZ 00429db0 f   presentation.obj
 0001:00029730       ?OnRegisterDebugControls@RailCam@@MAEXXZ 00429db0 f   railcam.obj
 0001:00029730       ?Compact@radString@@UAEXXZ 00429db0 f   radcorexr:string.obj
 0001:00029730       ?OnSoundReady@SoundFXLogic@@UAEXXZ 00429db0 f   soundfxlogic.obj
 0001:00029730       ?InitRunning@CGuiScreenViewMovies@@MAEXXZ 00429db0 f   guiscreenviewmovies.obj
 0001:00029730       ?Reset@BlendJointDriver@choreo@@UAEXXZ 00429db0 f   choreoxr:blend.obj
 0001:00029730       ?OnRegisterDebugControls@ReverseCam@@MAEXXZ 00429db0 f   reversecam.obj
 0001:00029730       ?InitRunning@CGuiScreenSound@@MAEXXZ 00429db0 f   guiscreensound.obj
 0001:00029730       ?float_instance_destroy@ods@@YAXABVpointer@1@0@Z 00429db0 f   radmusicxr:ods.obj
 0001:00029730       ?OnFinalize@FMVObjective@@MAEXXZ 00429db0 f   fmvobjective.obj
 0001:00029730       ?OnSuspend@PlayingContext@@MAEXXZ 00429db0 f   playingcontext.obj
 0001:00029730       ?TriggerCallbacks@tLoadManager@@QAEXXZ 00429db0 f   pure3dxr:loadmanager.obj
 0001:00029730       ?OnSuspend@FrontEndContext@@MAEXXZ 00429db0 f   frontendcontext.obj
 0001:00029730       ?InitOutro@CGuiScreenMiniHud@@MAEXXZ 00429db0 f   guiscreenminihud.obj
 0001:00029730       ?DoRender@TransitionPlayer@@MAEXXZ 00429db0 f   transitionplayer.obj
 0001:00029730       ?ResetCache@PhysicsJoint0D@sim@@UAEXXZ 00429db0 f   simxr:physicsjoint.obj
 0001:00029730       ?Abort@Action@@UAEXXZ      00429db0 f   actionbuttonhandler.obj
 0001:00029730       ?InitOutro@CGuiScreenSaveGame@@MAEXXZ 00429db0 f   guiscreensavegame.obj
 0001:00029730       ?OnUnregisterDebugControls@RailCam@@MAEXXZ 00429db0 f   railcam.obj
 0001:00029730       ?RegisterDebugInfo@SineCosShaker@@UAEXXZ 00429db0 f   sinecosshaker.obj
 0001:00029730       ?OnFinalize@MissionCondition@@MAEXXZ 00429db0 f   collectdumpedobjective.obj
 0001:00029730       ?ReleaseBehaviours@Projectile@@UAEXXZ 00429db0 f   projectile.obj
 0001:00029730       ??1RoadSegmentData@@QAE@XZ 00429db0 f   roadsegmentdata.obj
 0001:00029730       ?MemSetup@p3d@@YAXXZ       00429db0 f   pure3dxr:memory.obj
 0001:00029730       ?InitOutro@CGuiScreenPrompt@@MAEXXZ 00429db0 f   guiscreenprompt.obj
 0001:00029730       ?DoPreStaticLoad@RenderLayer@@UAEXXZ 00429db0 f   RenderLayer.obj
 0001:00029730       ??1Button@@QAE@XZ          00429db0 f   button.obj
 0001:00029730       ?OnInit@SuperCam@@MAEXXZ   00429db0 f   bumpercam.obj
 0001:00029730       ?state_stopped_kill@radmusic@@YAXPAUstruct_music_engine@1@@Z 00429db0 f   radmusicxr:music_engine_state_stopped.obj
 0001:00029730       ?OnReset@BonusObjective@@MAEXXZ 00429db0 f   nocopbonusobjective.obj
 0001:00029730       ??1Spline@RadicalMathLibrary@@QAE@XZ 00429db0 f   evasionbehaviour.obj
 0001:00029730       ??1tFontGlyph@@QAE@XZ      00429db0 f   pure3dxr:font.obj
 0001:00029730       ?DoPostStaticLoad@WorldRenderLayer@@UAEXXZ 00429db0 f   WorldRenderLayer.obj
 0001:00029730       ?OnRegisterDebugControls@SuperCam@@MAEXXZ 00429db0 f   animatedcam.obj
 0001:00029730       ?radDbgComService@@YAXXZ   00429db0 f   radcorexr:targetx.obj
 0001:00029730       ?OnSuspend@BootupContext@@MAEXXZ 00429db0 f   bootupcontext.obj
 0001:00029730       ??1SelfCollision@CollisionObject@sim@@QAE@XZ 00429db0 f   actionbuttonhandler.obj
 0001:00029730       ?OnDialogLineComplete@DialogPriorityQueue@@UAEXXZ 00429db0 f   dialogpriorityqueue.obj
 0001:00029730       ?SetDebugInfo@ReverseEngineState@@UAEXXZ 00429db0 f   vehiclesoundplayer.obj
 0001:00029730       ?ResetDeformationSpeed@PhysicsJoint0D@sim@@UAEXXZ 00429db0 f   simxr:physicsjoint.obj
 0001:00029730       ?InitOutro@CGuiScreenLoadGame@@MAEXXZ 00429db0 f   guiscreenloadgame.obj
 0001:00029730       ?Display@PathSegment@@UAEXXZ 00429db0 f   pathsegment.obj
 0001:00029730       ?SetUpGuts@FrontEndRenderLayer@@UAEXXZ 00429db0 f   FrontEndRenderLayer.obj
 0001:00029730       ?Exit@NoState@CharacterAi@@MAEXXZ 00429db0 f   statemanager.obj
 0001:00029730       ?DisplaySimpleShadow@Character@@UAEXXZ 00429db0 f   character.obj
 0001:00029730       ?Display@FenceEntityDSG@@UAEXXZ 00429db0 f   FenceEntityDSG.obj
 0001:00029730       ?OnInitialize@MissionObjective@@MAEXXZ 00429db0 f   buycarobjective.obj
 0001:00029730       ?InitRunning@CGuiScreenCreditsPostFMV@@MAEXXZ 00429db0 f   guiscreencreditspostfmv.obj
 0001:00029730       ?OnRegisterDebugControls@DebugCam@@EAEXXZ 00429db0 f   debugcam.obj
 0001:00029730       ?radMemorySpaceTerminate@@YAXXZ 00429db0 f   radcorexr:memoryspacewin32.obj
 0001:00029730       ?Display@RoadSegment@@UAEXXZ 00429db0 f   roadsegment.obj
 0001:00029730       ?InitRunning@CGuiScreenLetterBox@@MAEXXZ 00429db0 f   guiscreenletterbox.obj
 0001:00029730       ?DisplayShadow@Character@@UAEXXZ 00429db0 f   character.obj
 0001:00029730       ?Release@GameDataManager@@UAEXXZ 00429db0 f   gamedatamanager.obj
 0001:00029730       ?OnSuspend@LoadingContext@@MAEXXZ 00429db0 f   loadingcontext.obj
 0001:00029730       ?ResetArtStats@HeapManager@@QAEXXZ 00429db0 f   srrmemory.obj
 0001:00029730       ?AddRef@GameDataManager@@UAEXXZ 00429db0 f   gamedatamanager.obj
 0001:00029730       ?DoLoaded@TransitionPlayer@@MAEXXZ 00429db0 f   transitionplayer.obj
 0001:00029730       ?AddGlobalProp@MissionScriptLoader@@CAXHPAPAD@Z 00429db0 f   missionscriptloader.obj
 0001:00029730       ?Destroy@AnimSwitch@ActionButton@@QAEXXZ 00429db0 f   actionbuttonhandler.obj
 0001:00029730       ?OnReachedWaypoint@Pedestrian@@MAEXXZ 00429db0 f   pedestrian.obj
 0001:00029730       ??1tColourOffset@@QAE@XZ   00429db0 f   pure3dxr:vertexanimkey.obj
 0001:00029730       ?SubmitAnimCollisions@NPCharacter@@UAEXXZ 00429db0 f   character.obj
 0001:00029730       ?ClearVehicleSelectInfo@ActionButtonManager@@SAXHPAPAD@Z 00429db0 f   actionbuttonmanager.obj
 0001:00029730       ?bool_instance_destroy@ods@@YAXABVpointer@1@0@Z 00429db0 f   radmusicxr:ods.obj
 0001:00029730       ?UpdateUnits@SimUnitsManager@sim@@MAEXXZ 00429db0 f   simxr:simutility.obj
 0001:00029730       ?InitRunning@CGuiScreenMissionSelect@@MAEXXZ 00429db0 f   guiscreenmissionselect.obj
 0001:00029730       ?Stop@MusicSoundPlayer@Sound@@UAEXXZ 00429db0 f   musicsoundplayer.obj
 0001:00029730       ?OnInitCollectibles@CollectDumpedObjective@@MAEXXZ 00429db0 f   collectdumpedobjective.obj
 0001:00029730       ?RenderUpdate@LensFlareDSG@@UAEXXZ 00429db0 f   LensFlareDSG.obj
 0001:00029730       ?OnStart@TimeRemainBonusObjective@@MAEXXZ 00429db0 f   timeremainbonusobjective.obj
 0001:00029730       ?OnUnregisterDebugControls@ReverseCam@@MAEXXZ 00429db0 f   reversecam.obj
 0001:00029730       ?DoPostStaticLoad@RenderLayer@@UAEXXZ 00429db0 f   RenderLayer.obj
 0001:00029730       ?Discard@d3dTexture@@UAEXXZ 00429db0 f   pure3dxr:texture.obj
 0001:00029730       ?InitRunning@CGuiScreenPauseSettings@@MAEXXZ 00429db0 f   guiscreenpausesettings.obj
 0001:00029730       ?InitOutro@CGuiScreenViewCards@@MAEXXZ 00429db0 f   guiscreenviewcards.obj
 0001:00029730       ?Update@tAnimatedObjectFrameController@@MAEXXZ 00429db0 f   pure3dxr:animatedobject.obj
 0001:00029730       ?LetterBoxStart@RelativeAnimatedCam@@MAEXXZ 00429db0 f   relativeanimatedcam.obj
 0001:00029730       ?OnUnregisterDebugControls@SuperCam@@MAEXXZ 00429db0 f   animatedcam.obj
 0001:00029730       ?Display@AnimCollisionEntityDSGWrapper@ActionButton@@UAEXXZ 00429db0 f   actionbuttonhandler.obj
 0001:00029730       ?SetDebugInfo@IdleEngineState@@UAEXXZ 00429db0 f   vehiclesoundplayer.obj
 0001:00029730       ?rDebugPrintf@@YAXPBDZZ    00429db0 f   actionbuttonmanager.obj
 0001:00029730       ?ReleaseTempVertices@tPrimGroup@@UAEXXZ 00429db0 f   pure3dxr:primgroup.obj
 0001:00029730       ?OnFinalize@TimerObjective@@MAEXXZ 00429db0 f   timerobjective.obj
 0001:00029730       ?DisplaySimpleShadow@IEntityDSG@@UAEXXZ 00429db0 f   FenceEntityDSG.obj
 0001:00029730       ?Activate@Behaviour@@UAEXXZ 00429db0 f   attackbehaviour.obj
 0001:00029730       ?OnRegisterDebugControls@StaticCam@@MAEXXZ 00429db0 f   staticcam.obj
 0001:00029730       ?RestartCurrentMission@GameplayManager@@UAEXXZ 00429db0 f   gameplaymanager.obj
 0001:00029730       ?UpdateScale@ArticulatedPhysicsObject@sim@@UAEXXZ 00429db0 f   simxr:articulatedphysicsobject.obj
 0001:00029730       ?Exit@GetOut@CharacterAi@@MAEXXZ 00429db0 f   state.obj
 0001:00029730       ?InitRunning@CGuiScreenScrapBook@@MAEXXZ 00429db0 f   guiscreenscrapbook.obj
 0001:00029730       ?OnRegisterDebugControls@FollowCam@@EAEXXZ 00429db0 f   followcam.obj
 0001:00029730       ?Continue@MusicSoundPlayer@Sound@@UAEXXZ 00429db0 f   musicsoundplayer.obj
 0001:00029730       ?TestJointAngle@PhysicsJoint0D@sim@@MAEXXZ 00429db0 f   simxr:physicsjoint.obj
 0001:00029730       ?InitOutro@CGuiScreenSound@@MAEXXZ 00429db0 f   guiscreensound.obj
 0001:00029730       ?UpdateFootPlant@NPCharacter@@EAEXXZ 00429db0 f   character.obj
 0001:00029730       ?PreRender@d3dToon2VertexShader@@UAEXXZ 00429db0 f   pure3dxr:toon2vertexshader.obj
 0001:00029730       ?OnReset@ButtonHandler@ActionButton@@MAEXXZ 00429db0 f   actionbuttonhandler.obj
 0001:00029730       ?OnFinalize@MissionObjective@@MAEXXZ 00429db0 f   buycarobjective.obj
 0001:00029730       ?OnInitialize@VehicleCondition@@MAEXXZ 00429db0 f   vehiclecondition.obj
 0001:00029730       ?OnRegisterDebugControls@WrecklessCam@@EAEXXZ 00429db0 f   wrecklesscam.obj
 0001:00029730       ??3@YAXPAX0@Z              00429db0 f   roadloader.obj
 0001:00029730       ?OnFinalize@FollowCondition@@MAEXXZ 00429db0 f   followcondition.obj
 0001:00029730       ?SetDebugInfo@EngineState@@UAEXXZ 00429db0 f   vehiclesoundplayer.obj
 0001:00029730       ?RemoveListeners@CGuiScreenMissionLoad@@MAEXXZ 00429db0 f   guiscreenmissionload.obj
 0001:00029730       ?InitOutro@CGuiScreenSplash@@MAEXXZ 00429db0 f   guiscreensplash.obj
 0001:00029730       ?End@d3dExtHardwareSkinning@@UAEXXZ 00429db0 f   pure3dxr:context.obj
 0001:00029730       ?radMemorySpaceInitialize@@YAXXZ 00429db0 f   radcorexr:memoryspacewin32.obj
 0001:00029730       ?InitOutro@CGuiScreenScrapBookStats@@MAEXXZ 00429db0 f   guiscreenscrapbookstats.obj
 0001:00029730       ?Finalize@?$AllocPool@VNISEvent@@@@IAEXXZ 00429db0 f   presentation.obj
 0001:00029730       ?OnResume@ExitContext@@MAEXXZ 00429db0 f   exitcontext.obj
 0001:00029730       ?radMemoryPlatInitialize@@YAXXZ 00429db0 f   radcorexr:platalloc.obj
 0001:00029730       ?InitOutro@CGuiScreenMissionGallery@@MAEXXZ 00429db0 f   guiscreenmissiongallery.obj
 0001:00029730       ?terminate@memory@@YAXXZ   00429db0 f   radmusicxr:memory.obj
 0001:00029730       ?InitRunning@CGuiScreenMissionBase@@UAEXXZ 00429db0 f   guiscreenmissionbase.obj
 0001:00029730       ?CalcPoints@SphereTriggerVolume@@MAEXXZ 00429db0 f   spheretriggervolume.obj
 0001:00029730       ??1SkidMarkGenerator@@QAE@XZ 00429db0 f   SkidMarkGenerator.obj
 0001:00029730       ?OnUnregisterDebugControls@StaticCam@@MAEXXZ 00429db0 f   staticcam.obj
 0001:00029730       ?InitRunning@IGuiScreenRewards@@MAEXXZ 00429db0 f   guiscreenrewards.obj
 0001:00029730       ?Deactivate@Behaviour@@UAEXXZ 00429db0 f   attackbehaviour.obj
 0001:00029730       ?GameObjectDestroyed@AnimSwitch@ActionButton@@UAEXXZ 00429db0 f   actionbuttonhandler.obj
 0001:00029730       ??1FBMemoryPool@@QAE@XZ    00429db0 f   memorypool.obj
 0001:00029730       ?InitRunning@CGuiScreenDemo@@MAEXXZ 00429db0 f   guiscreendemo.obj
 0001:00029730       ?OnRegisterDebugControls@WalkerCam@@EAEXXZ 00429db0 f   walkercam.obj
 0001:00029730       ?state_stopped_start_layer@radmusic@@YAXPAUstruct_music_engine@1@PBD@Z 00429db0 f   radmusicxr:music_engine_state_stopped.obj
 0001:00029730       ?OnDisplay@WalkerCam@@MBEXXZ 00429db0 f   walkercam.obj
 0001:00029730       ??1RayIntersectionInfo@sim@@QAE@XZ 00429db0 f   state.obj
 0001:00029730       ?InitOutro@CGuiScreenScrapBookContents@@MAEXXZ 00429db0 f   guiscreenscrapbookcontents.obj
 0001:00029730       ?Release@radMemoryAllocatorMalloc@@UAEXXZ 00429db0 f   radcorexr:memorymanager.obj
 0001:00029730       ?InitOutro@CGuiScreenLicense@@MAEXXZ 00429db0 f   guiscreenlicense.obj
 0001:00029730       ?InitRunning@CGuiScreenOptions@@MAEXXZ 00429db0 f   guiscreenoptions.obj
 0001:00029730       ?SubmitDynamics@NPCharacter@@UAEXXZ 00429db0 f   character.obj
 0001:00029730       ?UpdateBBox@CollisionVolume@sim@@UAEXXZ 00429db0 f   simxr:collisionvolume.obj
 0001:00029730       ?ResetRestingDetector@SimulatedObject@sim@@UAEXXZ 00429db0 f   simxr:simulatedobject.obj
 0001:00029730       ?InitRunning@CGuiScreenMiniSummary@@MAEXXZ 00429db0 f   guiscreenminisummary.obj
 0001:00029730       ?LoadVSConstants@d3dShader@@UAEXXZ 00429db0 f   pure3dxr:simpleshader.obj
 0001:00029730       ?InitRunning@CGuiScreenLoading@@MAEXXZ 00429db0 f   guiscreenloading.obj
 0001:00029730       ?AddVehicleSelectInfo@ActionButtonManager@@SAXHPAPAD@Z 00429db0 f   actionbuttonmanager.obj
 0001:00029730       ?OnSuspend@PauseContext@@MAEXXZ 00429db0 f   pausecontext.obj
 0001:00029730       ?InitRunning@CGuiScreenMultiHud@@MAEXXZ 00429db0 f   guiscreenmultihud.obj
 0001:00029730       ?UnregisterDebugInfo@SineCosShaker@@UAEXXZ 00429db0 f   sinecosshaker.obj
 0001:00029730       ?OnPlaybackComplete@ActorPlayer@@UAEXXZ 00429db0 f   actorplayer.obj
 0001:00029730       ?InitRunning@CGuiScreenLevelStats@@MAEXXZ 00429db0 f   guiscreenlevelstats.obj
 0001:00029730       ?Display@StaticPhysDSG@@UAEXXZ 00429db0 f   StaticPhysDSG.obj
 0001:00029730       ?InitOutro@CGuiScreenMemCardCheck@@MAEXXZ 00429db0 f   guiscreenmemcardcheck.obj
 0001:00029730       ?AddRef@stream_graph_callback@radmusic@@UAEXXZ 00429db0 f   radmusicxr:sequence_stream_graph.obj
 0001:00029730       ?OnUnregisterDebugControls@KullCam@@EAEXXZ 00429db0 f   kullcam.obj
 0001:00029730       ?Initialize@TimeRemainBonusObjective@@UAEXXZ 00429db0 f   timeremainbonusobjective.obj
 0001:00029730       ??1PhysicsRestingDetector@sim@@IAE@XZ 00429db0 f   simxr:restingdetector.obj
 0001:00029730       ?OnPlaybackComplete@VehicleSoundPlayer@@UAEXXZ 00429db0 f   vehiclesoundplayer.obj
 0001:00029730       ?OnUnregisterDebugControls@ConversationCam@@EAEXXZ 00429db0 f   conversationcam.obj
 0001:00029730       ?InitRunning@CGuiScreenController@@MAEXXZ 00429db0 f   guiscreencontroller.obj
 0001:00029730       ?DoPostDynaLoad@RenderLayer@@UAEXXZ 00429db0 f   RenderLayer.obj
 0001:00029730       ?radDbgComTargetTerminate@@YAXXZ 00429db0 f   radcorexr:targetx.obj
 0001:00029730       ?InitRunning@CGuiScreenLoadingFE@@MAEXXZ 00429db0 f   guiscreenloadingfe.obj
 0001:00029730       ?OnUnregisterDebugControls@BumperCam@@EAEXXZ 00429db0 f   bumpercam.obj
 0001:00029730       ?InitRunning@CGuiScreenMiniPause@@MAEXXZ 00429db0 f   guiscreenminipause.obj
 0001:00029730       ??1CollisionAnalyserEvent@sim@@QAE@XZ 00429db0 f   simxr:collisionanalyserdata.obj
 0001:00029730       ?OnFinalize@VehicleCondition@@MAEXXZ 00429db0 f   vehiclecondition.obj
 0001:00029730       ?OnSuspend@SuperSprintFEContext@@MAEXXZ 00429db0 f   supersprintfecontext.obj
 0001:00029730       ?InitIntro@CGuiScreenSplash@@MAEXXZ 00429db0 f   guiscreensplash.obj
 0001:00029730       ?InitRunning@CGuiScreenVehicleGallery@@MAEXXZ 00429db0 f   guiscreenvehiclegallery.obj
 0001:00029730       ?OnStart@BonusObjective@@MAEXXZ 00429db0 f   nocopbonusobjective.obj
 0001:00029730       ?Release@StaticHeap@@UAEXXZ 00429db0 f   radcorexr:staticheap.obj
 0001:00029730       ?OnShutdown@SuperCam@@MAEXXZ 00429db0 f   bumpercam.obj
 0001:00029730       ?state_stopped_stop_layer@radmusic@@YAXPAUstruct_music_engine@1@PBD@Z 00429db0 f   radmusicxr:music_engine_state_stopped.obj
 0001:00029730       ?OnUnregisterDebugControls@FollowCam@@EAEXXZ 00429db0 f   followcam.obj
 0001:00029730       ?OnStart@NoCopBonusObjective@@MAEXXZ 00429db0 f   nocopbonusobjective.obj
 0001:00029730       ?AddRef@MemoryCardManager@@UAEXXZ 00429db0 f   memorycardmanager.obj
 0001:00029730       ?OnInit@AnimSwitch@ActionButton@@MAEXXZ 00429db0 f   actionbuttonhandler.obj
 0001:00029730       ?OnSoundReady@VehicleSoundPlayer@@UAEXXZ 00429db0 f   vehiclesoundplayer.obj
 0001:00029730       ?Begin@d3dExtHardwareSkinning@@UAEXXZ 00429db0 f   pure3dxr:context.obj
 0001:00029730       ?InitRunning@CGuiScreenTutorial@@MAEXXZ 00429db0 f   guiscreentutorial.obj
 0001:00029730       ?CleanUp@CGuiWindow@@MAEXXZ 00429db0 f   guiwindow.obj
 0001:00029730       ?OnDisplay@SuperCam@@MBEXXZ 00429db0 f   animatedcam.obj
 0001:00029730       ?InitRunning@CGuiScreenMissionGallery@@MAEXXZ 00429db0 f   guiscreenmissiongallery.obj
 0001:00029730       ??1HuskPool@@QAE@XZ        00429db0 f   huskpool.obj
 0001:00029730       ?RenderUpdate@StaticEntityDSG@@UAEXXZ 00429db0 f   StaticEntityDSG.obj
 0001:00029730       ?OnRegisterDebugControls@ConversationCam@@EAEXXZ 00429db0 f   conversationcam.obj
 0001:00029730       ?AddFlyDownCoin@CoinManager@@QAEXXZ 00429db0 f   coinmanager.obj
 0001:00029730       ?DisplayShadow@IEntityDSG@@UAEXXZ 00429db0 f   actordsg.obj
 0001:00029730       ??1Collision@sim@@QAE@XZ   00429db0 f   state.obj
 0001:00029730       ?AddRef@daSoundResourceData@@UAEXXZ 00429db0 f   soundresource.obj
 0001:00029730       ?AddCacheToDeformationSpeed@PhysicsJoint0D@sim@@MAEXXZ 00429db0 f   simxr:physicsjoint.obj
 0001:00029730       ?OnTransitToAICtrl@DynaPhysDSG@@UAEXXZ 00429db0 f   actordsg.obj
 0001:00029730       ?OnUnregisterDebugControls@WrecklessCam@@EAEXXZ 00429db0 f   wrecklesscam.obj
 0001:00029730       ?OnReachedWaypoint@NPCController@@MAEXXZ 00429db0 f   charactercontroller.obj
 0001:00029730       ?radSoundPrintBanner@@YAXXZ 00429db0 f   radsoundxr:banner.obj
 0001:00029730       ?Finalize@pddiPrimBuffer@@UAEXXZ 00429db0 f   pure3dxr:prim.obj
 0001:00029730       ?OnInitialize@MissionCondition@@MAEXXZ 00429db0 f   collectdumpedobjective.obj
 0001:00029730       ?InitRunning@CGuiScreenCardGallery@@MAEXXZ 00429db0 f   guiscreencardgallery.obj
 0001:00029730       ?PreRender@d3dToonVertexShader@@UAEXXZ 00429db0 f   pure3dxr:toonvertexshader.obj
 0001:00029730       ?DeactivateBehaviours@Actor@@UAEXXZ 00429db0 f   actor.obj
 0001:00029730       ?PreRender@d3dRefractVertexShader@@MAEXXZ 00429db0 f   pure3dxr:refractshader.obj
 0001:00029730       ?Display@IntersectDSG@@UAEXXZ 00429db0 f   IntersectDSG.obj
 0001:00029730       ?InitRunning@CGuiScreenMissionOver@@MAEXXZ 00429db0 f   guiscreenmissionover.obj
 0001:00029730       ?SetHitNRun@MissionScriptLoader@@CAXHPAPAD@Z 00429db0 f   missionscriptloader.obj
 0001:00029730       ?Finalize@?$AllocPool@VFMVEvent@@@@IAEXXZ 00429db0 f   presentation.obj
 0001:00029730       ?PostRender@d3dToon2VertexShader@@UAEXXZ 00429db0 f   pure3dxr:toon2vertexshader.obj
 0001:00029730       ?Finalize@?$AllocPool@VTransitionEvent@@@@IAEXXZ 00429db0 f   presentation.obj
 0001:00029730       ?Finalize@TimeRemainBonusObjective@@UAEXXZ 00429db0 f   timeremainbonusobjective.obj
 0001:00029730       ??1tName@@QAE@XZ           00429db0 f   pure3dxr:entity.obj
 0001:00029730       ?Release@daSoundResourceData@@UAEXXZ 00429db0 f   soundresource.obj
 0001:00029730       ?InitOutro@CGuiScreenScrapBook@@MAEXXZ 00429db0 f   guiscreenscrapbook.obj
 0001:00029730       ??1tImageGlyph@@QAE@XZ     00429db0 f   pure3dxr:imagefont.obj
 0001:00029730       ?Reload@FeScreen@@UAEXXZ   00429db0 f   ScroobyLib:FeScreen.obj
 0001:00029730       ?ResetData@InputManager@@UAEXXZ 00429db0 f   inputmanager.obj
 0001:00029730       ?RegisterEventListeners@SoundFXPauseLogic@@UAEXXZ 00429db0 f   soundfxpauselogic.obj
 0001:00029730       ?radDbgComTargetInitialize@@YAXW4radDbgComType@@GPAXH@Z 00429db0 f   radcorexr:targetx.obj
 0001:00029730       ?LoadMission@SuperSprintManager@@MAEXXZ 00429db0 f   supersprintmanager.obj
 0001:00029730       ?InitOutro@CGuiScreenIntroTransition@@MAEXXZ 00429db0 f   guiscreenmainmenu.obj
 0001:00029730       ?Prefetch@d3dTexture@@UAEXXZ 00429db0 f   pure3dxr:texture.obj
 0001:00029730       ?AddRef@StaticHeap@@UAEXXZ 00429db0 f   radcorexr:staticheap.obj
 0001:00029730       ?OnInit@SuperSprintCam@@MAEXXZ 00429db0 f   supersprintcam.obj
 0001:00029730       ?SetDebugInfo@NormalEngineState@@UAEXXZ 00429db0 f   vehiclesoundplayer.obj
 0001:00029730       ?PostRender@pddiBaseShader@@MAEXXZ 00429db0 f   pure3dxr:refractshader.obj
 0001:00029730       ?InitOutro@CGuiScreenLevelStats@@MAEXXZ 00429db0 f   guiscreenlevelstats.obj
 0001:00029730       ?Display@FeDrawable@@UAEXXZ 00429db0 f   ScroobyLib:FeDrawable.obj
 0001:00029730       ?InitRunning@CGuiScreenSaveGame@@MAEXXZ 00429db0 f   guiscreensavegame.obj
 0001:00029730       ?SetRotation@CollisionVolume@sim@@MAEXXZ 00429db0 f   simxr:collisionvolume.obj
 0001:00029730       ?OnSoundReady@DialogQueueElement@@UAEXXZ 00429db0 f   dialogqueueelement.obj
 0001:00029730       ?PreSubstepUpdate@PhysicsLocomotion@@UAEXXZ 00429db0 f   physicslocomotion.obj
 0001:00029730       ?SequenceAction@NoState@CharacterAi@@MAEXXZ 00429db0 f   statemanager.obj
 0001:00029730       ?ConvertToPlatformEndian@radSoundHalFileHeader@@QAEXXZ 00429db0 f   radsoundxr:radsoundfile.obj
 0001:00029730       ?CleanMissionData@SuperSprintManager@@UAEXXZ 00429db0 f   supersprintmanager.obj
 0001:00029730       ?PreRender@d3dSpheremapVertexShader@@UAEXXZ 00429db0 f   pure3dxr:spheremapshader.obj
 0001:00029730       ?OnResume@BootupContext@@MAEXXZ 00429db0 f   bootupcontext.obj
 0001:00029730       ??1JointState@SimStateArticulated@sim@@IAE@XZ 00429db0 f   simxr:simstatearticulated.obj
 0001:00029730       ?Setup@tContext@@AAEXXZ    00429db0 f   pure3dxr:context.obj
 0001:00029730       ?CalcPoints@RectTriggerVolume@@MAEXXZ 00429db0 f   recttriggervolume.obj
 0001:00029730       ?InitLevelData@SuperSprintManager@@UAEXXZ 00429db0 f   supersprintmanager.obj
 0001:00029730       ?InitOutro@CGuiScreenDemo@@MAEXXZ 00429db0 f   guiscreendemo.obj
 0001:00029730       ?InitPoints@SphereTriggerVolume@@MAEXXZ 00429db0 f   spheretriggervolume.obj
 0001:00029730       ?InitIntro@CGuiScreenLanguage@@MAEXXZ 00429db0 f   guiscreenlanguage.obj
 0001:00029730       ?SetDebugInfo@DownshiftEngineState@@UAEXXZ 00429db0 f   vehiclesoundplayer.obj
 0001:00029730       ?Shutdown@VehicleController@@UAEXXZ 00429db0 f   chaseai.obj
 0001:00029730       ?InitIntro@CGuiScreenAutoLoad@@MAEXXZ 00429db0 f   guiscreenloadgame.obj
 0001:00029730       ?OnResume@SuperSprintFEContext@@MAEXXZ 00429db0 f   supersprintfecontext.obj
 0001:00029730       ?InitRunning@CGuiScreenLanguage@@MAEXXZ 00429db0 f   guiscreenlanguage.obj
 0001:00029730       ?OnStart@RacePositionBonusObjective@@MAEXXZ 00429db0 f   racepositionbonusobjective.obj
 0001:00029730       ?ServiceOncePerFrame@MusicSoundPlayer@Sound@@UAEXXZ 00429db0 f   musicsoundplayer.obj
 0001:00029730       ?SetCarStartCamera@MissionScriptLoader@@CAXHPAPAD@Z 00429db0 f   missionscriptloader.obj
 0001:00029730       ?OnRegisterDebugControls@KullCam@@EAEXXZ 00429db0 f   kullcam.obj
 0001:00029730       ?SetDebugInfo@SkidEngineState@@UAEXXZ 00429db0 f   vehiclesoundplayer.obj
 0001:00029730       ?RenderUpdate@WorldSphereDSG@@UAEXXZ 00429db0 f   WorldSphereDSG.obj
 0001:00029730       ?OnUnregisterDebugControls@DebugCam@@EAEXXZ 00429db0 f   debugcam.obj
 0001:00029730       ?Enter@NoState@CharacterAi@@MAEXXZ 00429db0 f   statemanager.obj
 0001:00029730       ?uint32_instance_destroy@ods@@YAXABVpointer@1@0@Z 00429db0 f   radmusicxr:ods.obj
 0001:00029730       ?OnRegisterDebugControls@TrackerCam@@EAEXXZ 00429db0 f   trackercam.obj
 0001:00029730       ?AddRef@radMemoryAllocatorMalloc@@UAEXXZ 00429db0 f   radcorexr:memorymanager.obj
 0001:00029730       ??1Joint@poser@@QAE@XZ     00429db0 f   poserxr:joint.obj
 0001:00029730       ?Activate@Actor@@UAEXXZ    00429db0 f   actor.obj
 0001:00029730       ?Shutdown@tContext@@AAEXXZ 00429db0 f   pure3dxr:context.obj
 0001:00029730       ??1d3dVertexProgramManager@@QAE@XZ 00429db0 f   pure3dxr:vertprog.obj
 0001:00029730       ?RecordRestSeatingPositionsOnEntry@Vehicle@@QAEXXZ 00429db0 f   vehicle.obj
 0001:00029730       ?OnResume@PlayingContext@@MAEXXZ 00429db0 f   playingcontext.obj
 0001:00029730       ?OnResume@PauseContext@@MAEXXZ 00429db0 f   pausecontext.obj
 0001:00029730       ?InitOutro@CGuiScreenMiniSummary@@MAEXXZ 00429db0 f   guiscreenminisummary.obj
 0001:00029730       ??1CubicBezier@@QAE@XZ     00429db0 f   geometry.obj
 0001:00029730       ?InitIntro@CGuiScreenMiniHud@@MAEXXZ 00429db0 f   guiscreenminihud.obj
 0001:00029730       ?Reset@AnimationJointDriver@choreo@@UAEXXZ 00429db0 f   choreoxr:animation.obj
 0001:00029730       ?InitOutro@CGuiScreenLanguage@@MAEXXZ 00429db0 f   guiscreenlanguage.obj
 0001:00029730       ?PrepareNewHeaps@LoadingSuperSprintContext@@MAEXXZ 00429db0 f   loadingsupersprintcontext.obj
 0001:00029730       ?UpdateUnits@SimUnits@sim@@UAEXXZ 00429db0 f   simxr:physicsproperties.obj
 0001:00029730       ?InitController@RailCam@@UAEXXZ 00429db0 f   railcam.obj
 0001:00029730       ?OnResume@EntryContext@@MAEXXZ 00429db0 f   entrycontext.obj
 0001:00029730       ?OnRegisterDebugControls@BumperCam@@EAEXXZ 00429db0 f   bumpercam.obj
 0001:00029730       ??1RespawnManager@@QAE@XZ  00429db0 f   respawnmanager.obj
 0001:00029730       ?InitRunning@CGuiScreenScrapBookStats@@MAEXXZ 00429db0 f   guiscreenscrapbookstats.obj
 0001:00029730       ?Pause@MusicSoundPlayer@Sound@@UAEXXZ 00429db0 f   musicsoundplayer.obj
 0001:00029730       ?printf@p3d@@YAXPBDZZ      00429db0 f   pure3dxr:utility.obj
 0001:00029730       ?UpdateForPhysicsProperties@SimulatedObject@sim@@UAEXXZ 00429db0 f   simxr:simulatedobject.obj
 0001:00029730       ?PreUpdate@PhysicsLocomotion@@UAEXXZ 00429db0 f   physicslocomotion.obj
 0001:00029730       ?OnPlaybackComplete@SoundFXLogic@@UAEXXZ 00429db0 f   soundfxlogic.obj
 0001:00029730       ?OnRegisterDebugControls@ChaseCam@@EAEXXZ 00429db0 f   chasecam.obj
 0001:00029730       ?InitRunning@CGuiScreenPrompt@@MAEXXZ 00429db0 f   guiscreenprompt.obj
 0001:00029730       ?PreSubstepUpdate@TrafficLocomotion@@UAEXXZ 00429db0 f   trafficlocomotion.obj
 0001:00029730       ?DoCollisionTesting@StatePropCollectible@@IAEXXZ 00429db0 f   statepropcollectible.obj
 0001:00029730       ?Release@stream_graph_callback@radmusic@@UAEXXZ 00429db0 f   radmusicxr:sequence_stream_graph.obj
 0001:00029730       ?InitRunning@CGuiScreenSkinGallery@@MAEXXZ 00429db0 f   guiscreenskingallery.obj
 0001:00029730       ?PerformLoading@SuperSprintManager@@UAEXXZ 00429db0 f   supersprintmanager.obj
 0001:00029730       ?Render@TriggerVolumeTracker@@QAEXXZ 00429db0 f   triggervolumetracker.obj
 0001:00029730       ??1FileCache@@QAE@XZ       00429db0 f   radcorexr:filecache.obj
 0001:00029730       ?char_instance_destroy@ods@@YAXABVpointer@1@0@Z 00429db0 f   radmusicxr:ods.obj
 0001:00029730       ?SetDebugInfo@InAirEngineState@@UAEXXZ 00429db0 f   vehiclesoundplayer.obj
 0001:00029730       ?OnResume@LoadingContext@@MAEXXZ 00429db0 f   loadingcontext.obj
 0001:00029730       ?DoLoaded@FMVPlayer@@MAEXXZ 00429db0 f   fmvplayer.obj
 0001:00029730       ?Release@MemoryCardManager@@UAEXXZ 00429db0 f   memorycardmanager.obj
 0001:00029730       ?radMemoryPlatTerminate@@YAXXZ 00429db0 f   radcorexr:platalloc.obj
 0001:00029730       ??1d3dPrimStream@@QAE@XZ   00429db0 f   pure3dxr:primstream.obj
 0001:00029730       ?InitOutro@CGuiScreenMessage@@MAEXXZ 00429db0 f   guiscreenmessage.obj
 0001:00029730       ?InitRunning@CGuiScreenMemoryCard@@MAEXXZ 00429db0 f   guiscreenmemorycard.obj
 0001:00029730       ?InitOutro@CGuiScreenMemoryCard@@MAEXXZ 00429db0 f   guiscreenmemorycard.obj
 0001:00029730       ?OnSoundReady@ActorPlayer@@UAEXXZ 00429db0 f   actorplayer.obj
 0001:00029730       ?InitOutro@CGuiScreenMissionSelect@@MAEXXZ 00429db0 f   guiscreenmissionselect.obj
 0001:00029730       ?InitRunning@CGuiScreenPauseOptions@@MAEXXZ 00429db0 f   guiscreenpauseoptions.obj
 0001:00029740       ??_ETrackerCam@@UAEPAXI@Z  00429dc0 f i trackercam.obj
 0001:00029740       ??_GTrackerCam@@UAEPAXI@Z  00429dc0 f i trackercam.obj
 0001:00029760       ?Update@TrackerCam@@UAEXI@Z 00429de0 f   trackercam.obj
 0001:00029a90       ??_GWalkerCamData@@UAEPAXI@Z 0042a110 f i walkercam.obj
 0001:00029a90       ??_EWalkerCamData@@UAEPAXI@Z 0042a110 f i walkercam.obj
 0001:00029ab0       ??1WalkerCam@@UAE@XZ       0042a130 f   walkercam.obj
 0001:00029ad0       ?GetIntersectionRadius@WalkerCam@@UBEMXZ 0042a150 f i walkercam.obj
 0001:00029ae0       ?GetName@WalkerCam@@UBEQBDXZ 0042a160 f i walkercam.obj
 0001:00029af0       ?SetCollisionOffset@WalkerCam@@UAEXPBVVector@RadicalMathLibrary@@IABV23@@Z 0042a170 f i walkercam.obj
 0001:00029b30       ?UpdatePositionOneCollsion@WalkerCam@@AAE_NIMI@Z 0042a1b0 f   walkercam.obj
 0001:00029c10       ?IsStickStill@WalkerCam@@AAE_NXZ 0042a290 f   walkercam.obj
 0001:00029c40       ?GetTargetPosition@WalkerCam@@ABEXPAVVector@RadicalMathLibrary@@_N@Z 0042a2c0 f   walkercam.obj
 0001:00029d00       ?IsTargetNearPed@WalkerCam@@AAEMI@Z 0042a380 f   walkercam.obj
 0001:00029f70       ??0WalkerCamData@@QAE@XZ   0042a5f0 f i walkercam.obj
 0001:0002a000       ??0WalkerCam@@QAE@XZ       0042a680 f   walkercam.obj
 0001:0002a0e0       ??_GWalkerCam@@UAEPAXI@Z   0042a760 f i walkercam.obj
 0001:0002a0e0       ??_EWalkerCam@@UAEPAXI@Z   0042a760 f i walkercam.obj
 0001:0002a100       ?UpdatePositionMultipleCollision@WalkerCam@@AAEXIM@Z 0042a780 f   walkercam.obj
 0001:0002a550       ?IsPushingStick@WalkerCam@@AAE_NXZ 0042abd0 f   walkercam.obj
 0001:0002a600       ?UpdatePositionNormal@WalkerCam@@AAEXIM@Z 0042ac80 f   walkercam.obj
 0001:0002b090       ?UpdatePositionInCollision@WalkerCam@@AAEXIM@Z 0042b710 f   walkercam.obj
 0001:0002b100       ??0?$Iterator@VWalkerCamDataChunk@@@tInventory@@QAE@XZ 0042b780 f i walkercam.obj
 0001:0002b190       ?Next@?$Iterator@VWalkerCamDataChunk@@@tInventory@@QAEPAVWalkerCamDataChunk@@XZ 0042b810 f i walkercam.obj
 0001:0002b1d0       ?Update@WalkerCam@@UAEXI@Z 0042b850 f   walkercam.obj
 0001:0002b570       ?UpdateForPhysics@WalkerCam@@UAEXI@Z 0042bbf0 f   walkercam.obj
 0001:0002b970       ?SetTarget@WalkerCam@@UAEXPAVISuperCamTarget@@@Z 0042bff0 f   walkercam.obj
 0001:0002bb20       ??0WrecklessCam@@QAE@XZ    0042c1a0 f   wrecklesscam.obj
 0001:0002bbd0       ?GetName@WrecklessCam@@UBEQBDXZ 0042c250 f i wrecklesscam.obj
 0001:0002bbe0       ?GetNumTargets@FollowCam@@UBEIXZ 0042c260 f i followcam.obj
 0001:0002bbe0       ?GetNumTargets@WrecklessCam@@UBEIXZ 0042c260 f i wrecklesscam.obj
 0001:0002bbf0       ??1WrecklessCam@@UAE@XZ    0042c270 f   wrecklesscam.obj
 0001:0002bc50       ?Update@WrecklessCam@@UAEXI@Z 0042c2d0 f   wrecklesscam.obj
 0001:0002bde0       ?SetTarget@WrecklessCam@@UAEXPAVISuperCamTarget@@@Z 0042c460 f   wrecklesscam.obj
 0001:0002be40       ??_EWrecklessCam@@UAEPAXI@Z 0042c4c0 f i wrecklesscam.obj
 0001:0002be40       ??_GWrecklessCam@@UAEPAXI@Z 0042c4c0 f i wrecklesscam.obj
 0001:0002be60       ??0?$Iterator@VEventLocator@@@tInventory@@QAE@XZ 0042c4e0 f i wrecklesscam.obj
 0001:0002bef0       ?Next@?$Iterator@VEventLocator@@@tInventory@@QAEPAVEventLocator@@XZ 0042c570 f i wrecklesscam.obj
 0001:0002bf30       ?OnInit@WrecklessCam@@MAEXXZ 0042c5b0 f   wrecklesscam.obj
 0001:0002c100       ?OnShutdown@WrecklessCam@@MAEXXZ 0042c780 f   wrecklesscam.obj
 0001:0002c270       ??1WrecklessEventListener@@UAE@XZ 0042c8f0 f   wrecklesseventlistener.obj
 0001:0002c280       ?HandleEvent@WrecklessEventListener@@UAEXW4EventEnum@@PAX@Z 0042c900 f   wrecklesseventlistener.obj
 0001:0002c2c0       ??0WrecklessEventListener@@QAE@XZ 0042c940 f   wrecklesseventlistener.obj
 0001:0002c2f0       ??_EWrecklessEventListener@@UAEPAXI@Z 0042c970 f i wrecklesseventlistener.obj
 0001:0002c2f0       ??_GWrecklessEventListener@@UAEPAXI@Z 0042c970 f i wrecklesseventlistener.obj
 0001:0002c310       ??0BonusCard@@QAE@IIIVtUidUnaligned@@PBW4eQuoteID@@H@Z 0042c990 f   bonuscard.obj
 0001:0002c360       ??1BonusCard@@UAE@XZ       0042c9e0 f   bonuscard.obj
 0001:0002c370       ??_GBonusCard@@UAEPAXI@Z   0042c9f0 f i bonuscard.obj
 0001:0002c370       ??_EBonusCard@@UAEPAXI@Z   0042c9f0 f i bonuscard.obj
 0001:0002c390       ??0Card@@QAE@IIIVtUidUnaligned@@PBW4eQuoteID@@H@Z 0042ca10 f   card.obj
 0001:0002c3f0       ??1Card@@UAE@XZ            0042ca70 f   card.obj
 0001:0002c400       ?GetQuoteID@Card@@QBE?AW4eQuoteID@@H@Z 0042ca80 f   card.obj
 0001:0002c410       ??_GCard@@UAEPAXI@Z        0042ca90 f i card.obj
 0001:0002c410       ??_ECard@@UAEPAXI@Z        0042ca90 f i card.obj
 0001:0002c430       ??0CardList@@QAE@XZ        0042cab0 f   cardgallery.obj
 0001:0002c460       ?Add@CardList@@QAEXPAVCard@@@Z 0042cae0 f   cardgallery.obj
 0001:0002c480       ?Empty@CardList@@QAEXXZ    0042cb00 f   cardgallery.obj
 0001:0002c4a0       ?DestroyInstance@CardGallery@@SAXXZ 0042cb20 f   cardgallery.obj
 0001:0002c4c0       ?GetInstance@CardGallery@@SAPAV1@XZ 0042cb40 f   cardgallery.obj
 0001:0002c4d0       ??1CardGallery@@UAE@XZ     0042cb50 f   cardgallery.obj
 0001:0002c510       ?Init@CardGallery@@QAEXXZ  0042cb90 f   cardgallery.obj
 0001:0002c560       ?RemoveAllCollectedCards@CardGallery@@QAEXXZ 0042cbe0 f   cardgallery.obj
 0001:0002c590       ?GetCollectedCards@CardGallery@@QBEPBUCardList@@I@Z 0042cc10 f   cardgallery.obj
 0001:0002c5a0       ?IsCardCollected@CardGallery@@QBE_NVtUidUnaligned@@@Z 0042cc20 f   cardgallery.obj
 0001:0002c5e0       ?IsCardDeckComplete@CardGallery@@QBE_NI@Z 0042cc60 f   cardgallery.obj
 0001:0002c600       ?SaveData@CardGallery@@UAEXPAEI@Z 0042cc80 f   cardgallery.obj
 0001:0002c720       ?ResetData@CardGallery@@UAEXXZ 0042cda0 f i cardgallery.obj
 0001:0002c730       ??0CardGallery@@QAE@XZ     0042cdb0 f   cardgallery.obj
 0001:0002c7f0       ??_GCardGallery@@UAEPAXI@Z 0042ce70 f i cardgallery.obj
 0001:0002c7f0       ??_ECardGallery@@UAEPAXI@Z 0042ce70 f i cardgallery.obj
 0001:0002c810       ?GetNumCardDecksCompleted@CardGallery@@QBEHXZ 0042ce90 f   cardgallery.obj
 0001:0002c830       ?AddCollectedCard@CardGallery@@AAEXPAVCard@@@Z 0042ceb0 f   cardgallery.obj
 0001:0002c860       ?CreateInstance@CardGallery@@SAPAV1@XZ 0042cee0 f   cardgallery.obj
 0001:0002c8e0       ?AddCollectedCardByID@CardGallery@@QAEPAVCard@@I@Z 0042cf60 f   cardgallery.obj
 0001:0002c910       ?AddCollectedCardByName@CardGallery@@QAEPAVCard@@VtUidUnaligned@@@Z 0042cf90 f   cardgallery.obj
 0001:0002c940       ?AddAllCollectedCards@CardGallery@@QAEXXZ 0042cfc0 f   cardgallery.obj
 0001:0002c970       ?LoadData@CardGallery@@UAEXPBEI@Z 0042cff0 f   cardgallery.obj
 0001:0002c9c0       ?OnCheatEntered@CardGallery@@UAEXW4eCheatID@@_N@Z 0042d040 f   cardgallery.obj
 0001:0002c9e0       ??0CardsDB@@QAE@XZ         0042d060 f   cardsdb.obj
 0001:0002ca50       ??1CardsDB@@UAE@XZ         0042d0d0 f   cardsdb.obj
 0001:0002caa0       ?GetCardByName@CardsDB@@QAEPAVCard@@VtUidUnaligned@@@Z 0042d120 f   cardsdb.obj
 0001:0002cb10       ??_ECardsDB@@UAEPAXI@Z     0042d190 f i cardsdb.obj
 0001:0002cb10       ??_GCardsDB@@UAEPAXI@Z     0042d190 f i cardsdb.obj
 0001:0002cb30       ?LoadCards@CardsDB@@QAEXXZ 0042d1b0 f   cardsdb.obj
 0001:0002cc60       ??0CollectorCard@@QAE@IIIVtUidUnaligned@@PBW4eQuoteID@@H@Z 0042d2e0 f   collectorcard.obj
 0001:0002ccb0       ??1CollectorCard@@UAE@XZ   0042d330 f   collectorcard.obj
 0001:0002ccc0       ??_ECollectorCard@@UAEPAXI@Z 0042d340 f i collectorcard.obj
 0001:0002ccc0       ??_GCollectorCard@@UAEPAXI@Z 0042d340 f i collectorcard.obj
 0001:0002cce0       ??3FunctionTableEntry@Console@@SAXPAXI@Z 0042d360 f i console.obj
 0001:0002cd00       ?GetInstance@Console@@SAPAV1@XZ 0042d380 f   console.obj
 0001:0002cd10       ?OnResume@LoadingSuperSprintContext@@MAEXXZ 0042d390 f i loadingsupersprintcontext.obj
 0001:0002cd10       ?OnSuspend@LoadingGameplayContext@@MAEXXZ 0042d390 f i loadinggameplaycontext.obj
 0001:0002cd10       ?OnResume@LoadingDemoContext@@MAEXXZ 0042d390 f i loadingdemocontext.obj
 0001:0002cd10       ?OnResume@GameplayContext@@MAEXXZ 0042d390 f i gameplaycontext1.obj
 0001:0002cd10       ?InitRunning@CGuiScreenPauseSound@@MAEXXZ 0042d390 f i guiscreenpausesound.obj
 0001:0002cd10       ??1tTextureGlyph@@QAE@XZ   0042d390 f i pure3dxr:texturefont.obj
 0001:0002cd10       ?OnSuspend@SuperSprintContext@@MAEXXZ 0042d390 f i supersprintcontext.obj
 0001:0002cd10       ?OnResume@LoadingGameplayContext@@MAEXXZ 0042d390 f i loadinggameplaycontext.obj
 0001:0002cd10       ?InitRunning@CGuiScreenPauseController@@MAEXXZ 0042d390 f i guiscreenpausecontroller.obj
 0001:0002cd10       ?OnSuspend@LoadingDemoContext@@MAEXXZ 0042d390 f i loadingdemocontext.obj
 0001:0002cd10       ??1MouthFlapperDefaultSetting@@QAE@XZ 0042d390 f i mouthflapper.obj
 0001:0002cd10       ?OnResume@DemoContext@@MAEXXZ 0042d390 f i democontext.obj
 0001:0002cd10       ??1tNameInsensitive@@QAE@XZ 0042d390 f i console.obj
 0001:0002cd10       ?OnResume@SuperSprintContext@@MAEXXZ 0042d390 f i supersprintcontext.obj
 0001:0002cd10       ??1InteriorCentre@@QAE@XZ  0042d390 f i interiormanager.obj
 0001:0002cd10       ??1UsedModel@PedestrianManager@@QAE@XZ 0042d390 f i pedestrianmanager.obj
 0001:0002cd10       ?InitOutro@CGuiScreenPauseSound@@MAEXXZ 0042d390 f i guiscreenpausesound.obj
 0001:0002cd10       ?OnSuspend@LoadingSuperSprintContext@@MAEXXZ 0042d390 f i loadingsupersprintcontext.obj
 0001:0002cd10       ?OnSuspend@GameplayContext@@MAEXXZ 0042d390 f i gameplaycontext1.obj
 0001:0002cd10       ?OnSuspend@DemoContext@@MAEXXZ 0042d390 f i democontext.obj
 0001:0002cd20       ?FlushLogFile@Console@@AAEXXZ 0042d3a0 f   console.obj
 0001:0002cd80       ?SkipWhiteSpace@Console@@AAEPADPBD@Z 0042d400 f   console.obj
 0001:0002cdd0       ?FoundComment@Console@@AAE_NPAPAD@Z 0042d450 f   console.obj
 0001:0002ce60       ?FindTokenEnd@Console@@AAEPADPBD@Z 0042d4e0 f   console.obj
 0001:0002ceb0       ?GetNextToken@Console@@AAEPADPAPADPAD@Z 0042d530 f   console.obj
 0001:0002cff0       ?ExecuteScript@Console@@QAEXPBDPAUExecuteScriptCallback@1@PAX_N@Z 0042d670 f   console.obj
 0001:0002d030       ?OnProcessRequestsComplete@Console@@UAEXPAX@Z 0042d6b0 f   console.obj
 0001:0002d040       ??0FunctionTableEntry@Console@@QAE@PBDP6AXHPAPAD@Z0HH@Z 0042d6c0 f   console.obj
 0001:0002d0f0       ??0FunctionTableEntry@Console@@QAE@PBDP6A_NHPAPAD@Z0HH@Z 0042d770 f   console.obj
 0001:0002d1a0       ??0Console@@AAE@XZ         0042d820 f   console.obj
 0001:0002d310       ??1FunctionTableEntry@Console@@QAE@XZ 0042d990 f i console.obj
 0001:0002d360       ?AddFunc@Console@@AAE_NPBDP6AXHPAPAD@ZP6A_NH1@Z0HH@Z 0042d9e0 f   console.obj
 0001:0002d580       ?ReadToken@Console@@AAE_NPAPADPBD@Z 0042dc00 f   console.obj
 0001:0002d600       ?Evaluate@Console@@QAE_NPBD0@Z 0042dc80 f   console.obj
 0001:0002dba0       ?CreateInstance@Console@@SAPAV1@XZ 0042e220 f   console.obj
 0001:0002dc20       ?AddFunction@Console@@QAE_NPBDP6AXHPAPAD@Z0HH@Z 0042e2a0 f   console.obj
 0001:0002dc60       ??1Console@@AAE@XZ         0042e2e0 f   console.obj
 0001:0002dd60       ?DestroyInstance@Console@@SAXXZ 0042e3e0 f   console.obj
 0001:0002dd90       ?smStricmp@@YAHPBD0@Z      0042e410 f   fbstricmp.obj
 0001:0002de00       ?SetText@tNameInsensitive@@QAEXPBD@Z 0042e480 f   nameinsensitive.obj
 0001:0002de60       ??0tNameInsensitive@@QAE@PBD@Z 0042e4e0 f   nameinsensitive.obj
 0001:0002deb0       ??4tNameInsensitive@@QAEABV0@PBD@Z 0042e530 f   nameinsensitive.obj
 0001:0002ded0       ?Upcase@@YAXPAD@Z          0042e550 f   upcase.obj
 0001:0002df10       ?StartMovies@BootupContext@@QAEXXZ 0042e590 f   bootupcontext.obj
 0001:0002e0c0       ?StartLoadingSound@BootupContext@@QAEXXZ 0042e740 f   bootupcontext.obj
 0001:0002e100       ?OnStart@BootupContext@@MAEXW4ContextEnum@@@Z 0042e780 f   bootupcontext.obj
 0001:0002e2c0       ?OnStop@BootupContext@@MAEXW4ContextEnum@@@Z 0042e940 f   bootupcontext.obj
 0001:0002e300       ?OnUpdate@BootupContext@@MAEXI@Z 0042e980 f   bootupcontext.obj
 0001:0002e370       ?OnProcessRequestsComplete@BootupContext@@MAEXPAX@Z 0042e9f0 f   bootupcontext.obj
 0001:0002e3b0       ?OnPresentationEventEnd@BootupContext@@MAEXPAVPresentationEvent@@@Z 0042ea30 f   bootupcontext.obj
 0001:0002e3f0       ??1BootupContext@@EAE@XZ   0042ea70 f   bootupcontext.obj
 0001:0002e470       ??0BootupContext@@AAE@XZ   0042eaf0 f   bootupcontext.obj
 0001:0002e500       ??_EBootupContext@@EAEPAXI@Z 0042eb80 f i bootupcontext.obj
 0001:0002e500       ??_GBootupContext@@EAEPAXI@Z 0042eb80 f i bootupcontext.obj
 0001:0002e520       ?GetInstance@BootupContext@@SAPAV1@XZ 0042eba0 f   bootupcontext.obj
 0001:0002e590       ?DestroyInstance@Context@@QAEXXZ 0042ec10 f   context.obj
 0001:0002e5a0       ?Start@Context@@QAEXW4ContextEnum@@@Z 0042ec20 f   context.obj
 0001:0002e5b0       ?Update@Context@@QAEXI@Z   0042ec30 f   context.obj
 0001:0002e5e0       ?HandleEvent@Context@@UAEXW4EventEnum@@PAX@Z 0042ec60 f   context.obj
 0001:0002e5e0       ?Activate@Junction3@GuiSFX@@UAEXXZ 0042ec60 f   transitions.obj
 0001:0002e5f0       ?Suspend@Context@@QAEXXZ   0042ec70 f   context.obj
 0001:0002e600       ?Resume@Context@@QAEXXZ    0042ec80 f   context.obj
 0001:0002e610       ??0Context@@IAE@XZ         0042ec90 f   context.obj
 0001:0002e630       ??1Context@@MAE@XZ         0042ecb0 f   context.obj
 0001:0002e640       ??_EContext@@MAEPAXI@Z     0042ecc0 f i context.obj
 0001:0002e640       ??_GContext@@MAEPAXI@Z     0042ecc0 f i context.obj
 0001:0002e660       ??0EntryContext@@AAE@XZ    0042ece0 f   entrycontext.obj
 0001:0002e680       ??1EntryContext@@EAE@XZ    0042ed00 f   entrycontext.obj
 0001:0002e6a0       ?GetInstance@EntryContext@@SAPAV1@XZ 0042ed20 f   entrycontext.obj
 0001:0002e710       ??_GEntryContext@@EAEPAXI@Z 0042ed90 f i entrycontext.obj
 0001:0002e710       ??_EEntryContext@@EAEPAXI@Z 0042ed90 f i entrycontext.obj
 0001:0002e730       ?OnStart@ExitContext@@MAEXW4ContextEnum@@@Z 0042edb0 f   exitcontext.obj
 0001:0002e780       ??0ExitContext@@AAE@XZ     0042ee00 f   exitcontext.obj
 0001:0002e7a0       ??1ExitContext@@EAE@XZ     0042ee20 f   exitcontext.obj
 0001:0002e7c0       ?GetInstance@ExitContext@@SAPAV1@XZ 0042ee40 f   exitcontext.obj
 0001:0002e830       ??_GExitContext@@EAEPAXI@Z 0042eeb0 f i exitcontext.obj
 0001:0002e830       ??_EExitContext@@EAEPAXI@Z 0042eeb0 f i exitcontext.obj
 0001:0002e850       ??1FrontEndContext@@EAE@XZ 0042eed0 f   frontendcontext.obj
 0001:0002e870       ?OnStop@FrontEndContext@@MAEXW4ContextEnum@@@Z 0042eef0 f   frontendcontext.obj
 0001:0002e8d0       ?OnUpdate@FrontEndContext@@MAEXI@Z 0042ef50 f   frontendcontext.obj
 0001:0002e900       ?StartFrontEnd@FrontEndContext@@AAEXI@Z 0042ef80 f   frontendcontext.obj
 0001:0002e930       ??0FrontEndContext@@AAE@XZ 0042efb0 f   frontendcontext.obj
 0001:0002e950       ??_GFrontEndContext@@EAEPAXI@Z 0042efd0 f i frontendcontext.obj
 0001:0002e950       ??_EFrontEndContext@@EAEPAXI@Z 0042efd0 f i frontendcontext.obj
 0001:0002e970       ?OnStart@FrontEndContext@@MAEXW4ContextEnum@@@Z 0042eff0 f   frontendcontext.obj
 0001:0002ea50       ?OnProcessRequestsComplete@FrontEndContext@@MAEXPAX@Z 0042f0d0 f   frontendcontext.obj
 0001:0002eab0       ?GetInstance@FrontEndContext@@SAPAV1@XZ 0042f130 f   frontendcontext.obj
 0001:0002eb20       ??1LoadingContext@@MAE@XZ  0042f1a0 f   loadingcontext.obj
 0001:0002eb40       ?OnStart@LoadingContext@@MAEXW4ContextEnum@@@Z 0042f1c0 f   loadingcontext.obj
 0001:0002ec20       ?OnStop@LoadingContext@@MAEXW4ContextEnum@@@Z 0042f2a0 f   loadingcontext.obj
 0001:0002ec80       ?OnProcessRequestsComplete@LoadingContext@@UAEXPAX@Z 0042f300 f   loadingcontext.obj
 0001:0002ec90       ??0LoadingContext@@IAE@XZ  0042f310 f   loadingcontext.obj
 0001:0002ecb0       ??_GLoadingContext@@MAEPAXI@Z 0042f330 f i loadingcontext.obj
 0001:0002ecb0       ??_ELoadingContext@@MAEPAXI@Z 0042f330 f i loadingcontext.obj
 0001:0002ecd0       ?IsLoading@LoadingManager@@QAE_NXZ 0042f350 f i pausecontext.obj
 0001:0002ed00       ?RemoveSectionElements@tInventory@@QAEXPBD@Z 0042f380 f i pausecontext.obj
 0001:0002ed30       ??0PauseContext@@AAE@XZ    0042f3b0 f   pausecontext.obj
 0001:0002ed60       ??1PauseContext@@EAE@XZ    0042f3e0 f   pausecontext.obj
 0001:0002ed70       ?OnStart@PauseContext@@MAEXW4ContextEnum@@@Z 0042f3f0 f   pausecontext.obj
 0001:0002edd0       ?OnUpdate@PauseContext@@MAEXI@Z 0042f450 f   pausecontext.obj
 0001:0002ee90       ?GetInstance@PauseContext@@SAPAV1@XZ 0042f510 f   pausecontext.obj
 0001:0002ef00       ??_GPauseContext@@EAEPAXI@Z 0042f580 f i pausecontext.obj
 0001:0002ef00       ??_EPauseContext@@EAEPAXI@Z 0042f580 f i pausecontext.obj
 0001:0002ef20       ?OnStop@PauseContext@@MAEXW4ContextEnum@@@Z 0042f5a0 f   pausecontext.obj
 0001:0002f330       ??0PlayingContext@@IAE@XZ  0042f9b0 f   playingcontext.obj
 0001:0002f350       ??1PlayingContext@@MAE@XZ  0042f9d0 f   playingcontext.obj
 0001:0002f360       ?OnStop@PlayingContext@@MAEXW4ContextEnum@@@Z 0042f9e0 f   playingcontext.obj
 0001:0002f3a0       ?OnUpdate@LoadingContext@@MAEXI@Z 0042fa20 f   loadingcontext.obj
 0001:0002f3a0       ?OnUpdate@PlayingContext@@MAEXI@Z 0042fa20 f   playingcontext.obj
 0001:0002f3a0       ?OnUpdate@SuperSprintFEContext@@MAEXI@Z 0042fa20 f   supersprintfecontext.obj
 0001:0002f3c0       ??_EPlayingContext@@MAEPAXI@Z 0042fa40 f i playingcontext.obj
 0001:0002f3c0       ??_GPlayingContext@@MAEPAXI@Z 0042fa40 f i playingcontext.obj
 0001:0002f3e0       ?OnStart@PlayingContext@@MAEXW4ContextEnum@@@Z 0042fa60 f   playingcontext.obj
 0001:0002f440       ?GetName@ComedyCam@@UBEQBDXZ 0042fac0 f i gameplaycontext1.obj
 0001:0002f450       ?GetDataType@ActionEventLocator@@UBE?AW4Type@LocatorType@@XZ 0042fad0 f i actioneventlocator.obj
 0001:0002f450       ?GetType@ComedyCam@@UAE?AW4Type@SuperCam@@XZ 0042fad0 f i gameplaycontext1.obj
 0001:0002f460       ??_GComedyCam@@UAEPAXI@Z   0042fae0 f i gameplaycontext1.obj
 0001:0002f460       ??_EComedyCam@@UAEPAXI@Z   0042fae0 f i gameplaycontext1.obj
 0001:0002f480       ??1ComedyCam@@UAE@XZ       0042fb00 f i gameplaycontext1.obj
 0001:0002f490       ??0GameplayContext@@AAE@XZ 0042fb10 f   gameplaycontext1.obj
 0001:0002f4b0       ??1GameplayContext@@EAE@XZ 0042fb30 f   gameplaycontext1.obj
 0001:0002f4c0       ?OnStop@GameplayContext@@MAEXW4ContextEnum@@@Z 0042fb40 f   gameplaycontext1.obj
 0001:0002f4f0       ?OnUpdate@GameplayContext@@MAEXI@Z 0042fb70 f   gameplaycontext1.obj
 0001:0002f640       ?GetInstance@GameplayContext@@SAPAV1@XZ 0042fcc0 f   gameplaycontext1.obj
 0001:0002f6b0       ??_EGameplayContext@@EAEPAXI@Z 0042fd30 f i gameplaycontext1.obj
 0001:0002f6b0       ??_GGameplayContext@@EAEPAXI@Z 0042fd30 f i gameplaycontext1.obj
 0001:0002f6d0       ?safe_cast@?$SafeCast@VtLightGroup@@@radLoadInventory@@UAEPAUIRefCount@@PAU3@@Z 0042fd50 f i gameplaycontext1.obj
 0001:0002f6f0       ??$find@VtLightGroup@@@p3d@@YAPAVtLightGroup@@PAVtEntityStore@@ABVtName@@@Z 0042fd70 f i gameplaycontext1.obj
 0001:0002f7c0       ??$find@VtLightGroup@@@p3d@@YAPAVtLightGroup@@PAVtEntityStore@@PBD@Z 0042fe40 f i gameplaycontext1.obj
 0001:0002f830       ?OnStart@GameplayContext@@MAEXW4ContextEnum@@@Z 0042feb0 f   gameplaycontext1.obj
 0001:0002fe60       ??0LoadingGameplayContext@@AAE@XZ 004304e0 f   loadinggameplaycontext.obj
 0001:0002fe80       ??1LoadingGameplayContext@@EAE@XZ 00430500 f   loadinggameplaycontext.obj
 0001:0002fea0       ?OnStart@LoadingGameplayContext@@MAEXW4ContextEnum@@@Z 00430520 f   loadinggameplaycontext.obj
 0001:0002ff20       ?OnStop@LoadingSuperSprintContext@@MAEXW4ContextEnum@@@Z 004305a0 f   loadingsupersprintcontext.obj
 0001:0002ff20       ?OnStop@LoadingGameplayContext@@MAEXW4ContextEnum@@@Z 004305a0 f   loadinggameplaycontext.obj
 0001:0002ff20       ?OnStop@LoadingDemoContext@@MAEXW4ContextEnum@@@Z 004305a0 f   loadingdemocontext.obj
 0001:0002ff30       ?PrepareNewHeaps@LoadingDemoContext@@MAEXXZ 004305b0 f   loadingdemocontext.obj
 0001:0002ff30       ?PrepareNewHeaps@LoadingGameplayContext@@MAEXXZ 004305b0 f   loadinggameplaycontext.obj
 0001:0002ff40       ?GetInstance@LoadingGameplayContext@@SAPAV1@XZ 004305c0 f   loadinggameplaycontext.obj
 0001:0002ffb0       ??_GLoadingGameplayContext@@EAEPAXI@Z 00430630 f i loadinggameplaycontext.obj
 0001:0002ffb0       ??_ELoadingGameplayContext@@EAEPAXI@Z 00430630 f i loadinggameplaycontext.obj
 0001:0002ffd0       ??0DemoContext@@AAE@XZ     00430650 f   democontext.obj
 0001:0002fff0       ??1DemoContext@@EAE@XZ     00430670 f   democontext.obj
 0001:00030000       ?OnStop@DemoContext@@MAEXW4ContextEnum@@@Z 00430680 f   democontext.obj
 0001:00030220       ?OnUpdate@DemoContext@@MAEXI@Z 004308a0 f   democontext.obj
 0001:000303b0       ?GetInstance@DemoContext@@SAPAV1@XZ 00430a30 f   democontext.obj
 0001:00030420       ??_EDemoContext@@EAEPAXI@Z 00430aa0 f i democontext.obj
 0001:00030420       ??_GDemoContext@@EAEPAXI@Z 00430aa0 f i democontext.obj
 0001:00030440       ?OnStart@DemoContext@@MAEXW4ContextEnum@@@Z 00430ac0 f   democontext.obj
 0001:00030760       ??0LoadingDemoContext@@AAE@XZ 00430de0 f   loadingdemocontext.obj
 0001:00030780       ??1LoadingDemoContext@@EAE@XZ 00430e00 f   loadingdemocontext.obj
 0001:000307a0       ?OnStart@LoadingDemoContext@@MAEXW4ContextEnum@@@Z 00430e20 f   loadingdemocontext.obj
 0001:00030820       ?OnUpdate@LoadingDemoContext@@MAEXI@Z 00430ea0 f   loadingdemocontext.obj
 0001:00030820       ?OnUpdate@LoadingGameplayContext@@MAEXI@Z 00430ea0 f   loadinggameplaycontext.obj
 0001:00030850       ?OnProcessRequestsComplete@LoadingDemoContext@@UAEXPAX@Z 00430ed0 f   loadingdemocontext.obj
 0001:00030850       ?OnProcessRequestsComplete@LoadingGameplayContext@@UAEXPAX@Z 00430ed0 f   loadinggameplaycontext.obj
 0001:00030880       ?GetInstance@LoadingDemoContext@@SAPAV1@XZ 00430f00 f   loadingdemocontext.obj
 0001:000308f0       ??_GLoadingDemoContext@@EAEPAXI@Z 00430f70 f i loadingdemocontext.obj
 0001:000308f0       ??_ELoadingDemoContext@@EAEPAXI@Z 00430f70 f i loadingdemocontext.obj
 0001:00030910       ??0LoadingSuperSprintContext@@AAE@XZ 00430f90 f   loadingsupersprintcontext.obj
 0001:00030930       ??1LoadingSuperSprintContext@@EAE@XZ 00430fb0 f   loadingsupersprintcontext.obj
 0001:00030950       ?OnStart@LoadingSuperSprintContext@@MAEXW4ContextEnum@@@Z 00430fd0 f   loadingsupersprintcontext.obj
 0001:000309b0       ?OnUpdate@LoadingSuperSprintContext@@MAEXI@Z 00431030 f   loadingsupersprintcontext.obj
 0001:000309c0       ?OnProcessRequestsComplete@LoadingSuperSprintContext@@UAEXPAX@Z 00431040 f   loadingsupersprintcontext.obj
 0001:000309f0       ?GetInstance@LoadingSuperSprintContext@@SAPAV1@XZ 00431070 f   loadingsupersprintcontext.obj
 0001:00030a60       ??_GLoadingSuperSprintContext@@EAEPAXI@Z 004310e0 f i loadingsupersprintcontext.obj
 0001:00030a60       ??_ELoadingSuperSprintContext@@EAEPAXI@Z 004310e0 f i loadingsupersprintcontext.obj
 0001:00030a80       ?OnStop@SuperSprintContext@@MAEXW4ContextEnum@@@Z 00431100 f   supersprintcontext.obj
 0001:00030cf0       ?OnUpdate@SuperSprintContext@@MAEXI@Z 00431370 f   supersprintcontext.obj
 0001:00030dc0       ??0SuperSprintContext@@AAE@XZ 00431440 f   supersprintcontext.obj
 0001:00030de0       ??1SuperSprintContext@@EAE@XZ 00431460 f   supersprintcontext.obj
 0001:00030df0       ?GetInstance@SuperSprintContext@@SAPAV1@XZ 00431470 f   supersprintcontext.obj
 0001:00030e70       ??_ESuperSprintContext@@EAEPAXI@Z 004314f0 f i supersprintcontext.obj
 0001:00030e70       ??_GSuperSprintContext@@EAEPAXI@Z 004314f0 f i supersprintcontext.obj
 0001:00030e90       ?OnStart@SuperSprintContext@@MAEXW4ContextEnum@@@Z 00431510 f   supersprintcontext.obj
 0001:000312e0       ?OnStart@SuperSprintFEContext@@MAEXW4ContextEnum@@@Z 00431960 f   supersprintfecontext.obj
 0001:00031370       ?OnStop@SuperSprintFEContext@@MAEXW4ContextEnum@@@Z 004319f0 f   supersprintfecontext.obj
 0001:000313c0       ?OnProcessRequestsComplete@SuperSprintFEContext@@MAEXPAX@Z 00431a40 f   supersprintfecontext.obj
 0001:000313f0       ??1SuperSprintFEContext@@EAE@XZ 00431a70 f   supersprintfecontext.obj
 0001:00031410       ??0SuperSprintFEContext@@AAE@XZ 00431a90 f   supersprintfecontext.obj
 0001:00031430       ??_ESuperSprintFEContext@@EAEPAXI@Z 00431ab0 f i supersprintfecontext.obj
 0001:00031430       ??_GSuperSprintFEContext@@EAEPAXI@Z 00431ab0 f i supersprintfecontext.obj
 0001:00031450       ?GetInstance@SuperSprintFEContext@@SAPAV1@XZ 00431ad0 f   supersprintfecontext.obj
 0001:000314d0       ??0EventListener@@QAE@XZ   00431b50 f   eventlistener.obj
 0001:000314e0       ??1EventListener@@UAE@XZ   00431b60 f   eventlistener.obj
 0001:00031500       ??_EEventListener@@UAEPAXI@Z 00431b80 f i eventlistener.obj
 0001:00031500       ??_GEventListener@@UAEPAXI@Z 00431b80 f i eventlistener.obj
 0001:00031520       ?GetInstance@EventManager@@SAPAV1@XZ 00431ba0 f   eventmanager.obj
 0001:00031530       ??$fill@PAW4TutorialMode@@W41@@std@@YAXPAW4TutorialMode@@0ABW41@@Z 00431bb0 f i tutorialmanager.obj
 0001:00031530       ??$fill@PAPAVCollisionObject@sim@@PAV12@@std@@YAXPAPAVCollisionObject@sim@@0ABQAV12@@Z 00431bb0 f i intersectionlist.obj
 0001:00031530       ??$fill@PAPAVEventListener@@PAV1@@std@@YAXPAPAVEventListener@@0ABQAV1@@Z 00431bb0 f i eventmanager.obj
 0001:00031530       ??$fill@PAPAVIEntityDSG@@PAV1@@std@@YAXPAPAVIEntityDSG@@0ABQAV1@@Z 00431bb0 f i WorldScene.obj
 0001:00031530       ??$fill@PAW4ContextEnum@@W41@@std@@YAXPAW4ContextEnum@@0ABW41@@Z 00431bb0 f i gameflow.obj
 0001:00031530       ??$fill@PAPAVActor@@PAV1@@std@@YAXPAPAVActor@@0ABQAV1@@Z 00431bb0 f i actormanager.obj
 0001:00031530       ??$fill@PAII@std@@YAXPAI0ABI@Z 00431bb0 f i particlemanager.obj
 0001:00031530       ??$fill@PAPAVSelectableDialog@@PAV1@@std@@YAXPAPAVSelectableDialog@@0ABQAV1@@Z 00431bb0 f i dialogselectiongroup.obj
 0001:00031550       ?TriggerEvent@EventManager@@QBEHW4EventEnum@@PAX@Z 00431bd0 f   eventmanager.obj
 0001:000315d0       ?RemoveListener@EventManager@@QAEXPAVEventListener@@W4EventEnum@@@Z 00431c50 f   eventmanager.obj
 0001:00031630       ?RemoveAll@EventManager@@QAEXPAVEventListener@@@Z 00431cb0 f   eventmanager.obj
 0001:00031660       ??1EventManager@@AAE@XZ    00431ce0 f   eventmanager.obj
 0001:000316e0       ?_Ufill@?$vector@PAVEventListener@@V?$s2alloc@PAVEventListener@@@@@std@@IAEPAPAVEventListener@@PAPAV3@IABQAV3@@Z 00431d60 f i eventmanager.obj
 0001:000316e0       ?_Ufill@?$vector@PAVCollisionObject@sim@@V?$s2alloc@PAVCollisionObject@sim@@@@@std@@IAEPAPAVCollisionObject@sim@@PAPAV34@IABQAV34@@Z 00431d60 f i intersectionlist.obj
 0001:000316e0       ?_Ufill@?$vector@PAVActor@@V?$s2alloc@PAVActor@@@@@std@@IAEPAPAVActor@@PAPAV3@IABQAV3@@Z 00431d60 f i actormanager.obj
 0001:000316e0       ?_Ufill@?$vector@IV?$s2alloc@I@@@std@@IAEPAIPAIIABI@Z 00431d60 f i particlemanager.obj
 0001:000316e0       ?_Ufill@?$vector@PAVIEntityDSG@@V?$s2alloc@PAVIEntityDSG@@@@@std@@IAEPAPAVIEntityDSG@@PAPAV3@IABQAV3@@Z 00431d60 f i WorldScene.obj
 0001:000316e0       ?_Ufill@?$vector@PAVSelectableDialog@@V?$s2alloc@PAVSelectableDialog@@@@@std@@IAEPAPAVSelectableDialog@@PAPAV3@IABQAV3@@Z 00431d60 f i dialogselectiongroup.obj
 0001:00031710       ?DestroyInstance@EventManager@@SAXXZ 00431d90 f   eventmanager.obj
 0001:00031740       ?_Xlen@?$vector@PAVEventListener@@V?$s2alloc@PAVEventListener@@@@@std@@IBEXXZ 00431dc0 f i eventmanager.obj
 0001:000317b0       ?_Insert_n@?$vector@PAVEventListener@@V?$s2alloc@PAVEventListener@@@@@std@@IAEXViterator@12@IABQAVEventListener@@@Z 00431e30 f i eventmanager.obj
 0001:00031a00       ?reserve@?$vector@PAVEventListener@@V?$s2alloc@PAVEventListener@@@@@std@@QAEXI@Z 00432080 f i eventmanager.obj
 0001:00031ad0       ??0?$vector@PAVEventListener@@V?$s2alloc@PAVEventListener@@@@@std@@QAE@XZ 00432150 f i eventmanager.obj
 0001:00031ae0       ?push_back@?$vector@PAVEventListener@@V?$s2alloc@PAVEventListener@@@@@std@@QAEXABQAVEventListener@@@Z 00432160 f i eventmanager.obj
 0001:00031b50       ?AddListener@EventManager@@QAEXPAVEventListener@@W4EventEnum@@@Z 004321d0 f   eventmanager.obj
 0001:00031bd0       ??0EventManager@@AAE@XZ    00432250 f   eventmanager.obj
 0001:00031c70       ?CreateInstance@EventManager@@SAPAV1@XZ 004322f0 f   eventmanager.obj
 0001:00031cf0       ?GetInstance@GameFlow@@SAPAV1@XZ 00432370 f   gameflow.obj
 0001:00031d00       ?DestroyInstance@GameFlow@@SAXXZ 00432380 f   gameflow.obj
 0001:00031d20       ?OnTimerDone@GameFlow@@UAEXIPAX@Z 004323a0 f   gameflow.obj
 0001:00031dd0       ??$copy_backward@PAW4ContextEnum@@PAW41@@std@@YAPAW4ContextEnum@@PAW41@00@Z 00432450 f i gameflow.obj
 0001:00031dd0       ??$copy_backward@PAW4TutorialMode@@PAW41@@std@@YAPAW4TutorialMode@@PAW41@00@Z 00432450 f i tutorialmanager.obj
 0001:00031e00       ?_Ufill@?$vector@W4TutorialMode@@V?$s2alloc@W4TutorialMode@@@@@std@@IAEPAW4TutorialMode@@PAW43@IABW43@@Z 00432480 f i tutorialmanager.obj
 0001:00031e00       ?_Ufill@?$vector@W4ContextEnum@@V?$s2alloc@W4ContextEnum@@@@@std@@IAEPAW4ContextEnum@@PAW43@IABW43@@Z 00432480 f i gameflow.obj
 0001:00031e30       ??1GameFlow@@EAE@XZ        004324b0 f   gameflow.obj
 0001:00031ea0       ??_EGameFlow@@EAEPAXI@Z    00432520 f i gameflow.obj
 0001:00031ea0       ??_GGameFlow@@EAEPAXI@Z    00432520 f i gameflow.obj
 0001:00031ec0       ?_Xlen@?$vector@W4ContextEnum@@V?$s2alloc@W4ContextEnum@@@@@std@@IBEXXZ 00432540 f i gameflow.obj
 0001:00031f30       ?_Insert_n@?$vector@W4ContextEnum@@V?$s2alloc@W4ContextEnum@@@@@std@@IAEXViterator@12@IABW4ContextEnum@@@Z 004325b0 f i gameflow.obj
 0001:00032170       ?push_back@?$vector@W4ContextEnum@@V?$s2alloc@W4ContextEnum@@@@@std@@QAEXABW4ContextEnum@@@Z 004327f0 f i gameflow.obj
 0001:000321e0       ??0GameFlow@@AAE@XZ        00432860 f   gameflow.obj
 0001:000322d0       ?CreateInstance@GameFlow@@SAPAV1@XZ 00432950 f   gameflow.obj
 0001:00032340       ?PushContext@GameFlow@@QAEXW4ContextEnum@@@Z 004329c0 f   gameflow.obj
 0001:00032360       ?SetContext@GameFlow@@QAEXW4ContextEnum@@@Z 004329e0 f   gameflow.obj
 0001:000323a0       ?GetInstance@InputManager@@SAPAV1@XZ 00432a20 f   inputmanager.obj
 0001:000323b0       ?OnControllerConnectionStatusChange@InputManager@@EAEXPAUIRadController@@@Z 00432a30 f   inputmanager.obj
 0001:000323c0       ?ToggleRumble@InputManager@@QAEX_N@Z 00432a40 f   inputmanager.obj
 0001:000323f0       ?SetRumbleEnabled@InputManager@@QAEX_N@Z 00432a70 f   inputmanager.obj
 0001:00032410       ?SetRumbleForDevice@InputManager@@QAEXH_N@Z 00432a90 f   inputmanager.obj
 0001:00032440       ?TriggerRumblePulse@InputManager@@QAEXH@Z 00432ac0 f   inputmanager.obj
 0001:00032460       ?GetValue@InputManager@@QBEMII@Z 00432ae0 f   inputmanager.obj
 0001:00032490       ?GetController@InputManager@@QAEPAVUserController@@I@Z 00432b10 f   inputmanager.obj
 0001:000324b0       ?RegisterMappable@InputManager@@QAEHIPAVMappable@@@Z 00432b30 f   inputmanager.obj
 0001:000324e0       ?UnregisterMappable@InputManager@@QAEXIH@Z 00432b60 f   inputmanager.obj
 0001:00032510       ?UnregisterMappable@InputManager@@QAEXIPAVMappable@@@Z 00432b90 f   inputmanager.obj
 0001:00032530       ?UnregisterMappable@InputManager@@QAEXPAVMappable@@@Z 00432bb0 f   inputmanager.obj
 0001:00032560       ?LoadData@InputManager@@UAEXPBEI@Z 00432be0 f   inputmanager.obj
 0001:00032590       ?SaveData@InputManager@@UAEXPAEI@Z 00432c10 f   inputmanager.obj
 0001:000325b0       ?ReleaseAllControllers@InputManager@@AAEXXZ 00432c30 f   inputmanager.obj
 0001:000325e0       ?SetGameState@InputManager@@QAEXW4ActiveState@Input@@@Z 00432c60 f   inputmanager.obj
 0001:00032620       ?GetGameState@InputManager@@QBE?AW4ActiveState@Input@@XZ 00432ca0 f   inputmanager.obj
 0001:00032630       ?UnregisterControllerID@InputManager@@QAEXH@Z 00432cb0 f   inputmanager.obj
 0001:00032650       ?UnregisterAllControllerID@InputManager@@QAEXXZ 00432cd0 f   inputmanager.obj
 0001:00032660       ??0InputManager@@AAE@XZ    00432ce0 f   inputmanager.obj
 0001:00032730       ??1InputManager@@AAE@XZ    00432db0 f   inputmanager.obj
 0001:000327c0       ?EnumerateControllers@InputManager@@AAEXXZ 00432e40 f   inputmanager.obj
 0001:000329b0       ?RegisterControllerID@InputManager@@QAEXHH@Z 00433030 f   inputmanager.obj
 0001:000329d0       ?CreateInstance@InputManager@@SAPAV1@XZ 00433050 f   inputmanager.obj
 0001:00032a40       ?Init@InputManager@@QAEXXZ 004330c0 f   inputmanager.obj
 0001:00032ab0       ?Update@InputManager@@QAEXI@Z 00433130 f   inputmanager.obj
 0001:00032c00       ?DestroyInstance@InputManager@@SAXXZ 00433280 f   inputmanager.obj
 0001:00032c30       ?UpdateButtonState@Mappable@@QAEXHHPBVButton@@@Z 004332b0 f   mappable.obj
 0001:00032ca0       ?GetValue@Mappable@@QBEMI@Z 00433320 f   mappable.obj
 0001:00032cc0       ?GetButton@Mappable@@QAEPAVButton@@I@Z 00433340 f   mappable.obj
 0001:00032cd0       ?GetMapper@Mappable@@QAEPAVMapper@@I@Z 00433350 f   mappable.obj
 0001:00032cf0       ?GetActiveMapper@Mappable@@AAEPAVMapper@@XZ 00433370 f   mappable.obj
 0001:00032d10       ?IsActive@Mappable@@QBE_NXZ 00433390 f   mappable.obj
 0001:00032d20       ?IsButtonDown@Mappable@@QAE_NI@Z 004333a0 f   mappable.obj
 0001:00032d40       ?Map@Mappable@@IAE_NPBDHII@Z 004333c0 f   mappable.obj
 0001:00032d90       ?ClearMap@Mappable@@IAEXI@Z 00433410 f   mappable.obj
 0001:00032db0       ?Reset@Mappable@@QAEXXZ    00433430 f   mappable.obj
 0001:00032de0       ??0Mappable@@QAE@I@Z       00433460 f   mappable.obj
 0001:00032e90       ??1Mappable@@UAE@XZ        00433510 f   mappable.obj
 0001:00032ef0       ?DispatchOnButton@Mappable@@QAEXHHPBVButton@@@Z 00433570 f   mappable.obj
 0001:00032fc0       ?InitButtons@Mappable@@QAEXHPBVButton@@@Z 00433640 f   mappable.obj
 0001:00033000       ?OnControllerDisconnect@Mappable@@UAEXH@Z 00433680 f   mappable.obj
 0001:00033010       ?SetGameState@Mappable@@QAEXI@Z 00433690 f   mappable.obj
 0001:00033050       ??_GMappable@@UAEPAXI@Z    004336d0 f i mappable.obj
 0001:00033050       ??_EMappable@@UAEPAXI@Z    004336d0 f i mappable.obj
 0001:00033070       ?SetAssociation@Mapper@@QAEHHH@Z 004336f0 f   mapper.obj
 0001:00033080       ?ClearAssociations@Mapper@@QAEXXZ 00433700 f   mapper.obj
 0001:00033120       ??0Mapper@@QAE@XZ          004337a0 f   mapper.obj
 0001:00033130       ?SetMotor@RumbleEffect@@QAEXIPAUIRadControllerOutputPoint@@@Z 004337b0 f   rumbleeffect.obj
 0001:00033160       ?SetEffect@RumbleEffect@@QAEXW4Effect@1@I@Z 004337e0 f   rumbleeffect.obj
 0001:00033180       ?SetDynaEffect@RumbleEffect@@QAEXW4DynaEffect@1@IM@Z 00433800 f   rumbleeffect.obj
 0001:000331c0       ?UpdateEffect@RumbleEffect@@AAEXW4Effect@1@I@Z 00433840 f   rumbleeffect.obj
 0001:00033240       ?UpdateDynaEffect@RumbleEffect@@AAEXW4DynaEffect@1@IM@Z 004338c0 f   rumbleeffect.obj
 0001:000332c0       ??0RumbleEffect@@QAE@XZ    00433940 f   rumbleeffect.obj
 0001:00033340       ?Update@RumbleEffect@@QAEXI@Z 004339c0 f   rumbleeffect.obj
 0001:00033410       ?ShutDownEffects@RumbleEffect@@QAEXXZ 00433a90 f   rumbleeffect.obj
 0001:00033470       ??1RumbleEffect@@UAE@XZ    00433af0 f   rumbleeffect.obj
 0001:000334b0       ??_GRumbleEffect@@UAEPAXI@Z 00433b30 f i rumbleeffect.obj
 0001:000334b0       ??_ERumbleEffect@@UAEPAXI@Z 00433b30 f i rumbleeffect.obj
 0001:000334d0       ?NotifyConnect@UserController@@QAEXXZ 00433b50 f   usercontroller.obj
 0001:00033510       ?NotifyDisconnect@UserController@@QAEXXZ 00433b90 f   usercontroller.obj
 0001:00033550       ?SetGameState@UserController@@QAEXI@Z 00433bd0 f   usercontroller.obj
 0001:000335c0       ?PulseRumble@UserController@@QAEXXZ 00433c40 f   usercontroller.obj
 0001:000335e0       ?ApplyEffect@UserController@@QAEXW4Effect@RumbleEffect@@I@Z 00433c60 f   usercontroller.obj
 0001:00033620       ?ApplyDynaEffect@UserController@@QAEXW4DynaEffect@RumbleEffect@@IM@Z 00433ca0 f   usercontroller.obj
 0001:00033660       ?Update@UserController@@QAEXI@Z 00433ce0 f   usercontroller.obj
 0001:00033820       ?GetInputValue@UserController@@QBEMI@Z 00433ea0 f   usercontroller.obj
 0001:00033830       ?RegisterMappable@UserController@@QAEHPAVMappable@@@Z 00433eb0 f   usercontroller.obj
 0001:000338d0       ?LoadControllerMappings@UserController@@QAEXXZ 00433f50 f   usercontroller.obj
 0001:00033910       ?radMakeKey@@YA?AVtUidUnaligned@@PBDV1@@Z 00433f90 f i usercontroller.obj
 0001:000339a0       ??0UserController@@QAE@XZ  00434020 f   usercontroller.obj
 0001:00033a80       ?OnControllerInputPointChange@UserController@@MAEXIM@Z 00434100 f   usercontroller.obj
 0001:00033b80       ?Initialize@UserController@@UAEXPAUIRadController@@@Z 00434200 f   usercontroller.obj
 0001:00033db0       ?ReleaseRadController@UserController@@UAEXXZ 00434430 f   usercontroller.obj
 0001:00033e30       ?SetRumble@UserController@@QAEX_N0@Z 004344b0 f   usercontroller.obj
 0001:00033e70       ?GetInputValueRT@UserController@@QBEMI@Z 004344f0 f   usercontroller.obj
 0001:00033ea0       ??1UserController@@UAE@XZ  00434520 f   usercontroller.obj
 0001:00033f40       ?UnregisterMappable@UserController@@QAEXH@Z 004345c0 f   usercontroller.obj
 0001:00033f80       ?UnregisterMappable@UserController@@QAEXPAVMappable@@@Z 00434600 f   usercontroller.obj
 0001:00033fd0       ?GetIdByName@UserController@@QBEHPBD@Z 00434650 f   usercontroller.obj
 0001:00034040       ??_GUserController@@UAEPAXI@Z 004346c0 f i usercontroller.obj
 0001:00034040       ??_EUserController@@UAEPAXI@Z 004346c0 f i usercontroller.obj
 0001:00034060       ??0InteriorCentre@@QAE@XZ  004346e0 f i interiormanager.obj
 0001:00034060       ??0tNameInsensitive@@QAE@XZ 004346e0 f i nameinsensitive.obj
 0001:00034070       ?Clear@GagBinding@InteriorManager@@QAEXXZ 004346f0 f   interiormanager.obj
 0001:00034160       ?Load@Gag@@QAEXXZ          004347e0 f i interiormanager.obj
 0001:000341c0       ?SoundLoad@Gag@@QAEXXZ     00434840 f i interiormanager.obj
 0001:000341f0       ?Unload@Gag@@QAEXXZ        00434870 f i interiormanager.obj
 0001:00034280       ?SoundUnload@Gag@@QAEXXZ   00434900 f i interiormanager.obj
 0001:000342b0       ??0GagDrawable@@QAE@PAVGag@@@Z 00434930 f   interiormanager.obj
 0001:00034410       ?GetAIRef@StaticPhysDSG@@UAEHXZ 00434a90 f i interiormanager.obj
 0001:00034420       ?GetBoundingBox@GagDrawable@@UAEXPAVBox3D@RadicalMathLibrary@@@Z 00434aa0 f i interiormanager.obj
 0001:00034480       ?GetBoundingSphere@GagDrawable@@UAEXPAVSphere@RadicalMathLibrary@@@Z 00434b00 f i interiormanager.obj
 0001:000344c0       ??_EGagDrawable@@UAEPAXI@Z 00434b40 f i interiormanager.obj
 0001:000344c0       ??_GGagDrawable@@UAEPAXI@Z 00434b40 f i interiormanager.obj
 0001:000344e0       ??1GagDrawable@@UAE@XZ     00434b60 f i interiormanager.obj
 0001:00034540       ?Display@GagDrawable@@UAEXXZ 00434bc0 f   interiormanager.obj
 0001:00034640       ?GetInstance@InteriorManager@@SAPAV1@XZ 00434cc0 f   interiormanager.obj
 0001:00034650       ?DestroyInstance@InteriorManager@@SAXXZ 00434cd0 f   interiormanager.obj
 0001:00034670       ?UnloadGagSounds@InteriorManager@@QAEXXZ 00434cf0 f   interiormanager.obj
 0001:000346c0       ?ClearGagBindings@InteriorManager@@AAEXXZ 00434d40 f   interiormanager.obj
 0001:00034700       ?AddGagBinding@InteriorManager@@AAEXVtUidUnaligned@@PADW4p3dCycleMode@@H1@Z 00434d80 f   interiormanager.obj
 0001:00034800       ?GagBegin@InteriorManager@@AAEXPAD@Z 00434e80 f   interiormanager.obj
 0001:00034830       ?GetBuildBinding@InteriorManager@@AAEPAUGagBinding@1@XZ 00434eb0 f   interiormanager.obj
 0001:00034840       ?GagEnd@InteriorManager@@AAEXXZ 00434ec0 f   interiormanager.obj
 0001:00034890       ?OnButtonPressed@InteriorExit@@UAE_NPAVCharacter@@PAVSequencer@@@Z 00434f10 f i interiormanager.obj
 0001:000348c0       ?CollectionEffect@InteriorManager@@QAEXPBDABVVector@RadicalMathLibrary@@@Z 00434f40 f   interiormanager.obj
 0001:000348e0       ?safe_cast@?$SafeCast@VtFrameController@@@radLoadInventory@@UAEPAUIRefCount@@PAU3@@Z 00434f60 f i interiormanager.obj
 0001:00034900       ?safe_cast@?$SafeCast@VDirectionalLocator@@@radLoadInventory@@UAEPAUIRefCount@@PAU3@@Z 00434f80 f i interiormanager.obj
 0001:00034920       ??0GagBinding@InteriorManager@@QAE@XZ 00434fa0 f   interiormanager.obj
 0001:00034970       ?SimUpdate@GagDrawable@@QAEXM@Z 00434ff0 f i interiormanager.obj
 0001:00034a10       ?Update@Gag@@QAEXI@Z       00435090 f i interiormanager.obj
 0001:00034df0       ?PlayDialog@Gag@@IAEXI@Z   00435470 f i interiormanager.obj
 0001:00034ee0       ?Play@Gag@@IAEXXZ          00435560 f i interiormanager.obj
 0001:000352c0       ??0Gag@@QAE@PAUGagBinding@InteriorManager@@@Z 00435940 f i interiormanager.obj
 0001:00035410       ??_GGag@@UAEPAXI@Z         00435a90 f i interiormanager.obj
 0001:00035410       ??_EGag@@UAEPAXI@Z         00435a90 f i interiormanager.obj
 0001:00035430       ??1Gag@@UAE@XZ             00435ab0 f i interiormanager.obj
 0001:000354d0       ??_EGag@@WBA@AEPAXI@Z      00435b50 f i interiormanager.obj
 0001:000354e0       ?HandleEvent@Gag@@UAEXW4EventEnum@@PAX@Z 00435b60 f i interiormanager.obj
 0001:00035560       ?Trigger@Gag@@QAEXPAVEventLocator@@@Z 00435be0 f i interiormanager.obj
 0001:000355f0       ?OnButtonPressed@Gag@@MAE_NPAVCharacter@@PAVSequencer@@@Z 00435c70 f i interiormanager.obj
 0001:00035600       ?ClassifyPoint@InteriorManager@@QAEABVtName@@ABVVector@RadicalMathLibrary@@@Z 00435c80 f   interiormanager.obj
 0001:00035710       ?Enter@InteriorManager@@QAEXPAVInteriorEntranceLocator@@PAVCharacter@@PAVSequencer@@@Z 00435d90 f   interiormanager.obj
 0001:000358c0       ?ConsoleClearGagBindings@InteriorManager@@CAXHPAPAD@Z 00435f40 f   interiormanager.obj
 0001:000358d0       ?ConsoleAddGagBinding@InteriorManager@@CAXHPAPAD@Z 00435f50 f   interiormanager.obj
 0001:00035980       ?ConsoleGagBegin@InteriorManager@@CAXHPAPAD@Z 00436000 f   interiormanager.obj
 0001:000359a0       ?ConsoleGagSetInterior@InteriorManager@@CAXHPAPAD@Z 00436020 f   interiormanager.obj
 0001:00035a40       ?ConsoleGagSetCycle@InteriorManager@@CAXHPAPAD@Z 004360c0 f   interiormanager.obj
 0001:00035b00       ?ConsoleGagSetWeight@InteriorManager@@CAXHPAPAD@Z 00436180 f   interiormanager.obj
 0001:00035b30       ?ConsoleGagSetSound@InteriorManager@@CAXHPAPAD@Z 004361b0 f   interiormanager.obj
 0001:00035b80       ?ConsoleGagSetIntro@InteriorManager@@CAXHPAPAD@Z 00436200 f   interiormanager.obj
 0001:00035bb0       ?ConsoleGagSetOutro@InteriorManager@@CAXHPAPAD@Z 00436230 f   interiormanager.obj
 0001:00035be0       ?ConsoleGagPlayFMV@InteriorManager@@CAXHPAPAD@Z 00436260 f   interiormanager.obj
 0001:00035c10       ?ConsoleGagSetTrigger@InteriorManager@@CAXHPAPAD@Z 00436290 f   interiormanager.obj
 0001:00035d30       ?ConsoleGagSetPosition@InteriorManager@@CAXHPAPAD@Z 004363b0 f   interiormanager.obj
 0001:00035df0       ?ConsoleGagSetRandom@InteriorManager@@CAXHPAPAD@Z 00436470 f   interiormanager.obj
 0001:00035e20       ?ConsoleGagSetCameraShake@InteriorManager@@CAXHPAPAD@Z 004364a0 f   interiormanager.obj
 0001:00035ee0       ?ConsoleGagSetCoins@InteriorManager@@CAXHPAPAD@Z 00436560 f   interiormanager.obj
 0001:00035f40       ?ConsoleGagSetSparkle@InteriorManager@@CAXHPAPAD@Z 004365c0 f   interiormanager.obj
 0001:00035f70       ?ConsoleGagSetAnimCollision@InteriorManager@@CAXHPAPAD@Z 004365f0 f   interiormanager.obj
 0001:00035fa0       ?ConsoleGagSetLoadDistances@InteriorManager@@CAXHPAPAD@Z 00436620 f   interiormanager.obj
 0001:00035ff0       ?ConsoleGagSetSoundLoadDistances@InteriorManager@@CAXHPAPAD@Z 00436670 f   interiormanager.obj
 0001:00036040       ?ConsoleGagSetPersist@InteriorManager@@CAXHPAPAD@Z 004366c0 f   interiormanager.obj
 0001:00036090       ?ConsoleGagCheckCollCards@InteriorManager@@CAXHPAPAD@Z 00436710 f   interiormanager.obj
 0001:00036220       ?ConsoleGagCheckMovie@InteriorManager@@CAXHPAPAD@Z 004368a0 f   interiormanager.obj
 0001:00036360       ?ConsoleGagEnd@InteriorManager@@CAXHPAPAD@Z 004369e0 f   interiormanager.obj
 0001:00036370       ??0InteriorManager@@AAE@XZ 004369f0 f   interiormanager.obj
 0001:00036550       ?ClearGags@InteriorManager@@AAEXXZ 00436bd0 f   interiormanager.obj
 0001:000365a0       ??$find@VtFrameController@@@p3d@@YAPAVtFrameController@@PAVtEntityStore@@ABVtName@@@Z 00436c20 f i interiormanager.obj
 0001:00036670       ??$find@VDirectionalLocator@@@p3d@@YAPAVDirectionalLocator@@PAVtEntityStore@@ABVtName@@@Z 00436cf0 f i interiormanager.obj
 0001:00036740       ?CreateInstance@InteriorManager@@SAPAV1@XZ 00436dc0 f   interiormanager.obj
 0001:00036950       ?OnBootupStart@InteriorManager@@QAEXXZ 00436fd0 f   interiormanager.obj
 0001:00036ce0       ??1InteriorManager@@EAE@XZ 00437360 f   interiormanager.obj
 0001:00036d50       ?LoadGagNIS@InteriorManager@@AAEXVtUidUnaligned@@@Z 004373d0 f   interiormanager.obj
 0001:00036f80       ??$find@VtFrameController@@@p3d@@YAPAVtFrameController@@PAVtEntityStore@@PBD@Z 00437600 f i interiormanager.obj
 0001:00036ff0       ??$find@VDirectionalLocator@@@p3d@@YAPAVDirectionalLocator@@PAVtEntityStore@@PBD@Z 00437670 f i interiormanager.obj
 0001:00037060       ?OnGameplayStart@InteriorManager@@QAEXXZ 004376e0 f   interiormanager.obj
 0001:000370f0       ??_EInteriorManager@@EAEPAXI@Z 00437770 f i interiormanager.obj
 0001:000370f0       ??_GInteriorManager@@EAEPAXI@Z 00437770 f i interiormanager.obj
 0001:00037110       ?GetExitPos@InteriorManager@@AAEXXZ 00437790 f   interiormanager.obj
 0001:00037190       ?OnLoadDataComplete@Gag@@UAEXXZ 00437810 f i interiormanager.obj
 0001:00037600       ?SetPosition@GagDrawable@@QAEX_NABVVector@RadicalMathLibrary@@@Z 00437c80 f i interiormanager.obj
 0001:00037710       ??$find@VCollisionObject@sim@@@p3d@@YAPAVCollisionObject@sim@@PBD@Z 00437d90 f i interiormanager.obj
 0001:00037730       ??$find@VCollisionObject@sim@@@p3d@@YAPAVCollisionObject@sim@@PAVtEntityStore@@PBD@Z 00437db0 f i interiormanager.obj
 0001:000377a0       ??$find@VCollisionObject@sim@@@p3d@@YAPAVCollisionObject@sim@@PAVtEntityStore@@ABVtName@@@Z 00437e20 f i interiormanager.obj
 0001:00037870       ?safe_cast@?$SafeCast@VCollisionObject@sim@@@radLoadInventory@@UAEPAUIRefCount@@PAU3@@Z 00437ef0 f i interiormanager.obj
 0001:00037890       ?SwitchToInterior@InteriorManager@@AAEXXZ 00437f10 f   interiormanager.obj
 0001:00037bd0       ?AttemptEntry@InteriorManager@@AAEXXZ 00438250 f   interiormanager.obj
 0001:00037e80       ?SwitchToExterior@InteriorManager@@AAEXXZ 00438500 f   interiormanager.obj
 0001:00037ff0       ?ExitInterior@InteriorManager@@AAEXXZ 00438670 f   interiormanager.obj
 0001:00038140       ?OnGameplayEnd@InteriorManager@@QAEXXZ 004387c0 f   interiormanager.obj
 0001:00038170       ?Update@InteriorManager@@QAEXI@Z 004387f0 f   interiormanager.obj
 0001:000381f0       ?LoadLevelGags@InteriorManager@@QAEXABVVector@RadicalMathLibrary@@_N@Z 00438870 f   interiormanager.obj
 0001:00038320       ?HandleEvent@InteriorManager@@UAEXW4EventEnum@@PAX@Z 004389a0 f   interiormanager.obj
 0001:00038720       ??_EFollowCamDataChunk@@UAEPAXI@Z 00438da0 f i cameradataloader.obj
 0001:00038720       ??_GFollowCamDataChunk@@UAEPAXI@Z 00438da0 f i cameradataloader.obj
 0001:00038740       ??1FollowCamDataChunk@@UAE@XZ 00438dc0 f i cameradataloader.obj
 0001:00038750       ??_GWalkerCamDataChunk@@UAEPAXI@Z 00438dd0 f i cameradataloader.obj
 0001:00038750       ??_EWalkerCamDataChunk@@UAEPAXI@Z 00438dd0 f i cameradataloader.obj
 0001:00038770       ??1WalkerCamDataChunk@@UAE@XZ 00438df0 f i cameradataloader.obj
 0001:00038780       ?Load@CameraDataLoader@@UAE?AW4tLoadStatus@@PAVtChunkFile@@PAVtEntityStore@@@Z 00438e00 f   cameradataloader.obj
 0001:00038af0       ??0CameraDataLoader@@QAE@XZ 00439170 f   cameradataloader.obj
 0001:00038b10       ?CheckChunkID@CameraDataLoader@@UAE_NI@Z 00439190 f i cameradataloader.obj
 0001:00038b30       ?GetChunkID@CameraDataLoader@@UAEIXZ 004391b0 f i cameradataloader.obj
 0001:00038b40       ??_GFileHandler@@UAEPAXI@Z 004391c0 f i cementfilehandler.obj
 0001:00038b40       ??_EFileHandler@@UAEPAXI@Z 004391c0 f i cementfilehandler.obj
 0001:00038b60       ??1CementFileHandler@@UAE@XZ 004391e0 f   cementfilehandler.obj
 0001:00038b70       ?LoadFile@CementFileHandler@@UAEXPBDPAULoadFileCallback@FileHandler@@PAXW4GameMemoryAllocator@@@Z 004391f0 f   cementfilehandler.obj
 0001:00038bc0       ?OnCementLibraryRegistered@CementFileHandler@@UAEXPAX@Z 00439240 f   cementfilehandler.obj
 0001:00038be0       ?Release@ConsoleFileHandler@@UAEXXZ 00439260 f i consolefilehandler.obj
 0001:00038be0       ?Release@IconFileHandler@@UAEXXZ 00439260 f i iconfilehandler.obj
 0001:00038be0       ?Release@FileHandler@@UAEXXZ 00439260 f i cementfilehandler.obj
 0001:00038be0       ?Release@CementFileHandler@@UAEXXZ 00439260 f i cementfilehandler.obj
 0001:00038be0       ?Release@ChoreoFileHandler@@UAEXXZ 00439260 f i choreofilehandler.obj
 0001:00038c00       ??0CementFileHandler@@QAE@PAUCementLibraryStruct@LoadingManager@@@Z 00439280 f   cementfilehandler.obj
 0001:00038c30       ??_GCementFileHandler@@UAEPAXI@Z 004392b0 f i cementfilehandler.obj
 0001:00038c30       ??_ECementFileHandler@@UAEPAXI@Z 004392b0 f i cementfilehandler.obj
 0001:00038c50       ??1ChoreoFileHandler@@UAE@XZ 004392d0 f   choreofilehandler.obj
 0001:00038c60       ?LoadFile@ChoreoFileHandler@@UAEXPBDPAULoadFileCallback@FileHandler@@PAXW4GameMemoryAllocator@@@Z 004392e0 f   choreofilehandler.obj
 0001:00038cb0       ?OnFileOperationsComplete@ChoreoFileHandler@@UAEXPAX@Z 00439330 f   choreofilehandler.obj
 0001:00038e10       ?load@p3d@@YA_NPBD@Z       00439490 f i choreofilehandler.obj
 0001:00038e90       ?LoadFileSync@ChoreoFileHandler@@UAEXPBD@Z 00439510 f   choreofilehandler.obj
 0001:00038f30       ??0ChoreoFileHandler@@QAE@XZ 004395b0 f   choreofilehandler.obj
 0001:00038f60       ??_EChoreoFileHandler@@UAEPAXI@Z 004395e0 f i choreofilehandler.obj
 0001:00038f60       ??_GChoreoFileHandler@@UAEPAXI@Z 004395e0 f i choreofilehandler.obj
 0001:00038f80       ??1ConsoleFileHandler@@UAE@XZ 00439600 f   consolefilehandler.obj
 0001:00038f90       ?LoadFile@ConsoleFileHandler@@UAEXPBDPAULoadFileCallback@FileHandler@@PAXW4GameMemoryAllocator@@@Z 00439610 f   consolefilehandler.obj
 0001:00038fe0       ?OnFileOperationsComplete@ConsoleFileHandler@@UAEXPAX@Z 00439660 f   consolefilehandler.obj
 0001:000390a0       ?LoadFileSync@ConsoleFileHandler@@UAEXPBD@Z 00439720 f   consolefilehandler.obj
 0001:00039140       ?AddRef@IconFileHandler@@WBA@AEXXZ 004397c0 f i iconfilehandler.obj
 0001:00039140       ?AddRef@ChoreoFileHandler@@WBA@AEXXZ 004397c0 f i choreofilehandler.obj
 0001:00039140       ?AddRef@ConsoleFileHandler@@WBA@AEXXZ 004397c0 f i consolefilehandler.obj
 0001:00039140       ?AddRef@CementFileHandler@@WBA@AEXXZ 004397c0 f i cementfilehandler.obj
 0001:00039150       ?Release@CementFileHandler@@WBA@AEXXZ 004397d0 f i cementfilehandler.obj
 0001:00039150       ?Release@ConsoleFileHandler@@WBA@AEXXZ 004397d0 f i consolefilehandler.obj
 0001:00039150       ?Release@ChoreoFileHandler@@WBA@AEXXZ 004397d0 f i choreofilehandler.obj
 0001:00039150       ?Release@IconFileHandler@@WBA@AEXXZ 004397d0 f i iconfilehandler.obj
 0001:00039160       ??0ConsoleFileHandler@@QAE@XZ 004397e0 f   consolefilehandler.obj
 0001:00039190       ??_EConsoleFileHandler@@UAEPAXI@Z 00439810 f i consolefilehandler.obj
 0001:00039190       ??_GConsoleFileHandler@@UAEPAXI@Z 00439810 f i consolefilehandler.obj
 0001:000391b0       ?CreateFileHandler@FileHandlerFactory@@SAPAVFileHandler@@W4FileHandlerEnum@@PBD@Z 00439830 f   filehandlerfactory.obj
 0001:00039530       ??1IconFileHandler@@UAE@XZ 00439bb0 f   iconfilehandler.obj
 0001:00039540       ?LoadFile@IconFileHandler@@UAEXPBDPAULoadFileCallback@FileHandler@@PAXW4GameMemoryAllocator@@@Z 00439bc0 f   iconfilehandler.obj
 0001:00039590       ?OnFileOperationsComplete@IconFileHandler@@UAEXPAX@Z 00439c10 f   iconfilehandler.obj
 0001:00039630       ??0IconFileHandler@@QAE@XZ 00439cb0 f   iconfilehandler.obj
 0001:00039660       ??_GIconFileHandler@@UAEPAXI@Z 00439ce0 f i iconfilehandler.obj
 0001:00039660       ??_EIconFileHandler@@UAEPAXI@Z 00439ce0 f i iconfilehandler.obj
 0001:00039680       ?CheckChunkID@IntersectionLoader@@UAE_NI@Z 00439d00 f   intersectionloader.obj
 0001:000396a0       ?GetChunkID@IntersectionLoader@@UAEIXZ 00439d20 f   intersectionloader.obj
 0001:000396b0       ?Load@IntersectionLoader@@UAE?AW4tLoadStatus@@PAVtChunkFile@@PAVtEntityStore@@@Z 00439d30 f   intersectionloader.obj
 0001:00039810       ??0IntersectionLoader@@QAE@XZ 00439e90 f   intersectionloader.obj
 0001:00039830       ?GetInstance@LoadingManager@@SAPAV1@XZ 00439eb0 f   loadingmanager.obj
 0001:00039840       ?AddCallback@LoadingManager@@QAEXPAUProcessRequestsCallback@1@PAX@Z 00439ec0 f   loadingmanager.obj
 0001:000398d0       ?UnregisterCementLibrary@LoadingManager@@QAEXH@Z 00439f50 f   loadingmanager.obj
 0001:00039910       ??1LoadingManager@@AAE@XZ  00439f90 f   loadingmanager.obj
 0001:00039940       ?ProcessNextRequest@LoadingManager@@AAEXXZ 00439fc0 f   loadingmanager.obj
 0001:000399f0       ?AddRequest@LoadingManager@@QAEXW4FileHandlerEnum@@PBDW4GameMemoryAllocator@@11PAUProcessRequestsCallback@1@PAX@Z 0043a070 f   loadingmanager.obj
 0001:00039c70       ?OnLoadFileComplete@LoadingManager@@EAEXPAX@Z 0043a2f0 f   loadingmanager.obj
 0001:00039cf0       ?CancelPendingRequests@LoadingManager@@QAEXXZ 0043a370 f   loadingmanager.obj
 0001:00039d70       ?RegisterCementLibrary@LoadingManager@@QAEHPBD@Z 0043a3f0 f   loadingmanager.obj
 0001:00039f40       ??0LoadingManager@@AAE@XZ  0043a5c0 f   loadingmanager.obj
 0001:00039f80       ?CreateInstance@LoadingManager@@SAPAV1@XZ 0043a600 f   loadingmanager.obj
 0001:00039fd0       ?DestroyInstance@LoadingManager@@SAXXZ 0043a650 f   loadingmanager.obj
 0001:0003a000       ??1IWrappedLoader@@UAE@XZ  0043a680 f i locatorloader.obj
 0001:0003a010       ??_EIWrappedLoader@@UAEPAXI@Z 0043a690 f i locatorloader.obj
 0001:0003a010       ??_GIWrappedLoader@@UAEPAXI@Z 0043a690 f i locatorloader.obj
 0001:0003a030       ??0PedGroupLocator@@QAE@XZ 0043a6b0 f i locatorloader.obj
 0001:0003a060       ?SetMatrix@EventLocator@@UAEXABVMatrix@RadicalMathLibrary@@@Z 0043a6e0 f i locatorloader.obj
 0001:0003a080       ??_GPedGroupLocator@@UAEPAXI@Z 0043a700 f i locatorloader.obj
 0001:0003a080       ??_EPedGroupLocator@@UAEPAXI@Z 0043a700 f i locatorloader.obj
 0001:0003a0a0       ??1PedGroupLocator@@UAE@XZ 0043a720 f i locatorloader.obj
 0001:0003a0c0       ?SetSplineCurve@RailCam@@QAEXAAVSplineCurve@RadicalMathLibrary@@@Z 0043a740 f i locatorloader.obj
 0001:0003a160       ?GetPString@tChunkFile@@QAEPADPAD@Z 0043a7e0 f i locatorloader.obj
 0001:0003a1a0       ?SetString@ScriptLocator@@QAEXPBD@Z 0043a820 f i locatorloader.obj
 0001:0003a1e0       ?LoadTriggerVolume@LocatorLoader@@AAE_NPAVtChunkFile@@PAVTriggerLocator@@_N@Z 0043a860 f   locatorloader.obj
 0001:0003a440       ?LoadSpline@LocatorLoader@@AAEPAVRailCam@@PAVtChunkFile@@PAVSplineLocator@@@Z 0043aac0 f   locatorloader.obj
 0001:0003a850       ??0LocatorLoader@@QAE@XZ   0043aed0 f   locatorloader.obj
 0001:0003a880       ??_ELocatorLoader@@WBE@AEPAXI@Z 0043af00 f i locatorloader.obj
 0001:0003a890       ??1LocatorLoader@@UAE@XZ   0043af10 f   locatorloader.obj
 0001:0003a8b0       ?LoadObject@LocatorLoader@@EAEPAVtEntity@@PAVtChunkFile@@PAVtEntityStore@@@Z 0043af30 f   locatorloader.obj
 0001:0003b640       ??_ELocatorLoader@@UAEPAXI@Z 0043bcc0 f i locatorloader.obj
 0001:0003b640       ??_GLocatorLoader@@UAEPAXI@Z 0043bcc0 f i locatorloader.obj
 0001:0003b660       ?Done@P3DFileHandler@@UAEXW4tLoadStatus@@PAVtLoadRequest@@@Z 0043bce0 f   p3dfilehandler.obj
 0001:0003b670       ?LoadFileSync@P3DFileHandler@@UAEXPBD@Z 0043bcf0 f   p3dfilehandler.obj
 0001:0003b760       ?SetSectionName@P3DFileHandler@@QAEXPBD@Z 0043bde0 f   p3dfilehandler.obj
 0001:0003b760       ?SetSectionName@ChoreoFileHandler@@QAEXPBD@Z 0043bde0 f   choreofilehandler.obj
 0001:0003b780       ?loadAsync@p3d@@YAPAVtLoadRequest@@PBD0PAVCallback@2@PAXI@Z 0043be00 f i p3dfilehandler.obj
 0001:0003b850       ??1P3DFileHandler@@UAE@XZ  0043bed0 f   p3dfilehandler.obj
 0001:0003b870       ??_EP3DFileHandler@@WM@AEPAXI@Z 0043bef0 f i p3dfilehandler.obj
 0001:0003b880       ?AddRef@P3DFileHandler@@WM@AEXXZ 0043bf00 f i p3dfilehandler.obj
 0001:0003b890       ?Release@P3DFileHandler@@WM@AEXXZ 0043bf10 f i p3dfilehandler.obj
 0001:0003b8a0       ?LoadFile@P3DFileHandler@@UAEXPBDPAULoadFileCallback@FileHandler@@PAXW4GameMemoryAllocator@@@Z 0043bf20 f   p3dfilehandler.obj
 0001:0003b920       ?Done@Callback@tLoadRequest@@UAEXXZ 0043bfa0 f i p3dfilehandler.obj
 0001:0003b960       ??0P3DFileHandler@@QAE@XZ  0043bfe0 f   p3dfilehandler.obj
 0001:0003b990       ??_GP3DFileHandler@@UAEPAXI@Z 0043c010 f i p3dfilehandler.obj
 0001:0003b990       ??_EP3DFileHandler@@UAEPAXI@Z 0043c010 f i p3dfilehandler.obj
 0001:0003b9b0       ?CheckChunkID@PathLoader@@UAE_NI@Z 0043c030 f   pathloader.obj
 0001:0003b9d0       ?Load@PathLoader@@UAE?AW4tLoadStatus@@PAVtChunkFile@@PAVtEntityStore@@@Z 0043c050 f   pathloader.obj
 0001:0003bc00       ??0PathLoader@@QAE@XZ      0043c280 f   pathloader.obj
 0001:0003bc40       ??_EPathLoader@@WBE@AEPAXI@Z 0043c2c0 f i pathloader.obj
 0001:0003bc50       ??1PathLoader@@UAE@XZ      0043c2d0 f   pathloader.obj
 0001:0003bc70       ??_GPathLoader@@UAEPAXI@Z  0043c2f0 f i pathloader.obj
 0001:0003bc70       ??_EPathLoader@@UAEPAXI@Z  0043c2f0 f i pathloader.obj
 0001:0003bc90       ?CheckChunkID@RoadDataSegmentLoader@@UAE_NI@Z 0043c310 f   roaddatasegmentloader.obj
 0001:0003bcb0       ?GetChunkID@RoadDataSegmentLoader@@UAEIXZ 0043c330 f   roaddatasegmentloader.obj
 0001:0003bcc0       ?Load@RoadDataSegmentLoader@@UAE?AW4tLoadStatus@@PAVtChunkFile@@PAVtEntityStore@@@Z 0043c340 f   roaddatasegmentloader.obj
 0001:0003beb0       ??0RoadDataSegmentLoader@@QAE@XZ 0043c530 f   roaddatasegmentloader.obj
 0001:0003bed0       ?CheckChunkID@RoadLoader@@UAE_NI@Z 0043c550 f   roadloader.obj
 0001:0003bef0       ?SetRegdListener@TreeDSGLoader@@UAEXPAVChunkListenerCallback@@H@Z 0043c570 f   TreeDSGLoader.obj
 0001:0003bef0       ?SetRegdListener@WorldSphereLoader@@UAEXPAVChunkListenerCallback@@H@Z 0043c570 f   WorldSphereLoader.obj
 0001:0003bef0       ?SetRegdListener@StaticPhysLoader@@UAEXPAVChunkListenerCallback@@H@Z 0043c570 f   StaticPhysLoader.obj
 0001:0003bef0       ?SetRegdListener@FenceLoader@@UAEXPAVChunkListenerCallback@@H@Z 0043c570 f   FenceLoader.obj
 0001:0003bef0       ?SetRegdListener@InstStatPhysLoader@@UAEXPAVChunkListenerCallback@@H@Z 0043c570 f   InstStatPhysLoader.obj
 0001:0003bef0       ?SetRegdListener@GeometryWrappedLoader@@UAEXPAVChunkListenerCallback@@H@Z 0043c570 f   GeometryWrappedLoader.obj
 0001:0003bef0       ?SetRegdListener@StaticEntityLoader@@UAEXPAVChunkListenerCallback@@H@Z 0043c570 f   StaticEntityLoader.obj
 0001:0003bef0       ?SetRegdListener@AnimDynaPhysWrapperLoader@@UAEXPAVChunkListenerCallback@@H@Z 0043c570 f   AnimDynaPhysLoader.obj
 0001:0003bef0       ?SetRegdListener@InstParticleSystemLoader@@UAEXPAVChunkListenerCallback@@H@Z 0043c570 f   instparticlesystemloader.obj
 0001:0003bef0       ?SetRegdListener@BreakableObjectLoader@@UAEXPAVChunkListenerCallback@@H@Z 0043c570 f   breakableobjectloader.obj
 0001:0003bef0       ?SetRegdListener@PathLoader@@UAEXPAVChunkListenerCallback@@H@Z 0043c570 f   pathloader.obj
 0001:0003bef0       ?SetRegdListener@LensFlareLoader@@UAEXPAVChunkListenerCallback@@H@Z 0043c570 f   LensFlareLoader.obj
 0001:0003bef0       ?SetRegdListener@AnimDSGLoader@@UAEXPAVChunkListenerCallback@@H@Z 0043c570 f   AnimDSGLoader.obj
 0001:0003bef0       ?SetRegdListener@DynaPhysLoader@@UAEXPAVChunkListenerCallback@@H@Z 0043c570 f   DynaPhysLoader.obj
 0001:0003bef0       ?SetRegdListener@RoadLoader@@UAEXPAVChunkListenerCallback@@H@Z 0043c570 f   roadloader.obj
 0001:0003bef0       ?SetRegdListener@AnimDynaPhysLoader@@UAEXPAVChunkListenerCallback@@H@Z 0043c570 f   AnimDynaPhysLoader.obj
 0001:0003bef0       ?SetRegdListener@IntersectLoader@@UAEXPAVChunkListenerCallback@@H@Z 0043c570 f   IntersectLoader.obj
 0001:0003bef0       ?SetRegdListener@InstStatEntityLoader@@UAEXPAVChunkListenerCallback@@H@Z 0043c570 f   InstStatEntityLoader.obj
 0001:0003bef0       ?SetRegdListener@BillboardWrappedLoader@@UAEXPAVChunkListenerCallback@@H@Z 0043c570 f   BillboardWrappedLoader.obj
 0001:0003bef0       ?SetRegdListener@AnimCollLoader@@UAEXPAVChunkListenerCallback@@H@Z 0043c570 f   AnimCollLoader.obj
 0001:0003bef0       ?SetRegdListener@LocatorLoader@@UAEXPAVChunkListenerCallback@@H@Z 0043c570 f   locatorloader.obj
 0001:0003bef0       ?SetRegdListener@AnimObjDSGWrapperLoader@@UAEXPAVChunkListenerCallback@@H@Z 0043c570 f   AnimDynaPhysLoader.obj
 0001:0003bf30       ?LoadRoadSegment@RoadLoader@@AAEPAVRoadSegment@@PAVtChunkFile@@AAI@Z 0043c5b0 f   roadloader.obj
 0001:0003c0a0       ?clear@?$list@PAVDialogQueueElement@@V?$s2alloc@PAVDialogQueueElement@@@@@std@@QAEXXZ 0043c720 f i dialogpriorityqueue.obj
 0001:0003c0a0       ?clear@?$list@PAVRoadSegment@@V?$s2alloc@PAVRoadSegment@@@@@std@@QAEXXZ 0043c720 f i roadloader.obj
 0001:0003c0a0       ?clear@?$list@PAVSelectableDialog@@V?$s2alloc@PAVSelectableDialog@@@@@std@@QAEXXZ 0043c720 f i dialoglist.obj
 0001:0003c0e0       ??0RoadLoader@@QAE@XZ      0043c760 f   roadloader.obj
 0001:0003c120       ??_ERoadLoader@@WBE@AEPAXI@Z 0043c7a0 f i roadloader.obj
 0001:0003c130       ??1RoadLoader@@UAE@XZ      0043c7b0 f   roadloader.obj
 0001:0003c150       ??_ERoadLoader@@UAEPAXI@Z  0043c7d0 f i roadloader.obj
 0001:0003c150       ??_GRoadLoader@@UAEPAXI@Z  0043c7d0 f i roadloader.obj
 0001:0003c170       ??1?$list@PAVSelectableDialog@@V?$s2alloc@PAVSelectableDialog@@@@@std@@QAE@XZ 0043c7f0 f i dialoglist.obj
 0001:0003c170       ??1?$list@PAVRoadSegment@@V?$s2alloc@PAVRoadSegment@@@@@std@@QAE@XZ 0043c7f0 f i roadloader.obj
 0001:0003c190       ?_Incsize@?$list@PAVRoadSegment@@V?$s2alloc@PAVRoadSegment@@@@@std@@IAEXI@Z 0043c810 f i roadloader.obj
 0001:0003c230       ?Load@RoadLoader@@UAE?AW4tLoadStatus@@PAVtChunkFile@@PAVtEntityStore@@@Z 0043c8b0 f   roadloader.obj
 0001:0003c8f0       ??1ScroobyFileHandler@@UAE@XZ 0043cf70 f   scroobyfilehandler.obj
 0001:0003c900       ?LoadFile@ScroobyFileHandler@@UAEXPBDPAULoadFileCallback@FileHandler@@PAXW4GameMemoryAllocator@@@Z 0043cf80 f   scroobyfilehandler.obj
 0001:0003c950       ?OnProjectLoadComplete@ScroobyFileHandler@@UAEXPAVProject@Scrooby@@@Z 0043cfd0 f   scroobyfilehandler.obj
 0001:0003c980       ?SetSectionName@ScroobyFileHandler@@QAEXPBD@Z 0043d000 f   scroobyfilehandler.obj
 0001:0003c9a0       ??0ScroobyFileHandler@@QAE@XZ 0043d020 f   scroobyfilehandler.obj
 0001:0003c9d0       ??_GScroobyFileHandler@@UAEPAXI@Z 0043d050 f i scroobyfilehandler.obj
 0001:0003c9d0       ??_EScroobyFileHandler@@UAEPAXI@Z 0043d050 f i scroobyfilehandler.obj
 0001:0003c9f0       ??0SoundFileHandler@@QAE@XZ 0043d070 f   soundfilehandler.obj
 0001:0003ca00       ??1SoundFileHandler@@UAE@XZ 0043d080 f   soundfilehandler.obj
 0001:0003ca10       ?LoadFile@SoundFileHandler@@UAEXPBDPAULoadFileCallback@FileHandler@@PAXW4GameMemoryAllocator@@@Z 0043d090 f   soundfilehandler.obj
 0001:0003ca40       ?LoadCompleted@SoundFileHandler@@QAEXXZ 0043d0c0 f   soundfilehandler.obj
 0001:0003ca50       ??_GSoundFileHandler@@UAEPAXI@Z 0043d0d0 f i soundfilehandler.obj
 0001:0003ca50       ??_ESoundFileHandler@@UAEPAXI@Z 0043d0d0 f i soundfilehandler.obj
 0001:0003ca70       ?InitDefaults@CommandLineOptions@@SAXXZ 0043d0f0 f   commandlineoptions.obj
 0001:0003ca90       ?Get@CommandLineOptions@@SA_NW4CmdLineOptionEnum@@@Z 0043d110 f   commandlineoptions.obj
 0001:0003cac0       ?DestroyInstance@Game@@SAXXZ 0043d140 f   game.obj
 0001:0003cae0       ?GetInstance@Game@@SAPAV1@XZ 0043d160 f   game.obj
 0001:0003caf0       ?Initialize@Game@@QAEXXZ   0043d170 f   game.obj
 0001:0003cb40       ?Terminate@Game@@QAEXXZ    0043d1c0 f   game.obj
 0001:0003cb70       ?Run@Game@@QAEXXZ          0043d1f0 f   game.obj
 0001:0003cc40       ?Stop@Game@@QAEXXZ         0043d2c0 f   game.obj
 0001:0003cc50       ?GetRandomSeed@Game@@SAIXZ 0043d2d0 f   game.obj
 0001:0003cca0       ??0Game@@AAE@PAVPlatform@@@Z 0043d320 f   game.obj
 0001:0003ccd0       ??1Game@@EAE@XZ            0043d350 f   game.obj
 0001:0003cce0       ?CreateInstance@Game@@SAPAV1@PAVPlatform@@@Z 0043d360 f   game.obj
 0001:0003cd20       ??_GGame@@EAEPAXI@Z        0043d3a0 f i game.obj
 0001:0003cd20       ??_EGame@@EAEPAXI@Z        0043d3a0 f i game.obj
 0001:0003cd40       ?CreateSingletons@@YAXXZ   0043d3c0 f   singletons.obj
 0001:0003ce20       ?DestroySingletons@@YAXXZ  0043d4a0 f   singletons.obj
 0001:0003cec0       ??0tUidUnaligned@@QAE@XZ   0043d540 f   tuidunaligned.obj
 0001:0003ced0       ??0tUidUnaligned@@QAE@ABV0@@Z 0043d550 f   tuidunaligned.obj
 0001:0003cef0       ??8tUidUnaligned@@QBE_NV0@@Z 0043d570 f   tuidunaligned.obj
 0001:0003cf10       ??MtUidUnaligned@@QBE_NV0@@Z 0043d590 f   tuidunaligned.obj
 0001:0003cf40       ??ItUidUnaligned@@QBE?AV0@V0@@Z 0043d5c0 f   tuidunaligned.obj
 0001:0003cf80       ??9tUidUnaligned@@QBE_NV0@@Z 0043d600 f   tuidunaligned.obj
 0001:0003cfb0       ??TtUidUnaligned@@QBE?AV0@V0@@Z 0043d630 f   tuidunaligned.obj
 0001:0003cfe0       ??XtUidUnaligned@@QAE?AV0@_K@Z 0043d660 f   tuidunaligned.obj
 0001:0003d010       ??5tUidUnaligned@@QBE?AV0@H@Z 0043d690 f   tuidunaligned.obj
 0001:0003d030       _main                      0043d6b0 f   xboxmain.obj
 0001:0003d0b0       ?DestroyInstance@XboxPlatform@@SAXXZ 0043d730 f   xboxplatform.obj
 0001:0003d0d0       ?InitializeMemory@XboxPlatform@@SAXXZ 0043d750 f   xboxplatform.obj
 0001:0003d100       ?InitializePlatform@XboxPlatform@@UAEXXZ 0043d780 f   xboxplatform.obj
 0001:0003d160       ?ShutdownPlatform@XboxPlatform@@UAEXXZ 0043d7e0 f   xboxplatform.obj
 0001:0003d170       ?ResetMachine@XboxPlatform@@UAEXXZ 0043d7f0 f   xboxplatform.obj
 0001:0003d1e0       ?LaunchDashboard@XboxPlatform@@UAEXXZ 0043d860 f   xboxplatform.obj
 0001:0003d2a0       ?InitializeFoundationDrive@XboxPlatform@@MAEXXZ 0043d920 f   xboxplatform.obj
 0001:0003d2d0       ?ShutdownPure3D@XboxPlatform@@MAEXXZ 0043d950 f   xboxplatform.obj
 0001:0003d320       ??1XboxPlatform@@EAE@XZ    0043d9a0 f   xboxplatform.obj
 0001:0003d330       ?LoadMemP3DFile@@YAXPAEIPAVtEntityStore@@@Z 0043d9b0 f   xboxplatform.obj
 0001:0003d3c0       ?InitializeFoundation@XboxPlatform@@SAXXZ 0043da40 f   xboxplatform.obj
 0001:0003d450       ?OnDriveError@XboxPlatform@@UAE_NW4radFileError@@PBDPAX@Z 0043dad0 f   xboxplatform.obj
 0001:0003d720       ?OnControllerError@XboxPlatform@@UAEXPBD@Z 0043dda0 f   xboxplatform.obj
 0001:0003d7b0       ?ShutdownFoundation@XboxPlatform@@MAEXXZ 0043de30 f   xboxplatform.obj
 0001:0003d800       ??0XboxPlatform@@AAE@XZ    0043de80 f   xboxplatform.obj
 0001:0003d820       ??_GXboxPlatform@@EAEPAXI@Z 0043dea0 f i xboxplatform.obj
 0001:0003d820       ??_EXboxPlatform@@EAEPAXI@Z 0043dea0 f i xboxplatform.obj
 0001:0003d840       ?safe_cast@?$SafeCast@VtTextureFont@@@radLoadInventory@@UAEPAUIRefCount@@PAU3@@Z 0043dec0 f i xboxplatform.obj
 0001:0003d860       ?CreateInstance@XboxPlatform@@SAPAV1@XZ 0043dee0 f   xboxplatform.obj
 0001:0003d890       ??$find@VtTextureFont@@@p3d@@YAPAVtTextureFont@@PAVtEntityStore@@ABVtName@@@Z 0043df10 f i xboxplatform.obj
 0001:0003d960       ??0tPNGHandler@@QAE@XZ     0043dfe0 f i xboxplatform.obj
 0001:0003d980       ?GetExtension@tPNGHandler@@UAEPADXZ 0043e000 f i xboxplatform.obj
 0001:0003d990       ??0tBMPHandler@@QAE@XZ     0043e010 f i xboxplatform.obj
 0001:0003d9b0       ?GetExtension@tBMPHandler@@UAEPADXZ 0043e030 f i xboxplatform.obj
 0001:0003d9c0       ??0tTargaHandler@@QAE@XZ   0043e040 f i xboxplatform.obj
 0001:0003d9e0       ?GetExtension@tTargaHandler@@UAEPADXZ 0043e060 f i xboxplatform.obj
 0001:0003d9f0       ??1tP3DFileHandler@@MAE@XZ 0043e070 f i pure3dxr:loadmanager.obj
 0001:0003d9f0       ??1tBMPHandler@@UAE@XZ     0043e070 f i xboxplatform.obj
 0001:0003d9f0       ??1tRawImageHandler@@UAE@XZ 0043e070 f i pure3dxr:imagefactory.obj
 0001:0003d9f0       ??1tDXTNHandler@@UAE@XZ    0043e070 f i pure3dxr:imagefactory.obj
 0001:0003d9f0       ??1tPNGHandler@@UAE@XZ     0043e070 f i xboxplatform.obj
 0001:0003d9f0       ??1tFileHandler@@MAE@XZ    0043e070 f i xboxplatform.obj
 0001:0003d9f0       ??1tTargaHandler@@UAE@XZ   0043e070 f i xboxplatform.obj
 0001:0003d9f0       ??1tImageHandler@@UAE@XZ   0043e070 f i xboxplatform.obj
 0001:0003da00       ??$find@VtTextureFont@@@p3d@@YAPAVtTextureFont@@PAVtEntityStore@@PBD@Z 0043e080 f i xboxplatform.obj
 0001:0003da70       ?InitializePure3D@XboxPlatform@@MAEXXZ 0043e0f0 f   xboxplatform.obj
 0001:0003e580       ?DisplaySplashScreen@XboxPlatform@@UAEXW4SplashScreen@Platform@@PBDMMMUpddiColour@@H@Z 0043ec00 f   xboxplatform.obj
 0001:0003e8f0       ?CreateHeap@@YAXW4GameMemoryAllocator@@I@Z 0043ef70 f   createheap.obj
 0001:0003e9a0       ?DestroyHeapA@@YAXW4GameMemoryAllocator@@@Z 0043f020 f   createheap.obj
 0001:0003ea20       ?GetAllocator@@YAPAUIRadMemoryAllocator@@W4GameMemoryAllocator@@@Z 0043f0a0 f   createheap.obj
 0001:0003ea30       ?GetHeapReference@@YAPAPAUIRadMemoryHeap@@W4GameMemoryAllocator@@@Z 0043f0b0 f   createheap.obj
 0001:0003ea40       ?GetTotalMemoryFreeInAllHeaps@@YAIXZ 0043f0c0 f   createheap.obj
 0001:0003ea90       ?_Max@?$_Tree@V?$_Tmap_traits@PAXIU?$less@PAX@std@@V?$allocator@U?$pair@QAXI@std@@@2@$0A@@std@@@std@@KAPAU_Node@?$_Tree_nod@V?$_Tmap_traits@PAXIU?$less@PAX@std@@V?$allocator@U?$pair@QAXI@std@@@2@$0A@@std@@@2@PAU342@@Z 0043f110 f i radcorexr:trackingheap.obj
 0001:0003ea90       ?_Max@?$_Tree@V?$_Tmap_traits@PAXIU?$less@PAX@std@@V?$s2alloc@U?$pair@QAXI@std@@@@$0A@@std@@@std@@KAPAU_Node@?$_Tree_nod@V?$_Tmap_traits@PAXIU?$less@PAX@std@@V?$s2alloc@U?$pair@QAXI@std@@@@$0A@@std@@@2@PAU342@@Z 0043f110 f i leakdetection.obj
 0001:0003eab0       ?_Erase@?$_Tree@V?$_Tmap_traits@PAXIU?$less@PAX@std@@V?$s2alloc@U?$pair@QAXI@std@@@@$0A@@std@@@std@@IAEXPAU_Node@?$_Tree_nod@V?$_Tmap_traits@PAXIU?$less@PAX@std@@V?$s2alloc@U?$pair@QAXI@std@@@@$0A@@std@@@2@@Z 0043f130 f i leakdetection.obj
 0001:0003eaf0       ?_Lrotate@?$_Tree@V?$_Tmap_traits@PAXIU?$less@PAX@std@@V?$s2alloc@U?$pair@QAXI@std@@@@$0A@@std@@@std@@IAEXPAU_Node@?$_Tree_nod@V?$_Tmap_traits@PAXIU?$less@PAX@std@@V?$s2alloc@U?$pair@QAXI@std@@@@$0A@@std@@@2@@Z 0043f170 f i leakdetection.obj
 0001:0003eaf0       ?_Lrotate@?$_Tree@V?$_Tmap_traits@PAXIU?$less@PAX@std@@V?$allocator@U?$pair@QAXI@std@@@2@$0A@@std@@@std@@IAEXPAU_Node@?$_Tree_nod@V?$_Tmap_traits@PAXIU?$less@PAX@std@@V?$allocator@U?$pair@QAXI@std@@@2@$0A@@std@@@2@@Z 0043f170 f i radcorexr:trackingheap.obj
 0001:0003eb50       ?_Buynode@?$_Tree@V?$_Tmap_traits@PAXIU?$less@PAX@std@@V?$s2alloc@U?$pair@QAXI@std@@@@$0A@@std@@@std@@IAEPAU_Node@?$_Tree_nod@V?$_Tmap_traits@PAXIU?$less@PAX@std@@V?$s2alloc@U?$pair@QAXI@std@@@@$0A@@std@@@2@XZ 0043f1d0 f i leakdetection.obj
 0001:0003eb90       ?erase@?$_Tree@V?$_Tmap_traits@PAXIU?$less@PAX@std@@V?$s2alloc@U?$pair@QAXI@std@@@@$0A@@std@@@std@@QAE?AViterator@12@V312@@Z 0043f210 f i leakdetection.obj
 0001:0003ee50       ??0out_of_range@std@@QAE@ABV01@@Z 0043f4d0 f i leakdetection.obj
 0001:0003ee70       ?erase@?$_Tree@V?$_Tmap_traits@PAXIU?$less@PAX@std@@V?$s2alloc@U?$pair@QAXI@std@@@@$0A@@std@@@std@@QAE?AViterator@12@V312@0@Z 0043f4f0 f i leakdetection.obj
 0001:0003ef30       ??1?$map@PAXIU?$less@PAX@std@@V?$s2alloc@U?$pair@QAXI@std@@@@@std@@QAE@XZ 0043f5b0 f i leakdetection.obj
 0001:0003ef60       ??0?$map@PAXIU?$less@PAX@std@@V?$s2alloc@U?$pair@QAXI@std@@@@@std@@QAE@XZ 0043f5e0 f i leakdetection.obj
 0001:0003ef90       ??0FBMemoryPool@@QAE@IHW4GameMemoryAllocator@@@Z 0043f610 f   memorypool.obj
 0001:0003efd0       ?Allocate@FBMemoryPool@@QAEPAXI@Z 0043f650 f   memorypool.obj
 0001:0003f050       ?Free@FBMemoryPool@@QAEXPAXI@Z 0043f6d0 f   memorypool.obj
 0001:0003f0b0       ?AllocateLargestFreeBlock@Memory@@YAIPAUIRadMemoryAllocator@@AAPAX@Z 0043f730 f   memoryutilities.obj
 0001:0003f110       ?InitializeMemoryUtilities@Memory@@YAXXZ 0043f790 f   memoryutilities.obj
 0001:0003f130       ?GetLargestFreeBlock@Memory@@YAIPAUIRadMemoryAllocator@@@Z 0043f7b0 f   memoryutilities.obj
 0001:0003f1a0       ?GetTotalMemoryFree@Memory@@YAIXZ 0043f820 f   memoryutilities.obj
 0001:0003f1c0       ?GetTotalMemoryFreeLowWaterMark@Memory@@YAIXZ 0043f840 f   memoryutilities.obj
 0001:0003f200       ?PrintMemoryStatsToTty@Memory@@YAXXZ 0043f880 f   memoryutilities.obj
 0001:0003f220       ?MemoryHackCallback@@YAXXZ 0043f8a0 f   srrmemory.obj
 0001:0003f230       ??_V@YAXPAX@Z              0043f8b0 f   srrmemory.obj
 0001:0003f230       ??3@YAXPAX@Z               0043f8b0 f   srrmemory.obj
 0001:0003f240       ??3@YAXPAXW4GameMemoryAllocator@@@Z 0043f8c0 f   srrmemory.obj
 0001:0003f240       ??_V@YAXPAXW4GameMemoryAllocator@@@Z 0043f8c0 f   srrmemory.obj
 0001:0003f250       ?FindFreeMemory@@YAPAXW4GameMemoryAllocator@@I@Z 0043f8d0 f   srrmemory.obj
 0001:0003f2a0       ?SetupAllocatorSearch@@YAXW4GameMemoryAllocator@@@Z 0043f920 f   srrmemory.obj
 0001:0003f300       ?PrintOutOfMemoryMessage@@YAXPAXHI@Z 0043f980 f   srrmemory.obj
 0001:0003f5d0       ??1HeapStack@@UAE@XZ       0043fc50 f   srrmemory.obj
 0001:0003f5f0       ?Push@HeapStack@@QAEXW4GameMemoryAllocator@@@Z 0043fc70 f   srrmemory.obj
 0001:0003f630       ?Pop@HeapStack@@QAEXW4GameMemoryAllocator@@@Z 0043fcb0 f   srrmemory.obj
 0001:0003f650       ?SetTop@HeapStack@@QAEXW4GameMemoryAllocator@@@Z 0043fcd0 f   srrmemory.obj
 0001:0003f660       ?Top@HeapStack@@QBE?AW4GameMemoryAllocator@@XZ 0043fce0 f   srrmemory.obj
 0001:0003f670       ?MemoryAllocated@HeapActivityTracker@@UAEXHPAXI@Z 0043fcf0 f   srrmemory.obj
 0001:0003f680       ?MemoryFreed@HeapActivityTracker@@UAEXHPAX@Z 0043fd00 f   srrmemory.obj
 0001:0003f690       ??1HeapManager@@EAE@XZ     0043fd10 f   srrmemory.obj
 0001:0003f6f0       ?GetFudgeFactor@HeapManager@@CAMXZ 0043fd70 f   srrmemory.obj
 0001:0003f710       ?PushHeap@HeapManager@@QAEXW4GameMemoryAllocator@@@Z 0043fd90 f   srrmemory.obj
 0001:0003f720       ?PopHeap@HeapManager@@QAEXW4GameMemoryAllocator@@@Z 0043fda0 f   srrmemory.obj
 0001:0003f730       ?GetCurrentHeap@HeapManager@@QBE?AW4GameMemoryAllocator@@XZ 0043fdb0 f   srrmemory.obj
 0001:0003f740       ?GetCurrentAllocator@HeapManager@@UAEHXZ 0043fdc0 f   srrmemory.obj
 0001:0003f750       ?SetCurrentAllocator@HeapManager@@UAEHH@Z 0043fdd0 f   srrmemory.obj
 0001:0003f770       ?PrepareHeapsStartup@HeapManager@@QAEXXZ 0043fdf0 f   srrmemory.obj
 0001:0003f7d0       ?PrepareHeapsFE@HeapManager@@QAEXXZ 0043fe50 f   srrmemory.obj
 0001:0003f840       ?PrepareHeapsInGame@HeapManager@@QAEXXZ 0043fec0 f   srrmemory.obj
 0001:0003f8d0       ?PrepareHeapsSuperSprint@HeapManager@@QAEXXZ 0043ff50 f   srrmemory.obj
 0001:0003f970       ?Coord@d3dPrimStream@@QAEXMMM@Z 0043fff0 f i srrmemory.obj
 0001:0003f9a0       ??2@YAPAXIW4GameMemoryAllocator@@@Z 00440020 f   srrmemory.obj
 0001:0003f9a0       ??_U@YAPAXIW4GameMemoryAllocator@@@Z 00440020 f   srrmemory.obj
 0001:0003f9f0       ??0HeapStack@@QAE@W4GameMemoryAllocator@@@Z 00440070 f   srrmemory.obj
 0001:0003fa40       ??_EHeapStack@@UAEPAXI@Z   004400c0 f i srrmemory.obj
 0001:0003fa40       ??_GHeapStack@@UAEPAXI@Z   004400c0 f i srrmemory.obj
 0001:0003fa60       ??0HeapActivityTracker@@QAE@XZ 004400e0 f   srrmemory.obj
 0001:0003fa80       ??0HeapManager@@AAE@W4GameMemoryAllocator@@@Z 00440100 f   srrmemory.obj
 0001:0003faa0       ??_GHeapManager@@EAEPAXI@Z 00440120 f i srrmemory.obj
 0001:0003faa0       ??_EHeapManager@@EAEPAXI@Z 00440120 f i srrmemory.obj
 0001:0003fac0       ?DumpHeapStats@HeapManager@@QAEX_N@Z 00440140 f   srrmemory.obj
 0001:000402f0       ?GetInstance@HeapManager@@SAPAV1@XZ 00440970 f   srrmemory.obj
 0001:000403c0       ?HeapMgr@@YAPAVHeapManager@@XZ 00440a40 f   srrmemory.obj
 0001:000403d0       ??_U@YAPAXI@Z              00440a50 f   srrmemory.obj
 0001:000403d0       ??2@YAPAXI@Z               00440a50 f   srrmemory.obj
 0001:00040440       ??0AnimatedIcon@@QAE@XZ    00440ac0 f   animatedicon.obj
 0001:00040470       ?Reset@AnimatedIcon@@QAEXXZ 00440af0 f   animatedicon.obj
 0001:00040480       ??2AnimatedIcon@@SAPAXI@Z  00440b00 f   animatedicon.obj
 0001:000404e0       ?ShutdownAnimatedIcons@AnimatedIcon@@SAXXZ 00440b60 f   animatedicon.obj
 0001:00040520       ?GetFlag@AnimatedIcon@@ABE_NW4Flag@1@@Z 00440ba0 f   animatedicon.obj
 0001:00040540       ??1AnimIconDSG@AnimatedIcon@@UAE@XZ 00440bc0 f   animatedicon.obj
 0001:00040560       ?CastsShadow@InstStatEntityDSG@@UAEHXZ 00440be0 f i animatedicon.obj
 0001:00040570       ?SetScaleParameters@AnimIconDSG@AnimatedIcon@@QAEXMMMM@Z 00440bf0 f   animatedicon.obj
 0001:000405c0       ?ScaleByCameraDistance@AnimatedIcon@@QAEXMMMM@Z 00440c40 f   animatedicon.obj
 0001:000405d0       ?ShouldRender@AnimatedIcon@@QAEX_N@Z 00440c50 f   animatedicon.obj
 0001:00040660       ?Deallocate@AnimatedIcon@@AAEXXZ 00440ce0 f   animatedicon.obj
 0001:000406d0       ??0AnimIconDSG@AnimatedIcon@@QAE@XZ 00440d50 f   animatedicon.obj
 0001:00040710       ??_GAnimIconDSG@AnimatedIcon@@UAEPAXI@Z 00440d90 f i animatedicon.obj
 0001:00040710       ??_EAnimIconDSG@AnimatedIcon@@UAEPAXI@Z 00440d90 f i animatedicon.obj
 0001:00040730       ?CalcScale@AnimIconDSG@AnimatedIcon@@AAEMXZ 00440db0 f   animatedicon.obj
 0001:000407d0       ?Display@AnimIconDSG@AnimatedIcon@@UAEXXZ 00440e50 f   animatedicon.obj
 0001:00040870       ?GetNumDrawableElement@tCompositeDrawable@@QBEHXZ 00440ef0 f i animatedicon.obj
 0001:00040890       ??1AnimatedIcon@@UAE@XZ    00440f10 f   animatedicon.obj
 0001:000408a0       ?Move@AnimatedIcon@@QAEXABVVector@RadicalMathLibrary@@@Z 00440f20 f   animatedicon.obj
 0001:00040950       ?Update@AnimatedIcon@@QAEXI@Z 00440fd0 f   animatedicon.obj
 0001:00040ac0       ??3AnimatedIcon@@SAXPAX@Z  00441140 f   animatedicon.obj
 0001:00040af0       ??3AnimatedIcon@@SAXPAXW4GameMemoryAllocator@@@Z 00441170 f   animatedicon.obj
 0001:00040b00       ?InitAnimatedIcons@AnimatedIcon@@SAXW4GameMemoryAllocator@@@Z 00441180 f   animatedicon.obj
 0001:00040bd0       ??_EAnimatedIcon@@UAEPAXI@Z 00441250 f i animatedicon.obj
 0001:00040c30       ?SetUpEffects@AnimatedIcon@@AAEXXZ 004412b0 f   animatedicon.obj
 0001:00040cc0       ??2AnimatedIcon@@SAPAXIW4GameMemoryAllocator@@@Z 00441340 f   animatedicon.obj
 0001:00040ce0       ??$find@VtMultiController@@@p3d@@YAPAVtMultiController@@PAVtEntityStore@@PBD@Z 00441360 f i animatedicon.obj
 0001:00040d50       ?SetUpContents@AnimatedIcon@@AAEXPBD@Z 004413d0 f   animatedicon.obj
 0001:00040ed0       ?Init@AnimatedIcon@@QAEXPBDABVMatrix@RadicalMathLibrary@@_N2@Z 00441550 f   animatedicon.obj
 0001:00040fd0       ?Init@AnimatedIcon@@QAEXPBDABVVector@RadicalMathLibrary@@_N2@Z 00441650 f   animatedicon.obj
 0001:000410e0       ?GetMission@GameplayManager@@QAEPAVMission@@H@Z 00441760 f i bonusmissioninfo.obj
 0001:00041100       ??1BonusMissionInfo@@UAE@XZ 00441780 f   bonusmissioninfo.obj
 0001:000411f0       ?SetUpIcon@BonusMissionInfo@@QAEXPBDVVector@RadicalMathLibrary@@@Z 00441870 f   bonusmissioninfo.obj
 0001:00041340       ?SetUpAlternateIcon@BonusMissionInfo@@QAEXPBDVVector@RadicalMathLibrary@@@Z 004419c0 f   bonusmissioninfo.obj
 0001:000413c0       ?Update@BonusMissionInfo@@QAEXI@Z 00441a40 f   bonusmissioninfo.obj
 0001:00041510       ?Enable@BonusMissionInfo@@QAEXXZ 00441b90 f   bonusmissioninfo.obj
 0001:00041580       ?Disable@BonusMissionInfo@@QAEXXZ 00441c00 f   bonusmissioninfo.obj
 0001:000415c0       ?ResetCharacterPositions@BonusMissionInfo@@QAEXXZ 00441c40 f   bonusmissioninfo.obj
 0001:00041700       ?ResetMissionBitmap@BonusMissionInfo@@QAEXXZ 00441d80 f   bonusmissioninfo.obj
 0001:00041720       ??0BonusMissionInfo@@QAE@XZ 00441da0 f   bonusmissioninfo.obj
 0001:00041820       ??_GBonusMissionInfo@@UAEPAXI@Z 00441ea0 f i bonusmissioninfo.obj
 0001:00041820       ??_EBonusMissionInfo@@UAEPAXI@Z 00441ea0 f i bonusmissioninfo.obj
 0001:00041840       ?HandleEvent@BonusMissionInfo@@UAEXW4EventEnum@@PAX@Z 00441ec0 f   bonusmissioninfo.obj
 0001:00041880       ?SetEventLocator@BonusMissionInfo@@QAEXPAVEventLocator@@@Z 00441f00 f   bonusmissioninfo.obj
 0001:000418b0       ?SetPositions@BonusMissionInfo@@QAEXPAVCarStartLocator@@00@Z 00441f30 f   bonusmissioninfo.obj
 0001:00041930       ?CleanUp@BonusMissionInfo@@QAEXXZ 00441fb0 f   bonusmissioninfo.obj
 0001:000419d0       ?SetCompleted@BonusMissionInfo@@QAEX_N@Z 00442050 f   bonusmissioninfo.obj
 0001:00041a50       ?TriggerDialogue@BonusMissionInfo@@QAEXXZ 004420d0 f   bonusmissioninfo.obj
 0001:00041e60       ?SetNPC@BonusMissionInfo@@QAEXPAVCharacter@@@Z 004424e0 f   bonusmissioninfo.obj
 0001:00041e90       ?Contains@Sphere@RadicalMathLibrary@@QBE_NABVVector@2@@Z 00442510 f i gameplaymanager.obj
 0001:00041ee0       ?GetInstance@GameplayManager@@SAPAV1@XZ 00442560 f   gameplaymanager.obj
 0001:00041ef0       ?SetInstance@GameplayManager@@SAXPAV1@@Z 00442570 f   gameplaymanager.obj
 0001:00041f00       ??1GameplayManager@@MAE@XZ 00442580 f   gameplaymanager.obj
 0001:00041f70       ?OnPresentationEventEnd@GameplayManager@@MAEXPAVPresentationEvent@@@Z 004425f0 f i gameplaymanager.obj
 0001:00041f80       ?SetLevelIndex@GameplayManager@@UAEXW4LevelEnum@RenderEnums@@@Z 00442600 f   gameplaymanager.obj
 0001:00041fa0       ?SetMissionIndex@GameplayManager@@UAEXW4MissionEnum@RenderEnums@@@Z 00442620 f   gameplaymanager.obj
 0001:00041fb0       ?PlaceCharacterAtLocator@GameplayManager@@QAEXPAVCharacter@@PAVLocator@@@Z 00442630 f   gameplaymanager.obj
 0001:00042020       ?TestProximityToUsersCarAndNudgeUpIfNecessaryDamnUglyHack@GameplayManager@@AAE_NAAVVector@RadicalMathLibrary@@@Z 004426a0 f   gameplaymanager.obj
 0001:000420b0       ?PlaceVehicleAtLocation@GameplayManager@@QAEXPAVVehicle@@VVector@RadicalMathLibrary@@M@Z 00442730 f   gameplaymanager.obj
 0001:000420e0       ?AddLevelVehicle@GameplayManager@@QAEPAVVehicle@@PADW4eCarSlots@1@0@Z 00442760 f   gameplaymanager.obj
 0001:000421f0       ?RemoveLevelVehicleController@GameplayManager@@IAEXXZ 00442870 f   gameplaymanager.obj
 0001:00042220       ?PauseForIrisClose@GameplayManager@@QAEXM@Z 004428a0 f   gameplaymanager.obj
 0001:00042280       ?PauseForIrisOpen@GameplayManager@@QAEXM@Z 00442900 f   gameplaymanager.obj
 0001:00042310       ?PauseForFadeToBlack@GameplayManager@@QAEXM@Z 00442990 f   gameplaymanager.obj
 0001:00042350       ?PauseForFadeFromBlack@GameplayManager@@QAEXM@Z 004429d0 f   gameplaymanager.obj
 0001:000423b0       ?GetMissionVehicleByName@GameplayManager@@QAEPAVVehicle@@PBD@Z 00442a30 f   gameplaymanager.obj
 0001:00042430       ?GetMissionVehicleIndex@GameplayManager@@QAEHPAVVehicle@@@Z 00442ab0 f   gameplaymanager.obj
 0001:00042480       ?RepairVehicle@GameplayManager@@IAEXPAUCarDataStruct@1@@Z 00442b00 f   gameplaymanager.obj
 0001:000425b0       ?GetCurrentVehicle@GameplayManager@@QAEPAVVehicle@@XZ 00442c30 f   gameplaymanager.obj
 0001:000425c0       ?UnregisterVehicleHUDIcon@GameplayManager@@QAEXXZ 00442c40 f   gameplaymanager.obj
 0001:00042600       ?SetCurrentVehicle@GameplayManager@@QAEXPAVVehicle@@@Z 00442c80 f   gameplaymanager.obj
 0001:00042700       ?MakeSureHusksAreReverted@GameplayManager@@QAEXPAVVehicle@@@Z 00442d80 f   gameplaymanager.obj
 0001:000427f0       ?GetVehicleSlotFilename@GameplayManager@@QAEPADW4eCarSlots@1@@Z 00442e70 f   gameplaymanager.obj
 0001:00042800       ?GetVehicleSlotVehicleName@GameplayManager@@QAEPADW4eCarSlots@1@@Z 00442e80 f   gameplaymanager.obj
 0001:00042810       ?GetVehicleInSlot@GameplayManager@@QAEPAVVehicle@@W4eCarSlots@1@@Z 00442e90 f   gameplaymanager.obj
 0001:00042830       ?Initialize@GameplayManager@@UAEXXZ 00442eb0 f   gameplaymanager.obj
 0001:00042990       ?NextMission@GameplayManager@@QAEXXZ 00443010 f   gameplaymanager.obj
 0001:000429a0       ?PrevMission@GameplayManager@@QAEXXZ 00443020 f   gameplaymanager.obj
 0001:000429b0       ?GetCurrentMission@GameplayManager@@UAEPAVMission@@XZ 00443030 f   gameplaymanager.obj
 0001:000429f0       ?GetCurrentBonusMissionInfo@GameplayManager@@QBEPBVBonusMissionInfo@@XZ 00443070 f   gameplaymanager.obj
 0001:00042a20       ?GetBonusMissionInfo@GameplayManager@@QAEPAVBonusMissionInfo@@H@Z 004430a0 f   gameplaymanager.obj
 0001:00042a40       ?GetMissionHeap@GameplayManager@@QAE?AW4GameMemoryAllocator@@H@Z 004430c0 f   gameplaymanager.obj
 0001:00042a50       ?GetCurrentMissionNum@GameplayManager@@QBEHXZ 004430d0 f   gameplaymanager.obj
 0001:00042a70       ?IsBonusMissionDesired@GameplayManager@@QBE_NXZ 004430f0 f   gameplaymanager.obj
 0001:00042a80       ?CancelBonusMission@GameplayManager@@QAEXXZ 00443100 f   gameplaymanager.obj
 0001:00042ab0       ?EnablePhoneBooths@GameplayManager@@QAEXXZ 00443130 f   gameplaymanager.obj
 0001:00042ac0       ?DisablePhoneBooths@GameplayManager@@QAEXXZ 00443140 f   gameplaymanager.obj
 0001:00042ad0       ?QueryPhoneBoothsEnabled@GameplayManager@@QAE_NXZ 00443150 f   gameplaymanager.obj
 0001:00042ae0       ?CreateChaseManager@GameplayManager@@QAEHPAD0H@Z 00443160 f   gameplaymanager.obj
 0001:00042bf0       ?GetChaseManager@GameplayManager@@QAEPAVChaseManager@@PAD@Z 00443270 f   gameplaymanager.obj
 0001:00042c70       ?GetChaseManager@GameplayManager@@QAEPAVChaseManager@@H@Z 004432f0 f   gameplaymanager.obj
 0001:00042c90       ?GetMissionNumByName@GameplayManager@@QAEHPBD@Z 00443310 f   gameplaymanager.obj
 0001:00042d10       ?KillAllChaseManagers@GameplayManager@@QAEXXZ 00443390 f   gameplaymanager.obj
 0001:00042d50       ?EnableBonusMissions@GameplayManager@@QAEXXZ 004433d0 f   gameplaymanager.obj
 0001:00042d90       ?DisableBonusMissions@GameplayManager@@QAEXXZ 00443410 f   gameplaymanager.obj
 0001:00042dd0       ?DisableAllChaseAI@GameplayManager@@QAEXXZ 00443450 f   gameplaymanager.obj
 0001:00042de0       ?EnableAllChaseAI@GameplayManager@@QAEXXZ 00443460 f   gameplaymanager.obj
 0001:00042df0       ?GetGameType@GameplayManager@@QAE?AW4GameTypeEnum@1@XZ 00443470 f   gameplaymanager.obj
 0001:00042e00       ?GetControllerColour@GameplayManager@@QAE?AUpddiColour@@H@Z 00443480 f   gameplaymanager.obj
 0001:00042e80       ?GetRespawnManager@GameplayManager@@QAEPAVRespawnManager@@XZ 00443500 f   gameplaymanager.obj
 0001:00042e90       ?SetPostLevelFMV@GameplayManager@@QAEXPBD@Z 00443510 f   gameplaymanager.obj
 0001:00042ee0       ?AddToVDU@GameplayManager@@QAEHPAVVehicle@@@Z 00443560 f   gameplaymanager.obj
 0001:00042f50       ?MDKVDU@GameplayManager@@QAEHXZ 004435d0 f   gameplaymanager.obj
 0001:00042fa0       ?SetDialogueName@BonusMissionInfo@@QAEXPBD@Z 00443620 f i gameplaymanager.obj
 0001:00042fe0       ??0GameplayManager@@IAE@XZ 00443660 f   gameplaymanager.obj
 0001:00043300       ??_EGameplayManager@@MAEPAXI@Z 00443980 f i gameplaymanager.obj
 0001:00043300       ??_GGameplayManager@@MAEPAXI@Z 00443980 f i gameplaymanager.obj
 0001:00043320       ?TestPosInFrustrumOfPlayer@GameplayManager@@QAE_NABVVector@RadicalMathLibrary@@HM@Z 004439a0 f   gameplaymanager.obj
 0001:00043390       ?PlaceVehicleAtLocator@GameplayManager@@QAEXPAVVehicle@@PAVCarStartLocator@@@Z 00443a10 f   gameplaymanager.obj
 0001:00043410       ?EmptyMissionVehicleSlots@GameplayManager@@QAEXXZ 00443a90 f   gameplaymanager.obj
 0001:00043530       ?GetUserVehicleByName@GameplayManager@@QAEPAVVehicle@@PBD@Z 00443bb0 f   gameplaymanager.obj
 0001:000435f0       ?HandleEvent@GameplayManager@@UAEXW4EventEnum@@PAX@Z 00443c70 f   gameplaymanager.obj
 0001:00043c50       ?ClearVehicleSlot@GameplayManager@@QAEXW4eCarSlots@1@@Z 004442d0 f   gameplaymanager.obj
 0001:00043dc0       ?CopyVehicleSlot@GameplayManager@@QAEXW4eCarSlots@1@0@Z 00444440 f   gameplaymanager.obj
 0001:00043e70       ?SetBonusMissionInfo@GameplayManager@@QAEXPBD000_N01@Z 004444f0 f   gameplaymanager.obj
 0001:00044110       ?SetCurrentMission@GameplayManager@@IAEXH@Z 00444790 f   gameplaymanager.obj
 0001:000442a0       ?DoNextMission@GameplayManager@@AAEXXZ 00444920 f   gameplaymanager.obj
 0001:00044350       ?DoPrevMission@GameplayManager@@AAEXXZ 004449d0 f   gameplaymanager.obj
 0001:00044380       ?UpdateVDU@GameplayManager@@AAEHXZ 00444a00 f   gameplaymanager.obj
 0001:00044480       ?ReleaseFromVDU@GameplayManager@@QAEXPADPAPAVVehicle@@@Z 00444b00 f   gameplaymanager.obj
 0001:00044540       ?RemoveVehicleFromMissionVehicleSlots@GameplayManager@@QAEHPAVVehicle@@@Z 00444bc0 f   gameplaymanager.obj
 0001:000446b0       ?LevelLoaded@GameplayManager@@UAEXXZ 00444d30 f   gameplaymanager.obj
 0001:000446f0       ?ContinueGameplay@GameplayManager@@QAEXXZ 00444d70 f   gameplaymanager.obj
 0001:000447e0       ?Update@GameplayManager@@UAEXH@Z 00444e60 f   gameplaymanager.obj
 0001:000449d0       ?AddMissionVehicle@GameplayManager@@QAEPAVVehicle@@PAD00@Z 00445050 f   gameplaymanager.obj
 0001:00044c20       ?DumpCurrentCar@GameplayManager@@QAEXXZ 004452a0 f   gameplaymanager.obj
 0001:00044cb0       ?ClearVehicleSlotIfInSphere@GameplayManager@@QAEXW4eCarSlots@1@ABVSphere@RadicalMathLibrary@@@Z 00445330 f   gameplaymanager.obj
 0001:00044d10       ?DumpCurrentCarIfInSphere@GameplayManager@@QAEXABVSphere@RadicalMathLibrary@@@Z 00445390 f   gameplaymanager.obj
 0001:00044d30       ?Finalize@GameplayManager@@UAEXXZ 004453b0 f   gameplaymanager.obj
 0001:00044eb0       ?PlaceVehicleAtLocatorName@GameplayManager@@QAEXPAVVehicle@@PBD@Z 00445530 f   gameplaymanager.obj
 0001:00044ef0       ?AmbientCharacterAnimationSetRandom@HasPresentationInfo@@QAEXI_N@Z 00445570 f   haspresentationinfo.obj
 0001:00044f10       ?GoToPattyAndSelmaScreenWhenDone@HasPresentationInfo@@QAEXXZ 00445590 f   haspresentationinfo.obj
 0001:00044f20       ?OnStageCompleteSuccessful@HasPresentationInfo@@QBEXXZ 004455a0 f   haspresentationinfo.obj
 0001:00044f40       ?SetConversationCamName@HasPresentationInfo@@QAEXABVtName@@@Z 004455c0 f   haspresentationinfo.obj
 0001:00044f50       ?SetConversationCamPcName@HasPresentationInfo@@QAEXABVtName@@@Z 004455d0 f   haspresentationinfo.obj
 0001:00044f60       ?SetConversationCamNpcName@HasPresentationInfo@@QAEXABVtName@@@Z 004455e0 f   haspresentationinfo.obj
 0001:00044f70       ?SetBestSideLocator@HasPresentationInfo@@QAEXABVtName@@@Z 004455f0 f   haspresentationinfo.obj
 0001:00044f80       ??$fill@PAVtName@@V1@@std@@YAXPAVtName@@0ABV1@@Z 00445600 f i haspresentationinfo.obj
 0001:00044fb0       ??$_Copy_backward_opt@PAVtName@@PAV1@@std@@YAPAVtName@@PAV1@00U_Nonscalar_ptr_iterator_tag@0@@Z 00445630 f i haspresentationinfo.obj
 0001:00044ff0       ?Reset@HasPresentationInfo@@QAEXXZ 00445670 f   haspresentationinfo.obj
 0001:000450a0       ??$_Uninit_copy@Viterator@?$vector@VtName@@V?$s2alloc@VtName@@@@@std@@PAVtName@@V?$s2alloc@VtName@@@@@std@@YAPAVtName@@Viterator@?$vector@VtName@@V?$s2alloc@VtName@@@@@0@0PAV1@AAV?$s2alloc@VtName@@@@U_Nonscalar_ptr_iterator_tag@0@@Z 00445720 f i haspresentationinfo.obj
 0001:000450a0       ??$_Uninit_copy@PAVtName@@PAV1@V?$s2alloc@VtName@@@@@std@@YAPAVtName@@PAV1@00AAV?$s2alloc@VtName@@@@U_Nonscalar_ptr_iterator_tag@0@@Z 00445720 f i haspresentationinfo.obj
 0001:00045130       ??$_Uninit_fill_n@PAVtName@@IV1@V?$s2alloc@VtName@@@@@std@@YAXPAVtName@@IABV1@AAV?$s2alloc@VtName@@@@U_Nonscalar_ptr_iterator_tag@0@@Z 004457b0 f i haspresentationinfo.obj
 0001:000451c0       ?_Destroy@?$vector@VtName@@V?$s2alloc@VtName@@@@@std@@IAEXPAVtName@@0@Z 00445840 f i haspresentationinfo.obj
 0001:000451f0       ?_Tidy@?$vector@VtName@@V?$s2alloc@VtName@@@@@std@@IAEXXZ 00445870 f i haspresentationinfo.obj
 0001:00045240       ?_Ufill@?$vector@VtName@@V?$s2alloc@VtName@@@@@std@@IAEPAVtName@@PAV3@IABV3@@Z 004458c0 f i haspresentationinfo.obj
 0001:00045270       ??1?$vector@VtName@@V?$s2alloc@VtName@@@@@std@@QAE@XZ 004458f0 f i haspresentationinfo.obj
 0001:00045280       ?erase@?$vector@VtName@@V?$s2alloc@VtName@@@@@std@@QAE?AViterator@12@V312@0@Z 00445900 f i haspresentationinfo.obj
 0001:000452e0       ??1HasPresentationInfo@@QAE@XZ 00445960 f   haspresentationinfo.obj
 0001:00045370       ?_Xlen@?$vector@VtName@@V?$s2alloc@VtName@@@@@std@@IBEXXZ 004459f0 f i haspresentationinfo.obj
 0001:000453e0       ?reserve@?$vector@VtName@@V?$s2alloc@VtName@@@@@std@@QAEXI@Z 00445a60 f i haspresentationinfo.obj
 0001:000454d0       ?_Insert_n@?$vector@VtName@@V?$s2alloc@VtName@@@@@std@@IAEXViterator@12@IABVtName@@@Z 00445b50 f i haspresentationinfo.obj
 0001:00045760       ?resize@?$vector@VtName@@V?$s2alloc@VtName@@@@@std@@QAEXIVtName@@@Z 00445de0 f i haspresentationinfo.obj
 0001:00045810       ??0HasPresentationInfo@@QAE@XZ 00445e90 f   haspresentationinfo.obj
 0001:000458d0       ?SetCameraForDialogLine@HasPresentationInfo@@QAEXIABVtName@@@Z 00445f50 f   haspresentationinfo.obj
 0001:00045930       ?push_back@?$vector@VtName@@V?$s2alloc@VtName@@@@@std@@QAEXABVtName@@@Z 00445fb0 f i haspresentationinfo.obj
 0001:000459a0       ?AddAmbientCharacterAnimation@HasPresentationInfo@@QAEXIABVtName@@@Z 00446020 f   haspresentationinfo.obj
 0001:000459f0       ??0Mission@@QAE@XZ         00446070 f   mission.obj
 0001:00045b50       ??1Mission@@UAE@XZ         004461d0 f   mission.obj
 0001:00045c70       ?IsComplete@Mission@@QAE_NXZ 004462f0 f   mission.obj
 0001:00045c80       ?SetRestartDynaload@Mission@@QAEXPBD0@Z 00446300 f   mission.obj
 0001:00045d90       ?AddBonusObjective@Mission@@QAEXPAVBonusObjective@@@Z 00446410 f   mission.obj
 0001:00045db0       ?StartBonusObjectives@Mission@@QAEXXZ 00446430 f   mission.obj
 0001:00045df0       ?SetForcedCar@Mission@@QAEX_N@Z 00446470 f   mission.obj
 0001:00045e00       ?InitDynaLoad@Mission@@QAEXXZ 00446480 f   mission.obj
 0001:00045e50       ?GetCurrentStage@Mission@@QAEPAVMissionStage@@XZ 004464d0 f   mission.obj
 0001:00045e70       ?GetMissionTimeLeftInSeconds@Mission@@QAEHXZ 004464f0 f   mission.obj
 0001:00045e90       ?GetActiveSuperCamIndex@SuperCamCentral@@QBEIXZ 00446510 f   supercamcentral.obj
 0001:00045e90       ?GetPositionalGroup@radSoundVoiceXBox@@UAEPAUIRadSoundHalPositionalGroup@@XZ 00446510 f   radsoundxr:voice.obj
 0001:00045e90       ?GetMissionTimeLeftInMilliSeconds@Mission@@QAEHXZ 00446510 f   mission.obj
 0001:00045ea0       ?SetBonusMission@Mission@@QAEXXZ 00446520 f   mission.obj
 0001:00045eb0       ?IsRaceMission@Mission@@QAE_NXZ 00446530 f   mission.obj
 0001:00045ed0       ?IsWagerMission@Mission@@QAE_NXZ 00446550 f   mission.obj
 0001:00045ef0       ?UnlockStage@Mission@@AAE_NPAVMissionStage@@@Z 00446570 f   mission.obj
 0001:00045fd0       ?LoadStreetRaceProps@Mission@@QAEXPBD@Z 00446650 f   mission.obj
 0001:000460c0       ?UnloadStreetRaceProps@Mission@@QAEXPBD@Z 00446740 f   mission.obj
 0001:000461b0       ?SetupStageChange@Mission@@AAEXXZ 00446830 f   mission.obj
 0001:000461d0       ?SetSwappedCarsFlag@Mission@@QAEX_N@Z 00446850 f   mission.obj
 0001:000461e0       ?GetSwappedCarsFlag@Mission@@QAE_NXZ 00446860 f   mission.obj
 0001:000461f0       ?InitStreetRacePropLoad@Mission@@QAEXXZ 00446870 f   mission.obj
 0001:00046240       ?InitStreetRacePropUnload@Mission@@QAEXXZ 004468c0 f   mission.obj
 0001:00046290       ?ShowHUD@Mission@@QAEX_N@Z 00446910 f   mission.obj
 0001:000462d0       ?CanMDKCar@Mission@@QAE_NPAVVehicle@@PAVMissionStage@@@Z 00446950 f   mission.obj
 0001:00046350       ??_GMission@@UAEPAXI@Z     004469d0 f i mission.obj
 0001:00046350       ??_EMission@@UAEPAXI@Z     004469d0 f i mission.obj
 0001:00046370       ?ResetStage@Mission@@QAEXXZ 004469f0 f   mission.obj
 0001:00046380       ?HandleEvent@Mission@@UAEXW4EventEnum@@PAX@Z 00446a00 f   mission.obj
 0001:00046430       ?ResetPlayer@Mission@@QAEXXZ 00446ab0 f   mission.obj
 0001:00046550       ?DialogueCharactersTeleported@Mission@@QAE_NXZ 00446bd0 f   mission.obj
 0001:00046590       ?IsBonusMission@Mission@@QAE_NXZ 00446c10 f   mission.obj
 0001:000465b0       ?SetToStage@Mission@@QAEXH_N@Z 00446c30 f   mission.obj
 0001:00046700       ?NextStage@Mission@@UAEXXZ 00446d80 f   mission.obj
 0001:00046710       ?PrevStage@Mission@@UAEXXZ 00446d90 f   mission.obj
 0001:00046740       ?Reset@Mission@@QAEX_N@Z   00446dc0 f   mission.obj
 0001:00046870       ?DoStageChange@Mission@@AAEXXZ 00446ef0 f   mission.obj
 0001:00046950       ?Initialize@Mission@@UAEXW4GameMemoryAllocator@@@Z 00446fd0 f   mission.obj
 0001:00046bb0       ?Finalize@Mission@@UAEXXZ  00447230 f   mission.obj
 0001:00047080       ?Update@Mission@@QAEXI@Z   00447700 f   mission.obj
 0001:00047550       ?CreateStatePropCollectible@Mission@@QAEXPBD0H@Z 00447bd0 f   mission.obj
 0001:000476d0       ?AttachStatePropCollectible@Mission@@QAEXPBD0H@Z 00447d50 f   mission.obj
 0001:00047820       ?IsIrisClosed@GameplayManager@@QAE_NXZ 00447ea0 f i missionmanager.obj
 0001:00047840       ?GetInstance@MissionManager@@SAPAV1@XZ 00447ec0 f   missionmanager.obj
 0001:00047850       ?DestroyInstance@MissionManager@@SAXXZ 00447ed0 f   missionmanager.obj
 0001:00047870       ??1MissionManager@@MAE@XZ  00447ef0 f   missionmanager.obj
 0001:000478e0       ?IsSundayDrive@MissionManager@@UAE_NXZ 00447f60 f i missionmanager.obj
 0001:00047910       ?Initialize@MissionManager@@UAEXXZ 00447f90 f   missionmanager.obj
 0001:000479a0       ?Finalize@MissionManager@@UAEXXZ 00448020 f   missionmanager.obj
 0001:000479e0       ?Update@MissionManager@@UAEXH@Z 00448060 f   missionmanager.obj
 0001:00047bb0       ?Reset@MissionManager@@UAEXXZ 00448230 f   missionmanager.obj
 0001:00047c10       ?HandleEvent@MissionManager@@UAEXW4EventEnum@@PAX@Z 00448290 f   missionmanager.obj
 0001:00047d20       ?RestartCurrentMission@MissionManager@@UAEXXZ 004483a0 f   missionmanager.obj
 0001:00047d70       ?RestartToMission@MissionManager@@UAEXW4MissionEnum@RenderEnums@@@Z 004483f0 f   missionmanager.obj
 0001:00047de0       ?AbortCurrentMission@MissionManager@@UAEXXZ 00448460 f   missionmanager.obj
 0001:00047e10       ?LoadLevelData@MissionManager@@UAEXXZ 00448490 f   missionmanager.obj
 0001:00047ef0       ?InitLevelData@MissionManager@@UAEXXZ 00448570 f   missionmanager.obj
 0001:00047f90       ?OnProcessRequestsComplete@MissionManager@@UAEXPAX@Z 00448610 f   missionmanager.obj
 0001:00047fd0       ?LoadMission@MissionManager@@MAEXXZ 00448650 f   missionmanager.obj
 0001:00048060       ?PutEffectHere@MissionManager@@QAEXABVVector@RadicalMathLibrary@@@Z 004486e0 f   missionmanager.obj
 0001:00048090       ??0MissionManager@@IAE@XZ  00448710 f   missionmanager.obj
 0001:00048100       ??_EMissionManager@@MAEPAXI@Z 00448780 f i missionmanager.obj
 0001:00048100       ??_GMissionManager@@MAEPAXI@Z 00448780 f i missionmanager.obj
 0001:00048120       ??0?$Iterator@VLocator@@@tInventory@@QAE@XZ 004487a0 f i missionmanager.obj
 0001:000481b0       ?CreateInstance@MissionManager@@SAPAV1@XZ 00448830 f   missionmanager.obj
 0001:00048220       ?Next@?$Iterator@VLocator@@@tInventory@@QAEPAVLocator@@XZ 004488a0 f i missionmanager.obj
 0001:00048260       ?PerformLoading@MissionManager@@UAEXXZ 004488e0 f   missionmanager.obj
 0001:00048880       ?CleanMissionData@MissionManager@@UAEXXZ 00448f00 f   missionmanager.obj
 0001:00048ad0       ??0ModelData@PedestrianManager@@QAE@XZ 00449150 f i missionscriptloader.obj
 0001:00048ae0       ??0ModelGroup@PedestrianManager@@QAE@XZ 00449160 f i missionscriptloader.obj
 0001:00048b40       ?AddTrafficModel@TrafficModelGroup@@QAEXPBDH@Z 004491c0 f i missionscriptloader.obj
 0001:00048c10       ?GetInstance@MissionScriptLoader@@SAPAV1@XZ 00449290 f   missionscriptloader.obj
 0001:00048c20       ?DestroyInstance@MissionScriptLoader@@SAXXZ 004492a0 f   missionscriptloader.obj
 0001:00048c40       ??1MissionScriptLoader@@EAE@XZ 004492c0 f   missionscriptloader.obj
 0001:00048c50       ?LoadScriptAsync@MissionScriptLoader@@QAEXPADPAUProcessRequestsCallback@LoadingManager@@@Z 004492d0 f   missionscriptloader.obj
 0001:00048c90       ?OnExecuteScriptComplete@MissionScriptLoader@@UAEXPAX@Z 00449310 f   missionscriptloader.obj
 0001:00048cb0       ?InitLevelPlayerVehicle@MissionScriptLoader@@CAXHPAPAD@Z 00449330 f   missionscriptloader.obj
 0001:00048e70       ?PlacePlayerCar@MissionScriptLoader@@CAXHPAPAD@Z 004494f0 f   missionscriptloader.obj
 0001:00048f00       ?SetPostLevelFMV@MissionScriptLoader@@CAXHPAPAD@Z 00449580 f   missionscriptloader.obj
 0001:00048f20       ?CreateChaseManager@MissionScriptLoader@@CAXHPAPAD@Z 004495a0 f   missionscriptloader.obj
 0001:00048fa0       ?SetChaseSpawnRate@MissionScriptLoader@@CAXHPAPAD@Z 00449620 f   missionscriptloader.obj
 0001:00049000       ?KillAllChaseAI@MissionScriptLoader@@CAXHPAPAD@Z 00449680 f   missionscriptloader.obj
 0001:00049050       ?AddMission@MissionScriptLoader@@CAXHPAPAD@Z 004496d0 f   missionscriptloader.obj
 0001:00049250       ?AddBonusMission@MissionScriptLoader@@CAXHPAPAD@Z 004498d0 f   missionscriptloader.obj
 0001:00049440       ?CloseMission@MissionScriptLoader@@CAXHPAPAD@Z 00449ac0 f   missionscriptloader.obj
 0001:00049450       ?SetForcedCar@MissionScriptLoader@@CAXHPAPAD@Z 00449ad0 f   missionscriptloader.obj
 0001:00049460       ?SetDemoLoopTime@MissionScriptLoader@@CAXHPAPAD@Z 00449ae0 f   missionscriptloader.obj
 0001:000494c0       ?SelectMission@MissionScriptLoader@@CAXHPAPAD@Z 00449b40 f   missionscriptloader.obj
 0001:00049520       ?SetMissionNameIndex@MissionScriptLoader@@CAXHPAPAD@Z 00449ba0 f   missionscriptloader.obj
 0001:00049530       ?SetDynaLoadData@MissionScriptLoader@@CAXHPAPAD@Z 00449bb0 f   missionscriptloader.obj
 0001:00049570       ?AddBonusObjective@MissionScriptLoader@@CAXHPAPAD@Z 00449bf0 f   missionscriptloader.obj
 0001:00049720       ?AddNPC@MissionScriptLoader@@CAXHPAPAD@Z 00449da0 f   missionscriptloader.obj
 0001:00049790       ?AddDriver@MissionScriptLoader@@CAXHPAPAD@Z 00449e10 f   missionscriptloader.obj
 0001:00049800       ?RemoveNPC@MissionScriptLoader@@CAXHPAPAD@Z 00449e80 f   missionscriptloader.obj
 0001:00049840       ?RemoveDriver@MissionScriptLoader@@CAXHPAPAD@Z 00449ec0 f   missionscriptloader.obj
 0001:00049880       ?SetTalkToTarget@MissionScriptLoader@@CAXHPAPAD@Z 00449f00 f   missionscriptloader.obj
 0001:00049910       ?SetDialogueInfo@MissionScriptLoader@@CAXHPAPAD@Z 00449f90 f   missionscriptloader.obj
 0001:00049950       ?SetRaceLaps@MissionScriptLoader@@CAXHPAPAD@Z 00449fd0 f   missionscriptloader.obj
 0001:00049980       ?BindCollectibleToWaypoint@MissionScriptLoader@@CAXHPAPAD@Z 0044a000 f   missionscriptloader.obj
 0001:000499c0       ?AllowUserDump@MissionScriptLoader@@CAXHPAPAD@Z 0044a040 f   missionscriptloader.obj
 0001:000499d0       ?SetVehicleToLoad@MissionScriptLoader@@CAXHPAPAD@Z 0044a050 f   missionscriptloader.obj
 0001:00049a30       ?CloseObjective@MissionScriptLoader@@CAXHPAPAD@Z 0044a0b0 f   missionscriptloader.obj
 0001:00049a50       ?AddCollectible@MissionScriptLoader@@CAXHPAPAD@Z 0044a0d0 f   missionscriptloader.obj
 0001:00049b50       ?AddCollectibleStateProp@MissionScriptLoader@@CAXHPAPAD@Z 0044a1d0 f   missionscriptloader.obj
 0001:00049b80       ?SetCollectibleEffect@MissionScriptLoader@@CAXHPAPAD@Z 0044a200 f   missionscriptloader.obj
 0001:00049bb0       ?SetDestination@MissionScriptLoader@@CAXHPAPAD@Z 0044a230 f   missionscriptloader.obj
 0001:00049ca0       ?TurnGotoDialogOff@MissionScriptLoader@@CAXHPAPAD@Z 0044a320 f   missionscriptloader.obj
 0001:00049cb0       ?MustActionTrigger@MissionScriptLoader@@CAXHPAPAD@Z 0044a330 f   missionscriptloader.obj
 0001:00049cc0       ?AddStageMusicChange@MissionScriptLoader@@CAXHPAPAD@Z 0044a340 f   missionscriptloader.obj
 0001:00049cd0       ?SetStageMusicAlwaysOn@MissionScriptLoader@@CAXHPAPAD@Z 0044a350 f   missionscriptloader.obj
 0001:00049ce0       ?SetStageStartMusicEvent@MissionScriptLoader@@CAXHPAPAD@Z 0044a360 f   missionscriptloader.obj
 0001:00049d20       ?SetMusicState@MissionScriptLoader@@CAXHPAPAD@Z 0044a3a0 f   missionscriptloader.obj
 0001:00049d80       ?SetStageCamera@MissionScriptLoader@@CAXHPAPAD@Z 0044a400 f   missionscriptloader.obj
 0001:00049e30       ?ResetToThisStage@MissionScriptLoader@@CAXHPAPAD@Z 0044a4b0 f   missionscriptloader.obj
 0001:00049e50       ?SetTrafficDensity@MissionScriptLoader@@CAXHPAPAD@Z 0044a4d0 f   missionscriptloader.obj
 0001:00049e80       ?CloseCondition@MissionScriptLoader@@CAXHPAPAD@Z 0044a500 f   missionscriptloader.obj
 0001:00049ea0       ?AmbientAnimationRandomize@MissionScriptLoader@@CAXHPAPAD@Z 0044a520 f   missionscriptloader.obj
 0001:00049ee0       ?AddAmbientNpcAnimation@MissionScriptLoader@@CAXHPAPAD@Z 0044a560 f   missionscriptloader.obj
 0001:00049fc0       ?AddAmbientPcAnimation@MissionScriptLoader@@CAXHPAPAD@Z 0044a640 f   missionscriptloader.obj
 0001:0004a0c0       ?SetCamBestSide@MissionScriptLoader@@CAXHPAPAD@Z 0044a740 f   missionscriptloader.obj
 0001:0004a1a0       ?SetConversationCamName@MissionScriptLoader@@CAXHPAPAD@Z 0044a820 f   missionscriptloader.obj
 0001:0004a220       ?SetConversationCamPcName@MissionScriptLoader@@CAXHPAPAD@Z 0044a8a0 f   missionscriptloader.obj
 0001:0004a2a0       ?SetConversationCamNpcName@MissionScriptLoader@@CAXHPAPAD@Z 0044a920 f   missionscriptloader.obj
 0001:0004a320       ?SetConversationCam@MissionScriptLoader@@CAXHPAPAD@Z 0044a9a0 f   missionscriptloader.obj
 0001:0004a3f0       ?SetConversationCamDistance@MissionScriptLoader@@CAXHPAPAD@Z 0044aa70 f   missionscriptloader.obj
 0001:0004a470       ?SetPresentationBitmap@MissionScriptLoader@@CAXHPAPAD@Z 0044aaf0 f   missionscriptloader.obj
 0001:0004a4a0       ?SetAnimatedCameraName@MissionScriptLoader@@CAXHPAPAD@Z 0044ab20 f   missionscriptloader.obj
 0001:0004a4d0       ?SetMissionStartMulticontrollerName@MissionScriptLoader@@CAXHPAPAD@Z 0044ab50 f   missionscriptloader.obj
 0001:0004a4f0       ?SetMissionStartCameraName@MissionScriptLoader@@CAXHPAPAD@Z 0044ab70 f   missionscriptloader.obj
 0001:0004a510       ?SetPlayerCarName@MissionScriptLoader@@CAXHPAPAD@Z 0044ab90 f   missionscriptloader.obj
 0001:0004a540       ?SetFMVInfo@MissionScriptLoader@@CAXHPAPAD@Z 0044abc0 f   missionscriptloader.obj
 0001:0004a570       ?SetAnimatedCameraMulticontrollerName@MissionScriptLoader@@CAXHPAPAD@Z 0044abf0 f   missionscriptloader.obj
 0001:0004a570       ?CharacterIsChild@MissionScriptLoader@@CAXHPAPAD@Z 0044abf0 f   missionscriptloader.obj
 0001:0004a590       ?SetFollowDistances@MissionScriptLoader@@CAXHPAPAD@Z 0044ac10 f   missionscriptloader.obj
 0001:0004a5e0       ?SetCondMinHealth@MissionScriptLoader@@CAXHPAPAD@Z 0044ac60 f   missionscriptloader.obj
 0001:0004a610       ?SetConditionPosition@MissionScriptLoader@@CAXHPAPAD@Z 0044ac90 f   missionscriptloader.obj
 0001:0004a630       ?SetCondTime@MissionScriptLoader@@CAXHPAPAD@Z 0044acb0 f   missionscriptloader.obj
 0001:0004a660       ?SetObjTargetBoss@MissionScriptLoader@@CAXHPAPAD@Z 0044ace0 f   missionscriptloader.obj
 0001:0004a690       ?SetPickupTarget@MissionScriptLoader@@CAXHPAPAD@Z 0044ad10 f   missionscriptloader.obj
 0001:0004a6b0       ?AllowRockOut@MissionScriptLoader@@CAXHPAPAD@Z 0044ad30 f   missionscriptloader.obj
 0001:0004a6c0       ?SetObjDistance@MissionScriptLoader@@CAXHPAPAD@Z 0044ad40 f   missionscriptloader.obj
 0001:0004a700       ?AddStage@MissionScriptLoader@@CAXHPAPAD@Z 0044ad80 f   missionscriptloader.obj
 0001:0004a940       ?SetStageMessageIndex@MissionScriptLoader@@CAXHPAPAD@Z 0044afc0 f   missionscriptloader.obj
 0001:0004a960       ?SetStageTime@MissionScriptLoader@@CAXHPAPAD@Z 0044afe0 f   missionscriptloader.obj
 0001:0004a9a0       ?AddStageTime@MissionScriptLoader@@CAXHPAPAD@Z 0044b020 f   missionscriptloader.obj
 0001:0004a9e0       ?ShowStageComplete@MissionScriptLoader@@CAXHPAPAD@Z 0044b060 f   missionscriptloader.obj
 0001:0004a9f0       ?SetHUDIcon@MissionScriptLoader@@CAXHPAPAD@Z 0044b070 f   missionscriptloader.obj
 0001:0004aa20       ?SetIrisWipe@MissionScriptLoader@@CAXHPAPAD@Z 0044b0a0 f   missionscriptloader.obj
 0001:0004aa30       ?SetFadeOut@MissionScriptLoader@@CAXHPAPAD@Z 0044b0b0 f   missionscriptloader.obj
 0001:0004aa40       ?CloseStage@MissionScriptLoader@@CAXHPAPAD@Z 0044b0c0 f   missionscriptloader.obj
 0001:0004aa50       ?SetBonusMissionStart@MissionScriptLoader@@CAXHPAPAD@Z 0044b0d0 f   missionscriptloader.obj
 0001:0004aa60       ?GetVehicleByName@MissionScriptLoader@@AAEPAVVehicle@@PBD@Z 0044b0e0 f   missionscriptloader.obj
 0001:0004aa90       ?GetDirectionalArrowType@MissionScriptLoader@@CA_NPBDPAW4TYPE@DirectionalArrowEnum@@@Z 0044b110 f   missionscriptloader.obj
 0001:0004abd0       ?LoadP3DFile@MissionScriptLoader@@CAXHPAPAD@Z 0044b250 f   missionscriptloader.obj
 0001:0004b0b0       ?LoadDisposableCar@MissionScriptLoader@@SAXHPAPAD@Z 0044b730 f   missionscriptloader.obj
 0001:0004b300       ?AddCharacter@MissionScriptLoader@@CAXHPAPAD@Z 0044b980 f   missionscriptloader.obj
 0001:0004b320       ?AddNPCCharacterBonusMission@MissionScriptLoader@@CAXHPAPAD@Z 0044b9a0 f   missionscriptloader.obj
 0001:0004b470       ?CreateActionEventTrigger@MissionScriptLoader@@CAXHPAPAD@Z 0044baf0 f   missionscriptloader.obj
 0001:0004b4f0       ?LinkActionToObjectJoint@MissionScriptLoader@@CAXHPAPAD@Z 0044bb70 f   missionscriptloader.obj
 0001:0004b520       ?LinkActionToObject@MissionScriptLoader@@CAXHPAPAD@Z 0044bba0 f   missionscriptloader.obj
 0001:0004b550       ?AddPed@MissionScriptLoader@@CAXHPAPAD@Z 0044bbd0 f   missionscriptloader.obj
 0001:0004b5f0       ?ClosePedGroup@MissionScriptLoader@@CAXHPAPAD@Z 0044bc70 f   missionscriptloader.obj
 0001:0004b640       ?UsePedGroup@MissionScriptLoader@@CAXHPAPAD@Z 0044bcc0 f   missionscriptloader.obj
 0001:0004b660       ?BindReward@MissionScriptLoader@@CAXHPAPAD@Z 0044bce0 f   missionscriptloader.obj
 0001:0004b8b0       ?SetCarAttributes@MissionScriptLoader@@CAXHPAPAD@Z 0044bf30 f   missionscriptloader.obj
 0001:0004b970       ?SetTotalGags@MissionScriptLoader@@CAXHPAPAD@Z 0044bff0 f   missionscriptloader.obj
 0001:0004b9a0       ?SetTotalWasps@MissionScriptLoader@@CAXHPAPAD@Z 0044c020 f   missionscriptloader.obj
 0001:0004b9d0       ?CreateTrafficGroup@MissionScriptLoader@@CAXHPAPAD@Z 0044c050 f   missionscriptloader.obj
 0001:0004ba40       ?AddTrafficModel@MissionScriptLoader@@CAXHPAPAD@Z 0044c0c0 f   missionscriptloader.obj
 0001:0004bae0       ?CloseTrafficGroup@MissionScriptLoader@@CAXHPAPAD@Z 0044c160 f   missionscriptloader.obj
 0001:0004baf0       ?SetRespawnRate@MissionScriptLoader@@CAXHPAPAD@Z 0044c170 f   missionscriptloader.obj
 0001:0004bc00       ?EnableTutorialMode@MissionScriptLoader@@CAXHPAPAD@Z 0044c280 f   missionscriptloader.obj
 0001:0004bc30       ?StartCountdown@MissionScriptLoader@@CAXHPAPAD@Z 0044c2b0 f   missionscriptloader.obj
 0001:0004bcd0       ?AddToCountdownSequence@MissionScriptLoader@@CAXHPAPAD@Z 0044c350 f   missionscriptloader.obj
 0001:0004bd20       ?GoToPattyAndSelmaScreenWhenDone@MissionScriptLoader@@CAXHPAPAD@Z 0044c3a0 f   missionscriptloader.obj
 0001:0004bd30       ?StreetRacePropsLoad@MissionScriptLoader@@CAXHPAPAD@Z 0044c3b0 f   missionscriptloader.obj
 0001:0004bd50       ?StreetRacePropsUnload@MissionScriptLoader@@CAXHPAPAD@Z 0044c3d0 f   missionscriptloader.obj
 0001:0004bd70       ?UseElapsedTime@MissionScriptLoader@@CAXHPAPAD@Z 0044c3f0 f   missionscriptloader.obj
 0001:0004bd80       ?AttachStatePropCollectible@MissionScriptLoader@@CAXHPAPAD@Z 0044c400 f   missionscriptloader.obj
 0001:0004bdc0       ?ShowHUD@MissionScriptLoader@@CAXHPAPAD@Z 0044c440 f   missionscriptloader.obj
 0001:0004bdf0       ?SetNumValidFailureHints@MissionScriptLoader@@CAXHPAPAD@Z 0044c470 f   missionscriptloader.obj
 0001:0004be10       ?SetParTime@MissionScriptLoader@@CAXHPAPAD@Z 0044c490 f   missionscriptloader.obj
 0001:0004be60       ?SetRaceEnteryFee@MissionScriptLoader@@CAXHPAPAD@Z 0044c4e0 f   missionscriptloader.obj
 0001:0004be90       ?SetCoinFee@MissionScriptLoader@@CAXHPAPAD@Z 0044c510 f   missionscriptloader.obj
 0001:0004bee0       ?PutMFPlayerInCar@MissionScriptLoader@@CAXHPAPAD@Z 0044c560 f   missionscriptloader.obj
 0001:0004bef0       ?SetStatepropShadow@MissionScriptLoader@@CAXHPAPAD@Z 0044c570 f   missionscriptloader.obj
 0001:0004bf10       ?DisableHitAndRun@MissionScriptLoader@@CAXHPAPAD@Z 0044c590 f   missionscriptloader.obj
 0001:0004bf40       ?EnableHitAndRun@MissionScriptLoader@@CAXHPAPAD@Z 0044c5c0 f   missionscriptloader.obj
 0001:0004bf60       ?ResetHitAndRun@MissionScriptLoader@@CAXHPAPAD@Z 0044c5e0 f   missionscriptloader.obj
 0001:0004bf70       ?SetNumChaseCars@MissionScriptLoader@@CAXHPAPAD@Z 0044c5f0 f   missionscriptloader.obj
 0001:0004bf90       ?SetHitAndRunDecay@MissionScriptLoader@@CAXHPAPAD@Z 0044c610 f   missionscriptloader.obj
 0001:0004bfc0       ?SetHitAndRunMeter@MissionScriptLoader@@CAXHPAPAD@Z 0044c640 f   missionscriptloader.obj
 0001:0004bff0       ?SwapInDefaultCar@MissionScriptLoader@@CAXHPAPAD@Z 0044c670 f   missionscriptloader.obj
 0001:0004c000       ?SetSwapDefaultCarRespawnLocatorName@MissionScriptLoader@@CAXHPAPAD@Z 0044c680 f   missionscriptloader.obj
 0001:0004c020       ?SetSwapForcedCarRespawnLocatorName@MissionScriptLoader@@CAXHPAPAD@Z 0044c6a0 f   missionscriptloader.obj
 0001:0004c040       ?SetSwapPlayerRespawnLocatorName@MissionScriptLoader@@CAXHPAPAD@Z 0044c6c0 f   missionscriptloader.obj
 0001:0004c060       ?NoTrafficForStage@MissionScriptLoader@@CAXHPAPAD@Z 0044c6e0 f   missionscriptloader.obj
 0001:0004c070       ?ClearTrafficForStage@MissionScriptLoader@@CAXHPAPAD@Z 0044c6f0 f   missionscriptloader.obj
 0001:0004c080       ?PlacePlayerAtLocatorName@MissionScriptLoader@@CAXHPAPAD@Z 0044c700 f   missionscriptloader.obj
 0001:0004c0a0       ?msPlacePlayerCarAtLocatorName@MissionScriptLoader@@CAXHPAPAD@Z 0044c720 f   missionscriptloader.obj
 0001:0004c0c0       ?SetStageAIRaceCatchupParams@MissionScriptLoader@@CAXHPAPAD@Z 0044c740 f   missionscriptloader.obj
 0001:0004c160       ?SetStageAIEvadeCatchupParams@MissionScriptLoader@@CAXHPAPAD@Z 0044c7e0 f   missionscriptloader.obj
 0001:0004c1e0       ?SetStageAITargetCatchupParams@MissionScriptLoader@@CAXHPAPAD@Z 0044c860 f   missionscriptloader.obj
 0001:0004c260       ?SetPauseDuration@MissionScriptLoader@@CAXHPAPAD@Z 0044c8e0 f   missionscriptloader.obj
 0001:0004c2b0       ?SetCharacterToHide@MissionScriptLoader@@CAXHPAPAD@Z 0044c930 f   missionscriptloader.obj
 0001:0004c2d0       ?SetLevelOver@MissionScriptLoader@@CAXHPAPAD@Z 0044c950 f   missionscriptloader.obj
 0001:0004c2e0       ?SetGameOver@MissionScriptLoader@@CAXHPAPAD@Z 0044c960 f   missionscriptloader.obj
 0001:0004c2f0       ?StayInBlack@MissionScriptLoader@@CAXHPAPAD@Z 0044c970 f   missionscriptloader.obj
 0001:0004c300       ?AllowMissionAbort@MissionScriptLoader@@CAXHPAPAD@Z 0044c980 f   missionscriptloader.obj
 0001:0004c350       ?safe_cast@?$SafeCast@VtTexture@@@radLoadInventory@@UAEPAUIRefCount@@PAU3@@Z 0044c9d0 f i missionscriptloader.obj
 0001:0004c370       ??0MissionScriptLoader@@AAE@XZ 0044c9f0 f   missionscriptloader.obj
 0001:0004c3a0       ??_GMissionScriptLoader@@EAEPAXI@Z 0044ca20 f i missionscriptloader.obj
 0001:0004c3a0       ??_EMissionScriptLoader@@EAEPAXI@Z 0044ca20 f i missionscriptloader.obj
 0001:0004c3c0       ?AddObjective@MissionScriptLoader@@CAXHPAPAD@Z 0044ca40 f   missionscriptloader.obj
 0001:0004c9d0       ?SetCompletionDialog@MissionScriptLoader@@CAXHPAPAD@Z 0044d050 f   missionscriptloader.obj
 0001:0004ca50       ?AddCondition@MissionScriptLoader@@CAXHPAPAD@Z 0044d0d0 f   missionscriptloader.obj
 0001:0004ce50       ?SetObjTargetVehicle@MissionScriptLoader@@CAXHPAPAD@Z 0044d4d0 f   missionscriptloader.obj
 0001:0004cef0       ?SetCondTargetVehicle@MissionScriptLoader@@CAXHPAPAD@Z 0044d570 f   missionscriptloader.obj
 0001:0004cf50       ?SetVehicleAIParams@MissionScriptLoader@@CAXHPAPAD@Z 0044d5d0 f   missionscriptloader.obj
 0001:0004cfe0       ?CreatePedGroup@MissionScriptLoader@@CAXHPAPAD@Z 0044d660 f   missionscriptloader.obj
 0001:0004d030       ??$find@VtTexture@@@p3d@@YAPAVtTexture@@PAVtEntityStore@@ABVtName@@@Z 0044d6b0 f i missionscriptloader.obj
 0001:0004d100       ??$find@VtTexture@@@p3d@@YAPAVtTexture@@PAVtEntityStore@@PBD@Z 0044d780 f i missionscriptloader.obj
 0001:0004d170       ?AddPurchaseCarReward@MissionScriptLoader@@CAXHPAPAD@Z 0044d7f0 f   missionscriptloader.obj
 0001:0004d3c0       ?SetMissionResetPlayerInCar@MissionScriptLoader@@CAXHPAPAD@Z 0044da40 f   missionscriptloader.obj
 0001:0004d3f0       ?SetMissionResetPlayerOutCar@MissionScriptLoader@@CAXHPAPAD@Z 0044da70 f   missionscriptloader.obj
 0001:0004d4c0       ?SetDialoguePositions@MissionScriptLoader@@CAXHPAPAD@Z 0044db40 f   missionscriptloader.obj
 0001:0004d550       ?AddStageVehicle@MissionScriptLoader@@CAXHPAPAD@Z 0044dbd0 f   missionscriptloader.obj
 0001:0004d6a0       ?MoveStageVehicle@MissionScriptLoader@@CAXHPAPAD@Z 0044dd20 f   missionscriptloader.obj
 0001:0004d790       ?ActivateVehicle@MissionScriptLoader@@CAXHPAPAD@Z 0044de10 f   missionscriptloader.obj
 0001:0004d890       ?AddStageWaypoint@MissionScriptLoader@@CAXHPAPAD@Z 0044df10 f   missionscriptloader.obj
 0001:0004d8c0       ?AddStageCharacter@MissionScriptLoader@@CAXHPAPAD@Z 0044df40 f   missionscriptloader.obj
 0001:0004d960       ?SetBonusMissionDialoguePositions@MissionScriptLoader@@CAXHPAPAD@Z 0044dfe0 f   missionscriptloader.obj
 0001:0004da10       ?AddAmbientCharacter@MissionScriptLoader@@CAXHPAPAD@Z 0044e090 f   missionscriptloader.obj
 0001:0004dad0       ?AddObjectiveNPCWaypoint@MissionScriptLoader@@CAXHPAPAD@Z 0044e150 f   missionscriptloader.obj
 0001:0004db20       ?AddNPCWaypoint@MissionScriptLoader@@CA_NPBD0@Z 0044e1a0 f   missionscriptloader.obj
 0001:0004db80       ?AddPurchaseCarNPCWaypoint@MissionScriptLoader@@CAXHPAPAD@Z 0044e200 f   missionscriptloader.obj
 0001:0004dbd0       ?AddAmbientNPCWaypoint@MissionScriptLoader@@CAXHPAPAD@Z 0044e250 f   missionscriptloader.obj
 0001:0004dbf0       ?ActivateTrigger@MissionScriptLoader@@CAXHPAPAD@Z 0044e270 f   missionscriptloader.obj
 0001:0004dc20       ?DeactivateTrigger@MissionScriptLoader@@CAXHPAPAD@Z 0044e2a0 f   missionscriptloader.obj
 0001:0004dc50       ?SetCoinDrawable@MissionScriptLoader@@CAXHPAPAD@Z 0044e2d0 f   missionscriptloader.obj
 0001:0004dc80       ?SetParticleTexture@MissionScriptLoader@@CAXHPAPAD@Z 0044e300 f   missionscriptloader.obj
 0001:0004dcc0       ?AddSafeZone@MissionScriptLoader@@CAXHPAPAD@Z 0044e340 f   missionscriptloader.obj
 0001:0004dd00       ?AddBonusMissionNPCWaypoint@MissionScriptLoader@@CAXHPAPAD@Z 0044e380 f   missionscriptloader.obj
 0001:0004dd50       ?Register@MissionScriptLoader@@QAEXXZ 0044e3d0 f   missionscriptloader.obj
 0001:0004edf0       ?CreateInstance@MissionScriptLoader@@SAPAV1@XZ 0044f470 f   missionscriptloader.obj
 0001:0004ee40       ?GetType@MissionCondition@@QBE?AW4ConditionTypeEnum@1@XZ 0044f4c0 f i missionstage.obj
 0001:0004ee60       ?DestroyStageVehicleAI@MissionStage@@AAEHXZ 0044f4e0 f   missionstage.obj
 0001:0004eed0       ?AddVehicle@MissionStage@@QAEXPAVVehicle@@HPAVCarStartLocator@@PAD@Z 0044f550 f   missionstage.obj
 0001:0004f410       ?SetAIParams@MissionStage@@QAEXPAVVehicle@@ABUAIParams@1@@Z 0044fa90 f   missionstage.obj
 0001:0004f460       ?SetAIRaceCatchupParams@MissionStage@@QAEXPAVVehicle@@ABURaceCatchupParams@VehicleAI@@@Z 0044fae0 f   missionstage.obj
 0001:0004f4a0       ?SetAIEvadeCatchupParams@MissionStage@@QAEXPAVVehicle@@ABUEvadeCatchupParams@VehicleAI@@@Z 0044fb20 f   missionstage.obj
 0001:0004f4e0       ?SetAITargetCatchupParams@MissionStage@@QAEXPAVVehicle@@ABUTargetCatchupParams@VehicleAI@@@Z 0044fb60 f   missionstage.obj
 0001:0004f520       ?AddWaypoint@MissionStage@@QAEXPAVLocator@@@Z 0044fba0 f   missionstage.obj
 0001:0004f540       ?AddCharacter@MissionStage@@QAEXPADPAVCarStartLocator@@1PBDPAVVehicle@@@Z 0044fbc0 f   missionstage.obj
 0001:0004f6c0       ?GetFailureCondition@MissionStage@@QBEPAVMissionCondition@@XZ 0044fd40 f   missionstage.obj
 0001:0004f6f0       ?VehicleFinalize@MissionStage@@QAEXXZ 0044fd70 f   missionstage.obj
 0001:0004f7a0       ?VehicleInfoInitialize@MissionStage@@QAEXXZ 0044fe20 f   missionstage.obj
 0001:0004fa20       ?HandleEvent@MissionStage@@UAEXW4EventEnum@@PAX@Z 004500a0 f   missionstage.obj
 0001:0004fa80       ?SetStageTime@MissionStage@@QAEXW4StageTimeType@1@I@Z 00450100 f   missionstage.obj
 0001:0004faa0       ?GetStageTime@MissionStage@@QAEXAAW4StageTimeType@1@AAI@Z 00450120 f   missionstage.obj
 0001:0004fac0       ?SetCameraInfo@MissionStage@@QAEXW4Type@SuperCam@@_N1@Z 00450140 f   missionstage.obj
 0001:0004faf0       ?GetVehicle@MissionStage@@QAEPAVVehicle@@H@Z 00450170 f   missionstage.obj
 0001:0004fb10       ?SetChaseSpawnRate@MissionStage@@QAEXPADI@Z 00450190 f   missionstage.obj
 0001:0004fb50       ?AddSafeZone@MissionStage@@QAEHPAVCarStartLocator@@I@Z 004501d0 f   missionstage.obj
 0001:0004fc10       ?DestroyAllSafeZones@MissionStage@@AAEXXZ 00450290 f   missionstage.obj
 0001:0004fc40       ?SetLockRequirement@MissionStage@@QAEXIW4Type@LockRequirement@1@PBD@Z 004502c0 f   missionstage.obj
 0001:0004fcb0       ?GetLockRequirement@MissionStage@@QAEABULockRequirement@1@I@Z 00450330 f   missionstage.obj
 0001:0004fcd0       ?DisplayMissionStageIndexMessage@MissionStage@@QAEXXZ 00450350 f   missionstage.obj
 0001:0004fd20       ?SetCountdownEnabled@MissionStage@@QAEXIVtUidUnaligned@@@Z 004503a0 f   missionstage.obj
 0001:0004fdd0       ?AddCountdownSequenceUnit@MissionStage@@QAEXPBDH@Z 00450450 f   missionstage.obj
 0001:0004fe20       ?GetCountdownSequenceUnit@MissionStage@@QBEPAUCountdownSequenceUnit@1@H@Z 004504a0 f   missionstage.obj
 0001:0004fe40       ?PutAllAisInLimbo@MissionStage@@QAEX_N@Z 004504c0 f   missionstage.obj
 0001:0004fe90       ?UseElapsedTime@MissionStage@@QAEXXZ 00450510 f   missionstage.obj
 0001:0004fea0       ?QueryUseElapsedTime@MissionStage@@QAE_NXZ 00450520 f   missionstage.obj
 0001:0004feb0       ?SetRaceEnteryFee@MissionStage@@QAEXH@Z 00450530 f   missionstage.obj
 0001:0004fec0       ?PutMFPlayerInCar@MissionStage@@QAEXXZ 00450540 f   missionstage.obj
 0001:0004fed0       ?DisableHitAndRun@MissionStage@@QAEXXZ 00450550 f   missionstage.obj
 0001:0004fee0       ?SwapInDefaultCar@MissionStage@@QAEXXZ 00450560 f   missionstage.obj
 0001:0004fef0       ?OnProcessRequestsComplete@MissionStage@@UAEXPAX@Z 00450570 f   missionstage.obj
 0001:00050020       ?SetSwapDefaultCarRespawnLocatorName@MissionStage@@QAEXPAD@Z 004506a0 f   missionstage.obj
 0001:00050050       ?SetSwapPlayerRespawnLocatorName@MissionStage@@QAEXPAD@Z 004506d0 f   missionstage.obj
 0001:00050080       ?SetSwapForcedCarRespawnLocatorName@MissionStage@@QAEXPAD@Z 00450700 f   missionstage.obj
 0001:000500b0       ?DisableTraffic@MissionStage@@QAEXXZ 00450730 f   missionstage.obj
 0001:000500c0       ?ClearTrafficForStage@MissionStage@@QAEXXZ 00450740 f   missionstage.obj
 0001:000500d0       ?SetPlayerRespawnLocatorName@MissionStage@@QAEXPAD@Z 00450750 f   missionstage.obj
 0001:00050100       ?SetmsPlayerCarRespawnLocatorName@MissionStage@@QAEXPAD@Z 00450780 f   missionstage.obj
 0001:00050130       ?OnStageCompleteSuccessful@MissionStage@@IAEXXZ 004507b0 f   missionstage.obj
 0001:00050140       ?SetCharacterToHide@MissionStage@@QAEXPAD@Z 004507c0 f   missionstage.obj
 0001:00050170       ?SetLevelOver@MissionStage@@QAEXXZ 004507f0 f   missionstage.obj
 0001:00050180       ?SetStageMusicState@MissionStage@@QAEXII@Z 00450800 f   missionstage.obj
 0001:000501a0       ?GetStageMusicState@MissionStage@@QAEXAAI0@Z 00450820 f   missionstage.obj
 0001:000501c0       ?GetMainAIVehicleForThisStage@MissionStage@@QAEPAVVehicle@@XZ 00450840 f   missionstage.obj
 0001:00050290       ??0MissionStage@@QAE@XZ    00450910 f   missionstage.obj
 0001:00050620       ??1MissionStage@@UAE@XZ    00450ca0 f   missionstage.obj
 0001:000507b0       ?Finalize@MissionStage@@QAEXXZ 00450e30 f   missionstage.obj
 0001:000508d0       ?Start@MissionStage@@QAEXXZ 00450f50 f   missionstage.obj
 0001:000509a0       ?triggerStageDialog@MissionStage@@AAEXXZ 00451020 f   missionstage.obj
 0001:00050a50       ??_EMissionStage@@UAEPAXI@Z 004510d0 f i missionstage.obj
 0001:00050a50       ??_GMissionStage@@UAEPAXI@Z 004510d0 f i missionstage.obj
 0001:00050a70       ?Update@MissionStage@@UAEXI@Z 004510f0 f   missionstage.obj
 0001:00050dc0       ?Reset@MissionStage@@QAEXXZ 00451440 f   missionstage.obj
 0001:00051550       ?SwapInDefaultCarStart@MissionStage@@QAEXXZ 00451bd0 f   missionstage.obj
 0001:00051620       ?Initialize@MissionStage@@QAEXXZ 00451ca0 f   missionstage.obj
 0001:00051640       ?DoTransition@MissionStage@@QAEXXZ 00451cc0 f   missionstage.obj
 0001:000516a0       ??_EBonusObjective@@UAEPAXI@Z 00451d20 f i nocopbonusobjective.obj
 0001:000516a0       ??_GBonusObjective@@UAEPAXI@Z 00451d20 f i nocopbonusobjective.obj
 0001:000516c0       ??0NoCopBonusObjective@@QAE@XZ 00451d40 f   nocopbonusobjective.obj
 0001:00051730       ??1NoCopBonusObjective@@UAE@XZ 00451db0 f   nocopbonusobjective.obj
 0001:00051780       ?Initialize@NoCopBonusObjective@@UAEXXZ 00451e00 f   nocopbonusobjective.obj
 0001:00051780       ?Initialize@NoDamageBonusObjective@@UAEXXZ 00451e00 f   nodamagebonusobjective.obj
 0001:000517b0       ?OnUpdate@NoCopBonusObjective@@MAEXI@Z 00451e30 f   nocopbonusobjective.obj
 0001:000517d0       ??_ENoCopBonusObjective@@WM@AEPAXI@Z 00451e50 f i nocopbonusobjective.obj
 0001:000517e0       ??_GNoCopBonusObjective@@UAEPAXI@Z 00451e60 f i nocopbonusobjective.obj
 0001:000517e0       ??_ENoCopBonusObjective@@UAEPAXI@Z 00451e60 f i nocopbonusobjective.obj
 0001:00051800       ??0NoDamageBonusObjective@@QAE@XZ 00451e80 f   nodamagebonusobjective.obj
 0001:00051870       ??1NoDamageBonusObjective@@UAE@XZ 00451ef0 f   nodamagebonusobjective.obj
 0001:000518c0       ?Finalize@NoCopBonusObjective@@UAEXXZ 00451f40 f   nocopbonusobjective.obj
 0001:000518c0       ?Finalize@NoDamageBonusObjective@@UAEXXZ 00451f40 f   nodamagebonusobjective.obj
 0001:000518f0       ?HandleEvent@NoDamageBonusObjective@@UAEXW4EventEnum@@PAX@Z 00451f70 f   nodamagebonusobjective.obj
 0001:000518f0       ?HandleEvent@NoCopBonusObjective@@UAEXW4EventEnum@@PAX@Z 00451f70 f   nocopbonusobjective.obj
 0001:00051910       ?OnReset@NoDamageBonusObjective@@MAEXXZ 00451f90 f   nodamagebonusobjective.obj
 0001:00051910       ?OnReset@NoCopBonusObjective@@MAEXXZ 00451f90 f   nocopbonusobjective.obj
 0001:00051920       ?OnUpdate@NoDamageBonusObjective@@MAEXI@Z 00451fa0 f   nodamagebonusobjective.obj
 0001:00051940       ??_ENoDamageBonusObjective@@WM@AEPAXI@Z 00451fc0 f i nodamagebonusobjective.obj
 0001:00051950       ??_GNoDamageBonusObjective@@UAEPAXI@Z 00451fd0 f i nodamagebonusobjective.obj
 0001:00051950       ??_ENoDamageBonusObjective@@UAEPAXI@Z 00451fd0 f i nodamagebonusobjective.obj
 0001:00051970       ??0RacePositionBonusObjective@@QAE@XZ 00451ff0 f   racepositionbonusobjective.obj
 0001:000519e0       ??1RacePositionBonusObjective@@UAE@XZ 00452060 f   racepositionbonusobjective.obj
 0001:00051a30       ?Initialize@RacePositionBonusObjective@@UAEXXZ 004520b0 f   racepositionbonusobjective.obj
 0001:00051a60       ?Finalize@RacePositionBonusObjective@@UAEXXZ 004520e0 f   racepositionbonusobjective.obj
 0001:00051a90       ?HandleEvent@RacePositionBonusObjective@@UAEXW4EventEnum@@PAX@Z 00452110 f   racepositionbonusobjective.obj
 0001:00051ac0       ?OnReset@RacePositionBonusObjective@@MAEXXZ 00452140 f   racepositionbonusobjective.obj
 0001:00051ad0       ??_ERacePositionBonusObjective@@WM@AEPAXI@Z 00452150 f i racepositionbonusobjective.obj
 0001:00051ae0       ??_ERacePositionBonusObjective@@UAEPAXI@Z 00452160 f i racepositionbonusobjective.obj
 0001:00051ae0       ??_GRacePositionBonusObjective@@UAEPAXI@Z 00452160 f i racepositionbonusobjective.obj
 0001:00051b00       ?PreReactToCollision@StatePropCollectible@@UAE?AW4Solving_Answer@sim@@PAVSimState@3@AAVCollision@3@@Z 00452180 f   statepropcollectible.obj
 0001:00051ba0       ?SetTransform@StatePropCollectible@@UAEXABVMatrix@RadicalMathLibrary@@@Z 00452220 f   statepropcollectible.obj
 0001:00051be0       ?SetPosition@StatePropCollectible@@UAEXABVVector@RadicalMathLibrary@@@Z 00452260 f   statepropcollectible.obj
 0001:00051c10       ?LoadSetup@StatePropCollectible@@UAEXPAVCStatePropData@@HABVMatrix@RadicalMathLibrary@@PAVCollisionAttributes@@_NPAVtEntityStore@@3PAVCollisionObject@sim@@PAVPhysicsObject@8@@Z 00452290 f   statepropcollectible.obj
 0001:00051c80       ?AddToDSG@StatePropCollectible@@QAEXXZ 00452300 f   statepropcollectible.obj
 0001:00051cc0       ?RemoveFromDSG@StatePropCollectible@@QAEXXZ 00452340 f   statepropcollectible.obj
 0001:00051d00       ?Update@StatePropCollectible@@UAEXM@Z 00452380 f   statepropcollectible.obj
 0001:00051d20       ?RecieveEvent@StatePropCollectible@@UAEXHPAVCStateProp@@@Z 004523a0 f   statepropcollectible.obj
 0001:00051d90       ?Explode@StatePropCollectible@@QAEXXZ 00452410 f   statepropcollectible.obj
 0001:00051db0       ?GetPosition@StatePropDSG@@UAEXPAVVector@RadicalMathLibrary@@@Z 00452430 f   StatePropDSG.obj
 0001:00051db0       ?GetPosition@StatePropCollectible@@UAEXPAVVector@RadicalMathLibrary@@@Z 00452430 f   statepropcollectible.obj
 0001:00051dd0       ?GetHeading@StatePropCollectible@@UAEXPAVVector@RadicalMathLibrary@@@Z 00452450 f   statepropcollectible.obj
 0001:00051df0       ?EnableHudIcon@StatePropCollectible@@QAEX_N@Z 00452470 f   statepropcollectible.obj
 0001:00051e80       ?CameraShake@StatePropCollectible@@IAEXXZ 00452500 f   statepropcollectible.obj
 0001:00051f30       ??0StatePropCollectible@@QAE@XZ 004525b0 f   statepropcollectible.obj
 0001:00051f90       ?GetPosition@StatePropCollectible@@WPE@AEXPAVVector@RadicalMathLibrary@@@Z 00452610 f i statepropcollectible.obj
 0001:00051fa0       ??1StatePropCollectible@@UAE@XZ 00452620 f   statepropcollectible.obj
 0001:00052020       ?AdvanceAnimation@StatePropCollectible@@UAEXM@Z 004526a0 f   statepropcollectible.obj
 0001:00052090       ??_EStatePropCollectible@@UAEPAXI@Z 00452710 f i statepropcollectible.obj
 0001:00052090       ??_GStatePropCollectible@@UAEPAXI@Z 00452710 f i statepropcollectible.obj
 0001:000520b0       ??0TimeRemainBonusObjective@@QAE@XZ 00452730 f   timeremainbonusobjective.obj
 0001:000520d0       ??1TimeRemainBonusObjective@@UAE@XZ 00452750 f   timeremainbonusobjective.obj
 0001:000520d0       ??1BonusObjective@@UAE@XZ  00452750 f   nocopbonusobjective.obj
 0001:000520e0       ?GetNumericData@TimeRemainBonusObjective@@UAEIXZ 00452760 f   timeremainbonusobjective.obj
 0001:000520f0       ?OnReset@TimeRemainBonusObjective@@MAEXXZ 00452770 f   timeremainbonusobjective.obj
 0001:00052100       ?OnUpdate@TimeRemainBonusObjective@@MAEXI@Z 00452780 f   timeremainbonusobjective.obj
 0001:00052140       ??_GTimeRemainBonusObjective@@UAEPAXI@Z 004527c0 f i timeremainbonusobjective.obj
 0001:00052140       ??_ETimeRemainBonusObjective@@UAEPAXI@Z 004527c0 f i timeremainbonusobjective.obj
 0001:00052160       ??0BuyCarObjective@@QAE@XZ 004527e0 f   buycarobjective.obj
 0001:00052180       ??1BuyCarObjective@@UAE@XZ 00452800 f   buycarobjective.obj
 0001:000521b0       ?OnUpdate@BuyCarObjective@@MAEXI@Z 00452830 f   buycarobjective.obj
 0001:00052210       ??_EBuyCarObjective@@UAEPAXI@Z 00452890 f i buycarobjective.obj
 0001:00052210       ??_GBuyCarObjective@@UAEPAXI@Z 00452890 f i buycarobjective.obj
 0001:00052230       ??0BuySkinObjective@@QAE@XZ 004528b0 f   buyskinobjective.obj
 0001:00052250       ??1BuySkinObjective@@UAE@XZ 004528d0 f   buyskinobjective.obj
 0001:00052280       ?SetVehicleName@BuyCarObjective@@QAEXPBD@Z 00452900 f   buycarobjective.obj
 0001:00052280       ?SetSkinName@BuySkinObjective@@QAEXPBD@Z 00452900 f   buyskinobjective.obj
 0001:00052300       ?OnUpdate@BuySkinObjective@@MAEXI@Z 00452980 f   buyskinobjective.obj
 0001:00052370       ??_GBuySkinObjective@@UAEPAXI@Z 004529f0 f i buyskinobjective.obj
 0001:00052370       ??_EBuySkinObjective@@UAEPAXI@Z 004529f0 f i buyskinobjective.obj
 0001:00052390       ??0CoinObjective@@QAE@XZ   00452a10 f   coinobjective.obj
 0001:000523b0       ??1CoinObjective@@UAE@XZ   00452a30 f   coinobjective.obj
 0001:000523c0       ?HandleEvent@CoinObjective@@UAEXW4EventEnum@@PAX@Z 00452a40 f   coinobjective.obj
 0001:00052450       ?OnInitialize@CoinObjective@@MAEXXZ 00452ad0 f   coinobjective.obj
 0001:00052470       ?Update@CoinObjective@@MAEXI@Z 00452af0 f   coinobjective.obj
 0001:00052470       ?Update@TimerObjective@@MAEXI@Z 00452af0 f   timerobjective.obj
 0001:00052470       ?CanFreeMemoryAligned@TrackingHeap@@UAE_NPAX@Z 00452af0 f   radcorexr:trackingheap.obj
 0001:00052470       ?Update@MissionObjective@@QAEXI@Z 00452af0 f   missionobjective.obj
 0001:00052480       ?OnUpdate@CoinObjective@@MAEXI@Z 00452b00 f   coinobjective.obj
 0001:000524b0       ?SetCoinFee@CoinObjective@@QAEXH@Z 00452b30 f   coinobjective.obj
 0001:000524c0       ?GetCoinAmount@CoinObjective@@QAEHXZ 00452b40 f   coinobjective.obj
 0001:000524d0       ??_ECoinObjective@@UAEPAXI@Z 00452b50 f i coinobjective.obj
 0001:000524d0       ??_GCoinObjective@@UAEPAXI@Z 00452b50 f i coinobjective.obj
 0001:000524f0       ??_GCollectionCondition@@UAEPAXI@Z 00452b70 f i collectdumpedobjective.obj
 0001:000524f0       ??_ECollectionCondition@@UAEPAXI@Z 00452b70 f i collectdumpedobjective.obj
 0001:00052510       ??1CollectionCondition@@UAE@XZ 00452b90 f i collectdumpedobjective.obj
 0001:00052520       ??0CollectDumpedObjective@@QAE@XZ 00452ba0 f   collectdumpedobjective.obj
 0001:00052630       ??1CollectDumpedObjective@@UAE@XZ 00452cb0 f   collectdumpedobjective.obj
 0001:00052650       ?BindCollectibleToWaypoint@CollectDumpedObjective@@QAEXHI@Z 00452cd0 f   collectdumpedobjective.obj
 0001:00052670       ?SetDumpVehicle@CollectDumpedObjective@@QAEXPAVVehicle@@@Z 00452cf0 f   collectdumpedobjective.obj
 0001:00052680       ?OnInitCollectibleObjective@CollectDumpedObjective@@MAEXXZ 00452d00 f   collectdumpedobjective.obj
 0001:00052980       ?OnCollection@CollectDumpedObjective@@MAE_NIAA_N@Z 00453000 f   collectdumpedobjective.obj
 0001:00052a50       ?OnUpdateCollectibleObjective@CollectDumpedObjective@@MAEXI@Z 004530d0 f   collectdumpedobjective.obj
 0001:00052dd0       ?FindFreeSlot@CollectDumpedObjective@@IAEHXZ 00453450 f   collectdumpedobjective.obj
 0001:00052e00       ??_GCollectDumpedObjective@@UAEPAXI@Z 00453480 f i collectdumpedobjective.obj
 0001:00052e00       ??_ECollectDumpedObjective@@UAEPAXI@Z 00453480 f i collectdumpedobjective.obj
 0001:00052e20       ?HandleEvent@CollectDumpedObjective@@UAEXW4EventEnum@@PAX@Z 004534a0 f   collectdumpedobjective.obj
 0001:00052ff0       ?OnFinalizeCollectibleObjective@CollectDumpedObjective@@MAEXXZ 00453670 f   collectdumpedobjective.obj
 0001:000530b0       ?MoveCollectible@CollectibleObjective@@QAEXIABVVector@RadicalMathLibrary@@@Z 00453730 f   collectibleobjective.obj
 0001:00053150       ?SetCollectEffectName@CollectibleObjective@@QAEXPAD@Z 004537d0 f   collectibleobjective.obj
 0001:00053170       ?HandleEvent@CollectibleObjective@@UAEXW4EventEnum@@PAX@Z 004537f0 f   collectibleobjective.obj
 0001:000531b0       ?OnUpdate@CollectibleObjective@@MAEXI@Z 00453830 f   collectibleobjective.obj
 0001:00053230       ?GetCollectiblePathInfo@CollectibleObjective@@IAEXIAAUPathElement@RoadManager@@AAM@Z 004538b0 f   collectibleobjective.obj
 0001:00053270       ?Activate@CollectibleObjective@@IAEXI_N0W4eIconType@HudMapIcon@@0@Z 004538f0 f   collectibleobjective.obj
 0001:00053330       ?SetFocus@CollectibleObjective@@IAEXI@Z 004539b0 f   collectibleobjective.obj
 0001:000533c0       ?ResetCollectibles@CollectibleObjective@@IAEXXZ 00453a40 f   collectibleobjective.obj
 0001:00053420       ?DumpCollectible@CollectibleObjective@@IAEXHPAVVehicle@@0_N1@Z 00453aa0 f   collectibleobjective.obj
 0001:000538a0       ?GetAnyCollectedID@CollectibleObjective@@IBEHXZ 00453f20 f   collectibleobjective.obj
 0001:000538d0       ?Uncollect@CollectibleObjective@@IAEXH@Z 00453f50 f   collectibleobjective.obj
 0001:00053920       ?AddCollectibleLocatorName@CollectibleObjective@@QAEXPAD0IVtUidUnaligned@@M@Z 00453fa0 f   collectibleobjective.obj
 0001:000539d0       ?OnFinalize@CollectibleObjective@@MAEXXZ 00454050 f   collectibleobjective.obj
 0001:00053a60       ?Collect@CollectibleObjective@@IAEXI_N@Z 004540e0 f   collectibleobjective.obj
 0001:00053c00       ??1CollectibleLocatorData@CollectibleObjective@@QAE@XZ 00454280 f i collectibleobjective.obj
 0001:00053c20       ??1CollectibleObjective@@UAE@XZ 004542a0 f   collectibleobjective.obj
 0001:00053ca0       ?CheckCollectibleLocators@CollectibleObjective@@MAE_NPAVLocator@@@Z 00454320 f   collectibleobjective.obj
 0001:00053d10       ??0CollectibleLocatorData@CollectibleObjective@@QAE@XZ 00454390 f i collectibleobjective.obj
 0001:00053dd0       ??0CollectibleObjective@@QAE@XZ 00454450 f   collectibleobjective.obj
 0001:00053e60       ??_GCollectibleObjective@@UAEPAXI@Z 004544e0 f i collectibleobjective.obj
 0001:00053e60       ??_ECollectibleObjective@@UAEPAXI@Z 004544e0 f i collectibleobjective.obj
 0001:00053e80       ?OnInitialize@CollectibleObjective@@MAEXXZ 00454500 f   collectibleobjective.obj
 0001:00054170       ?HandleEvent@DeliveryObjective@@UAEXW4EventEnum@@PAX@Z 004547f0 f   deliveryobjective.obj
 0001:000542d0       ?OnInitCollectibleObjective@DeliveryObjective@@MAEXXZ 00454950 f   deliveryobjective.obj
 0001:00054330       ?OnCollection@DeliveryObjective@@MAE_NIAA_N@Z 004549b0 f   deliveryobjective.obj
 0001:000543a0       ?OnUpdateCollectibleObjective@DeliveryObjective@@MAEXI@Z 00454a20 f   deliveryobjective.obj
 0001:000543e0       ?SetButtonHandlersEnabled@DeliveryObjective@@IAEX_N@Z 00454a60 f   deliveryobjective.obj
 0001:00054460       ?SetStatePropHUDIconEnable@DeliveryObjective@@IAEX_N@Z 00454ae0 f   deliveryobjective.obj
 0001:000544c0       ?ReleaseAllStateProps@DeliveryObjective@@IAEXXZ 00454b40 f   deliveryobjective.obj
 0001:00054510       ?SetStatePropState@DeliveryObjective@@IAEXH@Z 00454b90 f   deliveryobjective.obj
 0001:00054550       ??0DeliveryObjective@@QAE@XZ 00454bd0 f   deliveryobjective.obj
 0001:00054600       ??1DeliveryObjective@@UAE@XZ 00454c80 f   deliveryobjective.obj
 0001:00054680       ?OnFinalizeCollectibleObjective@DeliveryObjective@@MAEXXZ 00454d00 f   deliveryobjective.obj
 0001:000546d0       ??_EDeliveryObjective@@UAEPAXI@Z 00454d50 f i deliveryobjective.obj
 0001:000546d0       ??_GDeliveryObjective@@UAEPAXI@Z 00454d50 f i deliveryobjective.obj
 0001:000546f0       ?FindStateProps@DeliveryObjective@@IAEXXZ 00454d70 f   deliveryobjective.obj
 0001:00054780       ?OnInitCollectibles@DeliveryObjective@@MAEXXZ 00454e00 f   deliveryobjective.obj
 0001:000547e0       ??0DestroyBossObjective@@QAE@XZ 00454e60 f   destroybossobjective.obj
 0001:00054800       ??1DestroyBossObjective@@UAE@XZ 00454e80 f   destroybossobjective.obj
 0001:00054810       ?SetTarget@DestroyBossObjective@@QAEXPAVActor@@@Z 00454e90 f   destroybossobjective.obj
 0001:00054830       ?OnInitialize@DestroyBossObjective@@MAEXXZ 00454eb0 f   destroybossobjective.obj
 0001:00054860       ?OnFinalize@DestroyBossObjective@@MAEXXZ 00454ee0 f   destroybossobjective.obj
 0001:00054890       ?HandleEvent@DestroyBossObjective@@UAEXW4EventEnum@@PAX@Z 00454f10 f   destroybossobjective.obj
 0001:000548b0       ??_GDestroyBossObjective@@UAEPAXI@Z 00454f30 f i destroybossobjective.obj
 0001:000548b0       ??_EDestroyBossObjective@@UAEPAXI@Z 00454f30 f i destroybossobjective.obj
 0001:000548d0       ??0DestroyObjective@@QAE@XZ 00454f50 f   destroyobjective.obj
 0001:000548f0       ??1DestroyObjective@@UAE@XZ 00454f70 f   destroyobjective.obj
 0001:00054900       ?OnInitialize@DestroyObjective@@MAEXXZ 00454f80 f   destroyobjective.obj
 0001:00054a50       ?OnFinalize@DestroyObjective@@MAEXXZ 004550d0 f   destroyobjective.obj
 0001:00054ab0       ?HandleEvent@DestroyObjective@@UAEXW4EventEnum@@PAX@Z 00455130 f   destroyobjective.obj
 0001:00054b20       ?SetTargetVehicle@DestroyObjective@@QAEXPAVVehicle@@@Z 004551a0 f   destroyobjective.obj
 0001:00054b40       ??_EDestroyObjective@@UAEPAXI@Z 004551c0 f i destroyobjective.obj
 0001:00054b40       ??_GDestroyObjective@@UAEPAXI@Z 004551c0 f i destroyobjective.obj
 0001:00054b60       ??1DialogueObjective@@UAE@XZ 004551e0 f   dialogueobjective.obj
 0001:00054c20       ?HandleEvent@DialogueObjective@@UAEXW4EventEnum@@PAX@Z 004552a0 f   dialogueobjective.obj
 0001:00054c30       ?CharactersReset@DialogueObjective@@QAE_NXZ 004552b0 f   dialogueobjective.obj
 0001:00054c40       ?SetChar1Name@DialogueObjective@@QAEXPBD@Z 004552c0 f   dialogueobjective.obj
 0001:00054ca0       ?SetChar2Name@DialogueObjective@@QAEXPBD@Z 00455320 f   dialogueobjective.obj
 0001:00054d00       ?ResetCharacterPositions@DialogueObjective@@AAEXXZ 00455380 f   dialogueobjective.obj
 0001:00054e50       ??0DialogueObjective@@QAE@XZ 004554d0 f   dialogueobjective.obj
 0001:00054f20       ??_EDialogueObjective@@UAEPAXI@Z 004555a0 f i dialogueobjective.obj
 0001:00054f20       ??_GDialogueObjective@@UAEPAXI@Z 004555a0 f i dialogueobjective.obj
 0001:00054f40       ?SetPositions@DialogueObjective@@QAEXPAVCarStartLocator@@00_N@Z 004555c0 f   dialogueobjective.obj
 0001:00054fd0       ?SetDialogueName@DialogueObjective@@QAEXPBD@Z 00455650 f   dialogueobjective.obj
 0001:00055010       ?OnInitialize@DialogueObjective@@MAEXXZ 00455690 f   dialogueobjective.obj
 0001:00055490       ?OnFinalize@DialogueObjective@@MAEXXZ 00455b10 f   dialogueobjective.obj
 0001:00055510       ??1FMVObjective@@UAE@XZ    00455b90 f   fmvobjective.obj
 0001:00055530       ?OnPresentationEventEnd@FMVObjective@@MAEXPAVPresentationEvent@@@Z 00455bb0 f   fmvobjective.obj
 0001:00055560       ?OnInitialize@FMVObjective@@MAEXXZ 00455be0 f   fmvobjective.obj
 0001:000555c0       ?SetFileName@FMVObjective@@QAEXPBD@Z 00455c40 f   fmvobjective.obj
 0001:000555e0       ??0FMVObjective@@QAE@XZ    00455c60 f   fmvobjective.obj
 0001:00055620       ??_EFMVObjective@@UAEPAXI@Z 00455ca0 f i fmvobjective.obj
 0001:00055620       ??_GFMVObjective@@UAEPAXI@Z 00455ca0 f i fmvobjective.obj
 0001:00055640       ??0FollowObjective@@QAE@XZ 00455cc0 f   followobjective.obj
 0001:00055660       ??1FollowObjective@@UAE@XZ 00455ce0 f   followobjective.obj
 0001:00055670       ?OnInitialize@FollowObjective@@MAEXXZ 00455cf0 f   followobjective.obj
 0001:000557b0       ?OnFinalize@FollowObjective@@MAEXXZ 00455e30 f   followobjective.obj
 0001:000557f0       ?OnUpdate@FollowObjective@@MAEXI@Z 00455e70 f   followobjective.obj
 0001:000557f0       ?OnUpdate@DestroyObjective@@MAEXI@Z 00455e70 f   destroyobjective.obj
 0001:00055880       ?HandleEvent@FollowObjective@@UAEXW4EventEnum@@PAX@Z 00455f00 f   followobjective.obj
 0001:000558a0       ??_GFollowObjective@@UAEPAXI@Z 00455f20 f i followobjective.obj
 0001:000558a0       ??_EFollowObjective@@UAEPAXI@Z 00455f20 f i followobjective.obj
 0001:000558c0       ??1GetInObjective@@UAE@XZ  00455f40 f   getinobjective.obj
 0001:000558e0       ?OnInitialize@GetInObjective@@MAEXXZ 00455f60 f   getinobjective.obj
 0001:000559b0       ?OnFinalize@GetInObjective@@MAEXXZ 00456030 f   getinobjective.obj
 0001:000559d0       ?OnUpdate@GetInObjective@@MAEXI@Z 00456050 f   getinobjective.obj
 0001:00055aa0       ?GetPosition@GetInObjective@@UAEXPAVVector@RadicalMathLibrary@@@Z 00456120 f   getinobjective.obj
 0001:00055ac0       ?GetHeading@GetInObjective@@UAEXPAVVector@RadicalMathLibrary@@@Z 00456140 f   getinobjective.obj
 0001:00055ae0       ??0GetInObjective@@QAE@XZ  00456160 f   getinobjective.obj
 0001:00055b20       ??_GGetInObjective@@UAEPAXI@Z 004561a0 f i getinobjective.obj
 0001:00055b20       ??_EGetInObjective@@UAEPAXI@Z 004561a0 f i getinobjective.obj
 0001:00055b40       ??0GoOutsideObjective@@QAE@XZ 004561c0 f   gooutsideobjective.obj
 0001:00055b60       ??1GoOutsideObjective@@UAE@XZ 004561e0 f   gooutsideobjective.obj
 0001:00055b70       ??_GGoOutsideObjective@@UAEPAXI@Z 004561f0 f i gooutsideobjective.obj
 0001:00055b70       ??_EGoOutsideObjective@@UAEPAXI@Z 004561f0 f i gooutsideobjective.obj
 0001:00055b90       ?OnInitialize@GoOutsideObjective@@MAEXXZ 00456210 f   gooutsideobjective.obj
 0001:00055e30       ?GetInterior@InteriorManager@@QAE?AVtUidUnaligned@@XZ 004564b0 f i gotoobjective.obj
 0001:00055e50       ?OnFinalize@GoToObjective@@MAEXXZ 004564d0 f   gotoobjective.obj
 0001:00055f80       ?OnUpdate@GoToObjective@@MAEXI@Z 00456600 f   gotoobjective.obj
 0001:00056030       ?HandleEvent@GoToObjective@@UAEXW4EventEnum@@PAX@Z 004566b0 f   gotoobjective.obj
 0001:00056180       ?SetDestinationNames@GoToObjective@@QAEXPAD0M@Z 00456800 f   gotoobjective.obj
 0001:000561c0       ?SetCollectEffectName@GoToObjective@@QAEXPAD@Z 00456840 f   gotoobjective.obj
 0001:000561e0       ??1GoToObjective@@UAE@XZ   00456860 f   gotoobjective.obj
 0001:00056270       ??0GoToObjective@@QAE@XZ   004568f0 f   gotoobjective.obj
 0001:00056370       ??_GGoToObjective@@UAEPAXI@Z 004569f0 f i gotoobjective.obj
 0001:00056370       ??_EGoToObjective@@UAEPAXI@Z 004569f0 f i gotoobjective.obj
 0001:00056390       ?OnInitialize@GoToObjective@@MAEXXZ 00456a10 f   gotoobjective.obj
 0001:00056700       ?OnFinalize@InteriorObjective@@MAEXXZ 00456d80 f   interiorobjective.obj
 0001:00056750       ?OnUpdate@InteriorObjective@@MAEXI@Z 00456dd0 f   interiorobjective.obj
 0001:00056780       ?GetPosition@InteriorObjective@@UAEXPAVVector@RadicalMathLibrary@@@Z 00456e00 f   interiorobjective.obj
 0001:000567a0       ?GetHeading@InteriorObjective@@UAEXPAVVector@RadicalMathLibrary@@@Z 00456e20 f   interiorobjective.obj
 0001:000567c0       ?SetDestination@InteriorObjective@@QAEXPBD@Z 00456e40 f   interiorobjective.obj
 0001:000567e0       ?SetIcon@InteriorObjective@@QAEXPBD@Z 00456e60 f   interiorobjective.obj
 0001:00056820       ?HandleEvent@InteriorObjective@@UAEXW4EventEnum@@PAX@Z 00456ea0 f   interiorobjective.obj
 0001:00056860       ??1InteriorObjective@@UAE@XZ 00456ee0 f   interiorobjective.obj
 0001:000568b0       ??0InteriorObjective@@QAE@XZ 00456f30 f   interiorobjective.obj
 0001:00056990       ??_EInteriorObjective@@UAEPAXI@Z 00457010 f i interiorobjective.obj
 0001:00056990       ??_GInteriorObjective@@UAEPAXI@Z 00457010 f i interiorobjective.obj
 0001:000569b0       ?OnInitialize@InteriorObjective@@MAEXXZ 00457030 f   interiorobjective.obj
 0001:00056b50       ??1LoadVehicleObjective@@UAE@XZ 004571d0 f   loadvehicleobjective.obj
 0001:00056b70       ?OnInitialize@LoadVehicleObjective@@MAEXXZ 004571f0 f   loadvehicleobjective.obj
 0001:00056c10       ??0LoadVehicleObjective@@QAE@XZ 00457290 f   loadvehicleobjective.obj
 0001:00056c30       ??_ELoadVehicleObjective@@UAEPAXI@Z 004572b0 f i loadvehicleobjective.obj
 0001:00056c30       ??_GLoadVehicleObjective@@UAEPAXI@Z 004572b0 f i loadvehicleobjective.obj
 0001:00056c50       ?OnProcessRequestsComplete@LoadDisposableCarAsyncCallback@LoadVehicleObjective@@UAEXPAX@Z 004572d0 f   loadvehicleobjective.obj
 0001:00056d10       ??0LoseObjective@@QAE@XZ   00457390 f   loseobjective.obj
 0001:00056d40       ??1LoseObjective@@UAE@XZ   004573c0 f   loseobjective.obj
 0001:00056d50       ?OnInitialize@LoseObjective@@MAEXXZ 004573d0 f   loseobjective.obj
 0001:00056e60       ?OnFinalize@LoseObjective@@MAEXXZ 004574e0 f   loseobjective.obj
 0001:00056ea0       ?OnUpdate@LoseObjective@@MAEXI@Z 00457520 f   loseobjective.obj
 0001:00056ff0       ??_GLoseObjective@@UAEPAXI@Z 00457670 f i loseobjective.obj
 0001:00056ff0       ??_ELoseObjective@@UAEPAXI@Z 00457670 f i loseobjective.obj
 0001:00057010       ??0NPCStruct@MissionObjective@@QAE@XZ 00457690 f i missionobjective.obj
 0001:00057040       ??1NPCStruct@MissionObjective@@QAE@XZ 004576c0 f i missionobjective.obj
 0001:00057060       ??1MissionObjective@@UAE@XZ 004576e0 f   missionobjective.obj
 0001:000570c0       ?AddNPCWaypoint@MissionObjective@@QAE_NPBD0@Z 00457740 f   missionobjective.obj
 0001:00057160       ?Finalize@MissionObjective@@QAEXXZ 004577e0 f   missionobjective.obj
 0001:000571e0       ?AddNPC@MissionObjective@@QAEXPBD0_N@Z 00457860 f   missionobjective.obj
 0001:000572a0       ?RemoveNPC@MissionObjective@@QAEXPBD_N@Z 00457920 f   missionobjective.obj
 0001:000572e0       ?RegisterPosition@MissionObjective@@IAEXABVVector@RadicalMathLibrary@@AAH_NW4eIconType@HudMapIcon@@PAUIHudMapIconLocator@@@Z 00457960 f   missionobjective.obj
 0001:00057330       ?UnregisterLocator@MissionObjective@@IAEXAAH@Z 004579b0 f   missionobjective.obj
 0001:00057360       ?UnregisterPosition@MissionObjective@@IAEXAAH@Z 004579e0 f   missionobjective.obj
 0001:00057370       ?UpdateAnimPosition@MissionObjective@@IAEXPAVAnimEntityDSG@@AAVVector@RadicalMathLibrary@@@Z 004579f0 f   missionobjective.obj
 0001:000573f0       ?IsPattyAndSelmaDialog@MissionObjective@@QBE_NXZ 00457a70 f   missionobjective.obj
 0001:00057460       ?IsRaceDialog@MissionObjective@@QBE_NXZ 00457ae0 f   missionobjective.obj
 0001:000574c0       ??$SetState@VInCar@CharacterAi@@@StateManager@CharacterAi@@QAEXXZ 00457b40 f i missionobjective.obj
 0001:00057550       ?safe_cast@?$SafeCast@VZoneEventLocator@@@radLoadInventory@@UAEPAUIRefCount@@PAU3@@Z 00457bd0 f i missionobjective.obj
 0001:00057570       ??0MissionObjective@@QAE@XZ 00457bf0 f   missionobjective.obj
 0001:000575f0       ??_GMissionObjective@@UAEPAXI@Z 00457c70 f i missionobjective.obj
 0001:000575f0       ??_EMissionObjective@@UAEPAXI@Z 00457c70 f i missionobjective.obj
 0001:00057610       ?RegisterLocator@MissionObjective@@IAEXPAVLocator@@AAH_NW4eIconType@HudMapIcon@@@Z 00457c90 f   missionobjective.obj
 0001:00057660       ?UnlightPath@MissionObjective@@IAEXAAV?$SwapArray@UPathElement@RoadManager@@@@@Z 00457ce0 f   missionobjective.obj
 0001:00057740       ?UnlightCurrentPath@MissionObjective@@IAEXAAV?$SwapArray@UPathElement@RoadManager@@@@@Z 00457dc0 f   missionobjective.obj
 0001:00057810       ?LightPathRightWay@MissionObjective@@IAEXAAV?$SwapArray@UPathElement@RoadManager@@@@HH@Z 00457e90 f   missionobjective.obj
 0001:00057870       ?LightPathWrongWay@MissionObjective@@IAEXAAV?$SwapArray@UPathElement@RoadManager@@@@HH@Z 00457ef0 f   missionobjective.obj
 0001:000578d0       ?FindIntersectionInPath@MissionObjective@@IAEHAAV?$SwapArray@UPathElement@RoadManager@@@@PAVIntersection@@@Z 00457f50 f   missionobjective.obj
 0001:00057900       ?FindRoadInPath@MissionObjective@@IAEHAAV?$SwapArray@UPathElement@RoadManager@@@@PAVRoad@@@Z 00457f80 f   missionobjective.obj
 0001:00057960       ?UpdateGroundHeights@MissionObjective@@IAEXAAV?$SwapArray@UPathElement@RoadManager@@@@@Z 00457fe0 f   missionobjective.obj
 0001:000579c0       ?UpdateLongRoadArrows@MissionObjective@@IAEXAAUPathStruct@1@@Z 00458040 f   missionobjective.obj
 0001:00057f10       ?GetHeadingAlongPath@MissionObjective@@IAEXAAV?$SwapArray@UPathElement@RoadManager@@@@HPAVRoadSegment@@AAVVector@RadicalMathLibrary@@@Z 00458590 f   missionobjective.obj
 0001:00058100       ??$find@VZoneEventLocator@@@p3d@@YAPAVZoneEventLocator@@PAVtEntityStore@@ABVtName@@@Z 00458780 f i missionobjective.obj
 0001:000581d0       ?UpdateLightPath@MissionObjective@@IAEXAAUPathStruct@1@@Z 00458850 f   missionobjective.obj
 0001:00058310       ??$find@VZoneEventLocator@@@p3d@@YAPAVZoneEventLocator@@VtUidUnaligned@@@Z 00458990 f i missionobjective.obj
 0001:00058390       ?LightPath@MissionObjective@@IAEXAAVVector@RadicalMathLibrary@@AAUPathStruct@1@@Z 00458a10 f   missionobjective.obj
 0001:00058b80       ?Initialize@MissionObjective@@QAEXXZ 00459200 f   missionobjective.obj
 0001:00059060       ??0PickupItemObjective@@QAE@XZ 004596e0 f   pickupitemobjective.obj
 0001:000590c0       ??1PickupItemObjective@@UAE@XZ 00459740 f   pickupitemobjective.obj
 0001:00059130       ?OnFinalize@VehicleCarryingStateProp@@MAEXXZ 004597b0 f   vehiclecarryingstateprop.obj
 0001:00059130       ?OnFinalize@PickupItemObjective@@MAEXXZ 004597b0 f   pickupitemobjective.obj
 0001:00059140       ?HandleEvent@PickupItemObjective@@MAEXW4EventEnum@@PAX@Z 004597c0 f   pickupitemobjective.obj
 0001:00059180       ?MoveObjectToStartPosition@PickupItemObjective@@IAEXXZ 00459800 f   pickupitemobjective.obj
 0001:00059230       ??_EPickupItemObjective@@UAEPAXI@Z 004598b0 f i pickupitemobjective.obj
 0001:00059230       ??_GPickupItemObjective@@UAEPAXI@Z 004598b0 f i pickupitemobjective.obj
 0001:00059250       ?OnInitialize@PickupItemObjective@@MAEXXZ 004598d0 f   pickupitemobjective.obj
 0001:000592b0       ?OnUpdate@PickupItemObjective@@MAEXI@Z 00459930 f   pickupitemobjective.obj
 0001:000592e0       ?safe_cast@?$SafeCast@VStatePropCollectible@@@radLoadInventory@@UAEPAUIRefCount@@PAU3@@Z 00459960 f i pickupitemobjective.obj
 0001:00059300       ??$find@VStatePropCollectible@@@p3d@@YAPAVStatePropCollectible@@PAVtEntityStore@@ABVtName@@@Z 00459980 f i pickupitemobjective.obj
 0001:000593d0       ??$find@VStatePropCollectible@@@p3d@@YAPAVStatePropCollectible@@VtUidUnaligned@@@Z 00459a50 f i pickupitemobjective.obj
 0001:00059450       ?SetTarget@PickupItemObjective@@QAEXPBD@Z 00459ad0 f   pickupitemobjective.obj
 0001:000594a0       ??0RaceObjective@@QAE@XZ   00459b20 f   raceobjective.obj
 0001:00059560       ??1RaceObjective@@UAE@XZ   00459be0 f   raceobjective.obj
 0001:00059570       ?OnInitialize@RaceObjective@@MAEXXZ 00459bf0 f   raceobjective.obj
 0001:000596e0       ?OnInitCollectibles@RaceObjective@@MAEXXZ 00459d60 f   raceobjective.obj
 0001:000597a0       ?OnFinalizeCollectibleObjective@RaceObjective@@MAEXXZ 00459e20 f   raceobjective.obj
 0001:00059880       ?OnCollection@RaceObjective@@MAE_NIAA_N@Z 00459f00 f   raceobjective.obj
 0001:000599d0       ?QueryIsGambleRace@RaceObjective@@QAE_NXZ 0045a050 f   raceobjective.obj
 0001:000599e0       ?SetGambleRace@RaceObjective@@QAEX_N@Z 0045a060 f   raceobjective.obj
 0001:000599f0       ?SetParTime@RaceObjective@@QAEXH@Z 0045a070 f   raceobjective.obj
 0001:00059a10       ?GetParTime@RaceObjective@@QAEHXZ 0045a090 f   raceobjective.obj
 0001:00059a20       ??_ERaceObjective@@UAEPAXI@Z 0045a0a0 f i raceobjective.obj
 0001:00059a20       ??_GRaceObjective@@UAEPAXI@Z 0045a0a0 f i raceobjective.obj
 0001:00059a40       ?CalculatePosition@RaceObjective@@AAEXXZ 0045a0c0 f   raceobjective.obj
 0001:00059fc0       ?OnUpdateCollectibleObjective@RaceObjective@@MAEXI@Z 0045a640 f   raceobjective.obj
 0001:0005a110       ?OnInitCollectibleObjective@RaceObjective@@MAEXXZ 0045a790 f   raceobjective.obj
 0001:0005a450       ?SetTalkToTarget@TalkToObjective@@QAEXPBDW4IconType@1@MM@Z 0045aad0 f   talktoobjective.obj
 0001:0005a4d0       ?GetPosition@TalkToObjective@@UAEXPAVVector@RadicalMathLibrary@@@Z 0045ab50 f   talktoobjective.obj
 0001:0005a520       ?GetHeading@TalkToObjective@@UAEXPAVVector@RadicalMathLibrary@@@Z 0045aba0 f   talktoobjective.obj
 0001:0005a530       ?OnInitialize@TalkToObjective@@MAEXXZ 0045abb0 f   talktoobjective.obj
 0001:0005a830       ?OnFinalize@TalkToObjective@@MAEXXZ 0045aeb0 f   talktoobjective.obj
 0001:0005a930       ?HandleEvent@TalkToObjective@@UAEXW4EventEnum@@PAX@Z 0045afb0 f   talktoobjective.obj
 0001:0005a990       ?OnUpdate@TalkToObjective@@MAEXI@Z 0045b010 f   talktoobjective.obj
 0001:0005aad0       ??1TalkToObjective@@UAE@XZ 0045b150 f   talktoobjective.obj
 0001:0005ab20       ??0TalkToObjective@@QAE@XZ 0045b1a0 f   talktoobjective.obj
 0001:0005ac30       ??_ETalkToObjective@@UAEPAXI@Z 0045b2b0 f i talktoobjective.obj
 0001:0005ac30       ??_GTalkToObjective@@UAEPAXI@Z 0045b2b0 f i talktoobjective.obj
 0001:0005ac50       ??0TimerObjective@@QAE@XZ  0045b2d0 f   timerobjective.obj
 0001:0005ac70       ??1TimerObjective@@UAE@XZ  0045b2f0 f   timerobjective.obj
 0001:0005ac80       ?SetTimer@TimerObjective@@QAEXI@Z 0045b300 f   timerobjective.obj
 0001:0005ac90       ?OnUpdate@TimerObjective@@MAEXI@Z 0045b310 f   timerobjective.obj
 0001:0005acc0       ??_ETimerObjective@@UAEPAXI@Z 0045b340 f i timerobjective.obj
 0001:0005acc0       ??_GTimerObjective@@UAEPAXI@Z 0045b340 f i timerobjective.obj
 0001:0005ace0       ??0DamageCondition@@QAE@XZ 0045b360 f   damagecondition.obj
 0001:0005ad10       ??1DamageCondition@@UAE@XZ 0045b390 f   damagecondition.obj
 0001:0005ad20       ?OnInitialize@DamageCondition@@MAEXXZ 0045b3a0 f   damagecondition.obj
 0001:0005adb0       ?HandleEvent@DamageCondition@@UAEXW4EventEnum@@PAX@Z 0045b430 f   damagecondition.obj
 0001:0005af40       ??_GDamageCondition@@UAEPAXI@Z 0045b5c0 f i damagecondition.obj
 0001:0005af40       ??_EDamageCondition@@UAEPAXI@Z 0045b5c0 f i damagecondition.obj
 0001:0005af60       ?BustingPlayer@HitnRunManager@@QAE_NXZ 0045b5e0 f i followcondition.obj
 0001:0005af90       ??0FollowCondition@@QAE@XZ 0045b610 f   followcondition.obj
 0001:0005afc0       ??1FollowCondition@@UAE@XZ 0045b640 f   followcondition.obj
 0001:0005afd0       ?OnInitialize@FollowCondition@@MAEXXZ 0045b650 f   followcondition.obj
 0001:0005b000       ?CalculateDistanceToTarget@FollowCondition@@AAEMXZ 0045b680 f   followcondition.obj
 0001:0005b060       ??_EFollowCondition@@UAEPAXI@Z 0045b6e0 f i followcondition.obj
 0001:0005b060       ??_GFollowCondition@@UAEPAXI@Z 0045b6e0 f i followcondition.obj
 0001:0005b080       ?Update@FollowCondition@@UAEXI@Z 0045b700 f   followcondition.obj
 0001:0005b120       ??0GetOutOfCarCondition@@QAE@XZ 0045b7a0 f   getoutofcarcondition.obj
 0001:0005b150       ??1GetOutOfCarCondition@@UAE@XZ 0045b7d0 f   getoutofcarcondition.obj
 0001:0005b160       ?Update@GetOutOfCarCondition@@UAEXI@Z 0045b7e0 f   getoutofcarcondition.obj
 0001:0005b1b0       ?HandleEvent@GetOutOfCarCondition@@UAEXW4EventEnum@@PAX@Z 0045b830 f   getoutofcarcondition.obj
 0001:0005b320       ?IsClose@GetOutOfCarCondition@@UAE_NXZ 0045b9a0 f   getoutofcarcondition.obj
 0001:0005b340       ?OnInitialize@GetOutOfCarCondition@@MAEXXZ 0045b9c0 f   getoutofcarcondition.obj
 0001:0005b370       ?OnFinalize@GetOutOfCarCondition@@MAEXXZ 0045b9f0 f   getoutofcarcondition.obj
 0001:0005b3c0       ??_EGetOutOfCarCondition@@UAEPAXI@Z 0045ba40 f i getoutofcarcondition.obj
 0001:0005b3c0       ??_GGetOutOfCarCondition@@UAEPAXI@Z 0045ba40 f i getoutofcarcondition.obj
 0001:0005b3e0       ??0KeepBarrelCondition@@QAE@XZ 0045ba60 f   keepbarrelcondition.obj
 0001:0005b400       ??1KeepBarrelCondition@@UAE@XZ 0045ba80 f   keepbarrelcondition.obj
 0001:0005b410       ?HandleEvent@KeepBarrelCondition@@UAEXW4EventEnum@@PAX@Z 0045ba90 f   keepbarrelcondition.obj
 0001:0005b460       ?OnInitialize@KeepBarrelCondition@@MAEXXZ 0045bae0 f   keepbarrelcondition.obj
 0001:0005b480       ?OnFinalize@KeepBarrelCondition@@MAEXXZ 0045bb00 f   keepbarrelcondition.obj
 0001:0005b4a0       ??_GKeepBarrelCondition@@UAEPAXI@Z 0045bb20 f i keepbarrelcondition.obj
 0001:0005b4a0       ??_EKeepBarrelCondition@@UAEPAXI@Z 0045bb20 f i keepbarrelcondition.obj
 0001:0005b4c0       ??0LeaveInteriorCondition@@QAE@XZ 0045bb40 f   leaveinteriorcondition.obj
 0001:0005b4e0       ??1LeaveInteriorCondition@@UAE@XZ 0045bb60 f   leaveinteriorcondition.obj
 0001:0005b4f0       ?HandleEvent@LeaveInteriorCondition@@UAEXW4EventEnum@@PAX@Z 0045bb70 f   leaveinteriorcondition.obj
 0001:0005b510       ?OnInitialize@LeaveInteriorCondition@@MAEXXZ 0045bb90 f   leaveinteriorcondition.obj
 0001:0005b520       ?OnFinalize@LeaveInteriorCondition@@MAEXXZ 0045bba0 f   leaveinteriorcondition.obj
 0001:0005b530       ??_GLeaveInteriorCondition@@UAEPAXI@Z 0045bbb0 f i leaveinteriorcondition.obj
 0001:0005b530       ??_ELeaveInteriorCondition@@UAEPAXI@Z 0045bbb0 f i leaveinteriorcondition.obj
 0001:0005b550       ??0MissionCondition@@QAE@XZ 0045bbd0 f   missioncondition.obj
 0001:0005b570       ??1MissionCondition@@UAE@XZ 0045bbf0 f   missioncondition.obj
 0001:0005b580       ?Initialize@MissionCondition@@QAEXXZ 0045bc00 f   missioncondition.obj
 0001:0005b5a0       ?Finalize@MissionCondition@@QAEXXZ 0045bc20 f   missioncondition.obj
 0001:0005b5b0       ??_GMissionCondition@@UAEPAXI@Z 0045bc30 f i missioncondition.obj
 0001:0005b5b0       ??_EMissionCondition@@UAEPAXI@Z 0045bc30 f i missioncondition.obj
 0001:0005b5d0       ??0NotAbductedCondition@@QAE@XZ 0045bc50 f   notabductedcondition.obj
 0001:0005b5f0       ??1NotAbductedCondition@@UAE@XZ 0045bc70 f   notabductedcondition.obj
 0001:0005b600       ?HandleEvent@NotAbductedCondition@@MAEXW4EventEnum@@PAX@Z 0045bc80 f   notabductedcondition.obj
 0001:0005b640       ?OnInitialize@NotAbductedCondition@@MAEXXZ 0045bcc0 f   notabductedcondition.obj
 0001:0005b650       ??_ENotAbductedCondition@@UAEPAXI@Z 0045bcd0 f i notabductedcondition.obj
 0001:0005b650       ??_GNotAbductedCondition@@UAEPAXI@Z 0045bcd0 f i notabductedcondition.obj
 0001:0005b670       ??0OutOfBoundsCondition@@QAE@XZ 0045bcf0 f   outofboundscondition.obj
 0001:0005b690       ??1OutOfBoundsCondition@@UAE@XZ 0045bd10 f   outofboundscondition.obj
 0001:0005b6a0       ?OnInitialize@OutOfBoundsCondition@@MAEXXZ 0045bd20 f   outofboundscondition.obj
 0001:0005b6b0       ?OnFinalize@OutOfBoundsCondition@@MAEXXZ 0045bd30 f   outofboundscondition.obj
 0001:0005b6c0       ?HandleEvent@OutOfBoundsCondition@@UAEXW4EventEnum@@PAX@Z 0045bd40 f   outofboundscondition.obj
 0001:0005b6f0       ??_EOutOfBoundsCondition@@UAEPAXI@Z 0045bd70 f i outofboundscondition.obj
 0001:0005b6f0       ??_GOutOfBoundsCondition@@UAEPAXI@Z 0045bd70 f i outofboundscondition.obj
 0001:0005b710       ??0PositionCondition@@QAE@XZ 0045bd90 f   positioncondition.obj
 0001:0005b740       ??1PositionCondition@@UAE@XZ 0045bdc0 f   positioncondition.obj
 0001:0005b750       ?HandleEvent@PositionCondition@@UAEXW4EventEnum@@PAX@Z 0045bdd0 f   positioncondition.obj
 0001:0005b780       ?OnInitialize@PositionCondition@@EAEXXZ 0045be00 f   positioncondition.obj
 0001:0005b7a0       ?OnFinalize@PositionCondition@@EAEXXZ 0045be20 f   positioncondition.obj
 0001:0005b7c0       ??_EPositionCondition@@UAEPAXI@Z 0045be40 f i positioncondition.obj
 0001:0005b7c0       ??_GPositionCondition@@UAEPAXI@Z 0045be40 f i positioncondition.obj
 0001:0005b7e0       ??0RaceCondition@@QAE@XZ   0045be60 f   racecondition.obj
 0001:0005b810       ??1RaceCondition@@UAE@XZ   0045be90 f   racecondition.obj
 0001:0005b820       ?OnInitialize@RaceCondition@@MAEXXZ 0045bea0 f   racecondition.obj
 0001:0005b860       ?OnFinalize@RaceCondition@@MAEXXZ 0045bee0 f   racecondition.obj
 0001:0005b8a0       ?HandleEvent@RaceCondition@@UAEXW4EventEnum@@PAX@Z 0045bf20 f   racecondition.obj
 0001:0005b8f0       ?IsClose@RaceCondition@@UAE_NXZ 0045bf70 f   racecondition.obj
 0001:0005b900       ??_ERaceCondition@@UAEPAXI@Z 0045bf80 f i racecondition.obj
 0001:0005b900       ??_GRaceCondition@@UAEPAXI@Z 0045bf80 f i racecondition.obj
 0001:0005b920       ??0TimeOutCondition@@QAE@XZ 0045bfa0 f   timeoutcondition.obj
 0001:0005b940       ??1TimeOutCondition@@UAE@XZ 0045bfc0 f   timeoutcondition.obj
 0001:0005b950       ?Update@TimeOutCondition@@UAEXI@Z 0045bfd0 f   timeoutcondition.obj
 0001:0005b9c0       ?IsClose@TimeOutCondition@@UAE_NXZ 0045c040 f   timeoutcondition.obj
 0001:0005b9e0       ??_ETimeOutCondition@@UAEPAXI@Z 0045c060 f i timeoutcondition.obj
 0001:0005b9e0       ??_GTimeOutCondition@@UAEPAXI@Z 0045c060 f i timeoutcondition.obj
 0001:0005ba00       ??0VehicleCarryingStateProp@@QAE@XZ 0045c080 f   vehiclecarryingstateprop.obj
 0001:0005ba50       ??1VehicleCarryingStateProp@@UAE@XZ 0045c0d0 f   vehiclecarryingstateprop.obj
 0001:0005ba60       ?OnInitialize@VehicleCarryingStateProp@@MAEXXZ 0045c0e0 f   vehiclecarryingstateprop.obj
 0001:0005ba70       ??_GVehicleCarryingStateProp@@UAEPAXI@Z 0045c0f0 f i vehiclecarryingstateprop.obj
 0001:0005ba70       ??_EVehicleCarryingStateProp@@UAEPAXI@Z 0045c0f0 f i vehiclecarryingstateprop.obj
 0001:0005ba90       ?HandleEvent@VehicleCarryingStateProp@@UAEXW4EventEnum@@PAX@Z 0045c110 f   vehiclecarryingstateprop.obj
 0001:0005bb00       ??0VehicleCondition@@QAE@XZ 0045c180 f   vehiclecondition.obj
 0001:0005bb20       ??1VehicleCondition@@UAE@XZ 0045c1a0 f   vehiclecondition.obj
 0001:0005bb30       ??_EVehicleCondition@@UAEPAXI@Z 0045c1b0 f i vehiclecondition.obj
 0001:0005bb30       ??_GVehicleCondition@@UAEPAXI@Z 0045c1b0 f i vehiclecondition.obj
 0001:0005bb50       ??1SafeZone@@UAE@XZ        0045c1d0 f   safezone.obj
 0001:0005bb60       ??0SafeZone@@QAE@PAVCarStartLocator@@I@Z 0045c1e0 f   safezone.obj
 0001:0005bb80       ??_ESafeZone@@UAEPAXI@Z    0045c200 f i safezone.obj
 0001:0005bb80       ??_GSafeZone@@UAEPAXI@Z    0045c200 f i safezone.obj
 0001:0005bba0       ?InsideZone@SafeZone@@QAE_NVVector@RadicalMathLibrary@@@Z 0045c220 f   safezone.obj
 0001:0005bc10       ??0Merchandise@@QAE@XZ     0045c290 f   merchandise.obj
 0001:0005bc30       ??1Merchandise@@UAE@XZ     0045c2b0 f   merchandise.obj
 0001:0005bc40       ??_GMerchandise@@UAEPAXI@Z 0045c2c0 f i merchandise.obj
 0001:0005bc40       ??_EMerchandise@@UAEPAXI@Z 0045c2c0 f i merchandise.obj
 0001:0005bc60       ??1Reward@@UAE@XZ          0045c2e0 f   reward.obj
 0001:0005bc70       ?SetFilename@Reward@@QAEXPAD@Z 0045c2f0 f   reward.obj
 0001:0005bc90       ?UnlockReward@Reward@@QAEXXZ 0045c310 f   reward.obj
 0001:0005bcd0       ??0Reward@@QAE@XZ          0045c350 f   reward.obj
 0001:0005bd30       ??_GReward@@UAEPAXI@Z      0045c3b0 f i reward.obj
 0001:0005bd30       ??_EReward@@UAEPAXI@Z      0045c3b0 f i reward.obj
 0001:0005bd50       ?SetName@Reward@@QAEXPAD@Z 0045c3d0 f   reward.obj
 0001:0005bd90       ?GetInstance@RewardsManager@@SAPAV1@XZ 0045c410 f   rewardsmanager.obj
 0001:0005bda0       ?DestroyInstance@RewardsManager@@SAXXZ 0045c420 f   rewardsmanager.obj
 0001:0005bdc0       ?InitRewards@RewardsManager@@QAEXXZ 0045c440 f   rewardsmanager.obj
 0001:0005bf40       ?ClearRewards@RewardsManager@@QAEXXZ 0045c5c0 f   rewardsmanager.obj
 0001:0005c100       ?OnProcessRequestsComplete@RewardsManager@@UAEXPAX@Z 0045c780 f   rewardsmanager.obj
 0001:0005c110       ?LoadScript@RewardsManager@@QAEXXZ 0045c790 f   rewardsmanager.obj
 0001:0005c130       ?SetCarAttributes@RewardsManager@@QAEHPADMMMM@Z 0045c7b0 f   rewardsmanager.obj
 0001:0005c1e0       ?InitCarAttributeRecords@RewardsManager@@QAEXXZ 0045c860 f   rewardsmanager.obj
 0001:0005c230       ?GetCarAttributeRecord@RewardsManager@@QAEPAUCarAttributeRecord@@PAD@Z 0045c8b0 f   rewardsmanager.obj
 0001:0005c2b0       ?ComputeOverallCarRating@RewardsManager@@SAMPAUCarAttributeRecord@@@Z 0045c930 f   rewardsmanager.obj
 0001:0005c2d0       ?InitTokenStore@RewardsManager@@QAEXXZ 0045c950 f   rewardsmanager.obj
 0001:0005c380       ?AddMerchandise@RewardsManager@@QAEHPAD0W4eRewardType@Reward@@HHW4eSellerType@Merchandise@@@Z 0045ca00 f   rewardsmanager.obj
 0001:0005c430       ?GetMerchandise@RewardsManager@@QAEPAVMerchandise@@HH@Z 0045cab0 f   rewardsmanager.obj
 0001:0005c460       ?FindNextMerchandise@RewardsManager@@QAEPAVMerchandise@@HW4eSellerType@2@@Z 0045cae0 f   rewardsmanager.obj
 0001:0005c4b0       ??1RewardsManager@@EAE@XZ  0045cb30 f   rewardsmanager.obj
 0001:0005c560       ?LevelCheck@RewardsManager@@AAE_NH@Z 0045cbe0 f   rewardsmanager.obj
 0001:0005c580       ?IncUpdateQue@RewardsManager@@QAEXXZ 0045cc00 f   rewardsmanager.obj
 0001:0005c590       ?SynchWithCharacterSheet@RewardsManager@@QAEHXZ 0045cc10 f   rewardsmanager.obj
 0001:0005c5c0       ?SetTotalGags@RewardsManager@@QAEXHH@Z 0045cc40 f   rewardsmanager.obj
 0001:0005c5e0       ?GetTotalGags@RewardsManager@@QBEHH@Z 0045cc60 f   rewardsmanager.obj
 0001:0005c600       ?SetTotalWasps@RewardsManager@@QAEXHH@Z 0045cc80 f   rewardsmanager.obj
 0001:0005c620       ?GetTotalWasps@RewardsManager@@QBEHH@Z 0045cca0 f   rewardsmanager.obj
 0001:0005c640       ?BindReward@RewardsManager@@QAEHPAD0W4eRewardType@Reward@@W4eQuestType@3@H@Z 0045ccc0 f   rewardsmanager.obj
 0001:0005c7f0       ?GetReward@RewardsManager@@QAEPAVReward@@HW4eQuestType@2@@Z 0045ce70 f   rewardsmanager.obj
 0001:0005c870       ?GetMerchandise@RewardsManager@@QAEPAVMerchandise@@HPBD@Z 0045cef0 f   rewardsmanager.obj
 0001:0005c910       ?GetMerchandiseIndex@RewardsManager@@QAEHHPBD@Z 0045cf90 f   rewardsmanager.obj
 0001:0005c990       ?FindFirstMerchandise@RewardsManager@@QAEPAVMerchandise@@HW4eSellerType@2@@Z 0045d010 f   rewardsmanager.obj
 0001:0005c9b0       ?BuyMerchandise@RewardsManager@@QAE_NHPBD@Z 0045d030 f   rewardsmanager.obj
 0001:0005ca30       ??0RewardsManager@@AAE@XZ  0045d0b0 f   rewardsmanager.obj
 0001:0005ca70       ??_ERewardsManager@@EAEPAXI@Z 0045d0f0 f i rewardsmanager.obj
 0001:0005ca70       ??_GRewardsManager@@EAEPAXI@Z 0045d0f0 f i rewardsmanager.obj
 0001:0005ca90       ?CreateInstance@RewardsManager@@SAPAV1@XZ 0045d110 f   rewardsmanager.obj
 0001:0005cb00       ?GetInstance@CharacterSheetManager@@SAPAV1@XZ 0045d180 f   charactersheetmanager.obj
 0001:0005cb10       ?DestroyInstance@CharacterSheetManager@@SAXXZ 0045d190 f   charactersheetmanager.obj
 0001:0005cb30       ?QueryAllCardsCollected@CharacterSheetManager@@QAE_NW4LevelEnum@RenderEnums@@@Z 0045d1b0 f   charactersheetmanager.obj
 0001:0005cb60       ?QueryBonusMissionCompleted@CharacterSheetManager@@QAE_NW4LevelEnum@RenderEnums@@@Z 0045d1e0 f   charactersheetmanager.obj
 0001:0005cb90       ?QueryAllStreetRacesCompleted@CharacterSheetManager@@QAE_NW4LevelEnum@RenderEnums@@@Z 0045d210 f   charactersheetmanager.obj
 0001:0005cbd0       ?InitCharacterSheet@CharacterSheetManager@@QAEXXZ 0045d250 f   charactersheetmanager.obj
 0001:0005cdf0       ?LoadData@CharacterSheetManager@@UAEXPBEI@Z 0045d470 f   charactersheetmanager.obj
 0001:0005ce20       ?SaveData@CharacterSheetManager@@UAEXPAEI@Z 0045d4a0 f   charactersheetmanager.obj
 0001:0005cf60       ?SetCurrentMission@CharacterSheetManager@@QAEXW4LevelEnum@RenderEnums@@W4MissionEnum@3@@Z 0045d5e0 f   charactersheetmanager.obj
 0001:0005cfd0       ?GetNumberOfTokens@CharacterSheetManager@@QAEHW4LevelEnum@RenderEnums@@@Z 0045d650 f   charactersheetmanager.obj
 0001:0005cfe0       ?AddTokens@CharacterSheetManager@@QAEXW4LevelEnum@RenderEnums@@H@Z 0045d660 f   charactersheetmanager.obj
 0001:0005d020       ?SubtractTokens@CharacterSheetManager@@QAEXW4LevelEnum@RenderEnums@@H@Z 0045d6a0 f   charactersheetmanager.obj
 0001:0005d060       ?QueryCurrentMission@CharacterSheetManager@@QAE?AUCurrentMissionStruct@@XZ 0045d6e0 f   charactersheetmanager.obj
 0001:0005d080       ?QueryHighestMission@CharacterSheetManager@@QAE?AUCurrentMissionStruct@@XZ 0045d700 f   charactersheetmanager.obj
 0001:0005d0a0       ?QueryNavSystemSetting@CharacterSheetManager@@QAE_NXZ 0045d720 f   charactersheetmanager.obj
 0001:0005d0b0       ?SetNavSystemOn@CharacterSheetManager@@QAEX_N@Z 0045d730 f   charactersheetmanager.obj
 0001:0005d0c0       ?SetPurchasedRewards@CharacterSheetManager@@QAEXW4LevelEnum@RenderEnums@@H@Z 0045d740 f   charactersheetmanager.obj
 0001:0005d130       ?AddCarToInventory@CharacterSheetManager@@QAEHPBD@Z 0045d7b0 f   charactersheetmanager.obj
 0001:0005d1e0       ?GetCarIndex@CharacterSheetManager@@QAEHPBD@Z 0045d860 f   charactersheetmanager.obj
 0001:0005d250       ?GetCarDamageState@CharacterSheetManager@@QAE?AW4CarDamageStateEnum@@H@Z 0045d8d0 f   charactersheetmanager.obj
 0001:0005d2b0       ?GetCarHealth@CharacterSheetManager@@QAEMH@Z 0045d930 f   charactersheetmanager.obj
 0001:0005d2e0       ?UpdateCarHealth@CharacterSheetManager@@QAEXHM@Z 0045d960 f   charactersheetmanager.obj
 0001:0005d310       ??1CharacterSheetManager@@EAE@XZ 0045d990 f   charactersheetmanager.obj
 0001:0005d320       ?GetMissionRecord@CharacterSheetManager@@AAEPAUMissionRecord@@W4LevelEnum@RenderEnums@@PAD@Z 0045d9a0 f   charactersheetmanager.obj
 0001:0005d3a0       ?GetMissionRecord@CharacterSheetManager@@AAEPAUMissionRecord@@W4LevelEnum@RenderEnums@@H@Z 0045da20 f   charactersheetmanager.obj
 0001:0005d3e0       ?GetStreetRaceRecord@CharacterSheetManager@@AAEPAUMissionRecord@@W4LevelEnum@RenderEnums@@PAD@Z 0045da60 f   charactersheetmanager.obj
 0001:0005d460       ?GetBonusMissionRecord@CharacterSheetManager@@AAEPAUMissionRecord@@W4LevelEnum@RenderEnums@@PAD@Z 0045dae0 f   charactersheetmanager.obj
 0001:0005d4d0       ?GetCollectableRecord@CharacterSheetManager@@AAEPAURecord@@W4LevelEnum@RenderEnums@@W4eCollectableType@1@H@Z 0045db50 f   charactersheetmanager.obj
 0001:0005d510       ?QueryFMVUnlocked@CharacterSheetManager@@QAE_NW4LevelEnum@RenderEnums@@@Z 0045db90 f   charactersheetmanager.obj
 0001:0005d540       ?SetFMVUnlocked@CharacterSheetManager@@QAEXW4LevelEnum@RenderEnums@@@Z 0045dbc0 f   charactersheetmanager.obj
 0001:0005d560       ?QueryNumMissionsCompleted@CharacterSheetManager@@QAEHW4LevelEnum@RenderEnums@@@Z 0045dbe0 f   charactersheetmanager.obj
 0001:0005d5b0       ?QueryNumWaspsDestroyed@CharacterSheetManager@@QAEHW4LevelEnum@RenderEnums@@@Z 0045dc30 f   charactersheetmanager.obj
 0001:0005d5d0       ?QueryNumGagsViewed@CharacterSheetManager@@QAEHW4LevelEnum@RenderEnums@@@Z 0045dc50 f   charactersheetmanager.obj
 0001:0005d5f0       ?QueryGagViewed@CharacterSheetManager@@QAE_NW4LevelEnum@RenderEnums@@I@Z 0045dc70 f   charactersheetmanager.obj
 0001:0005d620       ?IncNumWaspsDestroyed@CharacterSheetManager@@QAEXW4LevelEnum@RenderEnums@@@Z 0045dca0 f   charactersheetmanager.obj
 0001:0005d640       ?AddGagViewed@CharacterSheetManager@@QAEXW4LevelEnum@RenderEnums@@I@Z 0045dcc0 f   charactersheetmanager.obj
 0001:0005d680       ?QueryNumCarUnlocked@CharacterSheetManager@@QAEHW4LevelEnum@RenderEnums@@@Z 0045dd00 f   charactersheetmanager.obj
 0001:0005d6d0       ?QueryNumSkinsUnlocked@CharacterSheetManager@@QAEHW4LevelEnum@RenderEnums@@@Z 0045dd50 f   charactersheetmanager.obj
 0001:0005d6f0       ?QueryNumBonusMissionsCompleted@CharacterSheetManager@@QAEHW4LevelEnum@RenderEnums@@@Z 0045dd70 f   charactersheetmanager.obj
 0001:0005d720       ?QueryNumStreetRacesCompleted@CharacterSheetManager@@QAEHW4LevelEnum@RenderEnums@@@Z 0045dda0 f   charactersheetmanager.obj
 0001:0005d760       ?QueryNumCardsCollected@CharacterSheetManager@@QAEHW4LevelEnum@RenderEnums@@@Z 0045dde0 f   charactersheetmanager.obj
 0001:0005d7c0       ?QueryPercentLevelCompleted@CharacterSheetManager@@QBEMW4LevelEnum@RenderEnums@@@Z 0045de40 f   charactersheetmanager.obj
 0001:0005d900       ?QueryPercentGameCompleted@CharacterSheetManager@@QBEMXZ 0045df80 f   charactersheetmanager.obj
 0001:0005d9a0       ?IsAllStoryMissionsCompleted@CharacterSheetManager@@QAE_NXZ 0045e020 f   charactersheetmanager.obj
 0001:0005d9d0       ?UpdateRewardsManager@CharacterSheetManager@@QAEHXZ 0045e050 f   charactersheetmanager.obj
 0001:0005db30       ?IsMiniGameUnlocked@CharacterSheetManager@@QBE_NXZ 0045e1b0 f   charactersheetmanager.obj
 0001:0005db50       ?IsState@CharacterSheetManager@@QAE_NH@Z 0045e1d0 f   charactersheetmanager.obj
 0001:0005db80       ?SetState@CharacterSheetManager@@QAEXH_N@Z 0045e200 f   charactersheetmanager.obj
 0001:0005dbc0       ?AddGambleRace@CharacterSheetManager@@QAEHW4LevelEnum@RenderEnums@@PAD@Z 0045e240 f   charactersheetmanager.obj
 0001:0005dc20       ?SetGambleRaceBestTime@CharacterSheetManager@@QAEXW4LevelEnum@RenderEnums@@H@Z 0045e2a0 f   charactersheetmanager.obj
 0001:0005dc40       ?GetGambleRaceBestTime@CharacterSheetManager@@QAEHW4LevelEnum@RenderEnums@@@Z 0045e2c0 f   charactersheetmanager.obj
 0001:0005dc60       ?QueryCurrentSkin@CharacterSheetManager@@QAEPADW4LevelEnum@RenderEnums@@@Z 0045e2e0 f   charactersheetmanager.obj
 0001:0005dc80       ?SetCurrentSkin@CharacterSheetManager@@QAEHW4LevelEnum@RenderEnums@@PAD@Z 0045e300 f   charactersheetmanager.obj
 0001:0005dcc0       ?ResetData@CharacterSheetManager@@UAEXXZ 0045e340 f i charactersheetmanager.obj
 0001:0005dcd0       ?SetMissionComplete@CharacterSheetManager@@QAEXW4LevelEnum@RenderEnums@@PAD_NH@Z 0045e350 f   charactersheetmanager.obj
 0001:0005dde0       ?IncrementMissionAttempt@CharacterSheetManager@@QAEXW4LevelEnum@RenderEnums@@PAD@Z 0045e460 f   charactersheetmanager.obj
 0001:0005de00       ?SetMissionSkipped@CharacterSheetManager@@QAEXW4LevelEnum@RenderEnums@@W4MissionEnum@3@@Z 0045e480 f   charactersheetmanager.obj
 0001:0005de20       ?QueryNumberOfAttempts@CharacterSheetManager@@QAEHW4LevelEnum@RenderEnums@@H@Z 0045e4a0 f   charactersheetmanager.obj
 0001:0005de50       ?QueryMissionStatus@CharacterSheetManager@@QAEPAUMissionRecord@@W4LevelEnum@RenderEnums@@H@Z 0045e4d0 f   charactersheetmanager.obj
 0001:0005de60       ?QueryStreetRaceStatus@CharacterSheetManager@@QAEPAUMissionRecord@@W4LevelEnum@RenderEnums@@PAD@Z 0045e4e0 f   charactersheetmanager.obj
 0001:0005de70       ?QueryBonusMissionStatus@CharacterSheetManager@@QAEPAUMissionRecord@@W4LevelEnum@RenderEnums@@PAD@Z 0045e4f0 f   charactersheetmanager.obj
 0001:0005de80       ?AddMission@CharacterSheetManager@@QAEHW4LevelEnum@RenderEnums@@PAD@Z 0045e500 f   charactersheetmanager.obj
 0001:0005df30       ?AddStreetRace@CharacterSheetManager@@QAEHW4LevelEnum@RenderEnums@@PAD@Z 0045e5b0 f   charactersheetmanager.obj
 0001:0005dff0       ?AddBonusMission@CharacterSheetManager@@QAEHW4LevelEnum@RenderEnums@@PAD@Z 0045e670 f   charactersheetmanager.obj
 0001:0005e070       ?AddCard@CharacterSheetManager@@QAEHW4LevelEnum@RenderEnums@@H@Z 0045e6f0 f   charactersheetmanager.obj
 0001:0005e0e0       ??0CharacterSheetManager@@AAE@XZ 0045e760 f   charactersheetmanager.obj
 0001:0005e110       ??_GCharacterSheetManager@@EAEPAXI@Z 0045e790 f i charactersheetmanager.obj
 0001:0005e110       ??_ECharacterSheetManager@@EAEPAXI@Z 0045e790 f i charactersheetmanager.obj
 0001:0005e130       ?CreateInstance@CharacterSheetManager@@SAPAV1@XZ 0045e7b0 f   charactersheetmanager.obj
 0001:0005e1a0       ??0RespawnEntity@@QAE@W4eRespawnEntity@0@@Z 0045e820 f   respawnentity.obj
 0001:0005e1e0       ??1RespawnEntity@@UAE@XZ   0045e860 f   respawnentity.obj
 0001:0005e1f0       ?Update@RespawnEntity@@UAEXI@Z 0045e870 f   respawnentity.obj
 0001:0005e210       ?EntityCollected@RespawnEntity@@QAEXXZ 0045e890 f   respawnentity.obj
 0001:0005e220       ?ShouldEntityRespawn@RespawnEntity@@QAE_NXZ 0045e8a0 f   respawnentity.obj
 0001:0005e240       ??_GRespawnEntity@@UAEPAXI@Z 0045e8c0 f i respawnentity.obj
 0001:0005e240       ??_ERespawnEntity@@UAEPAXI@Z 0045e8c0 f i respawnentity.obj
 0001:0005e260       ??0RespawnManager@@QAE@XZ  0045e8e0 f   respawnmanager.obj
 0001:0005e280       ?SetNitroRespawnTime@RespawnManager@@QAEHH@Z 0045e900 f   respawnmanager.obj
 0001:0005e290       ?SetWrenchRespawnTime@RespawnManager@@QAEHH@Z 0045e910 f   respawnmanager.obj
 0001:0005e2a0       ?SetWaspRespawnTime@RespawnManager@@QAEHH@Z 0045e920 f   respawnmanager.obj
 0001:0005e2b0       ?GetRespawnTime@RespawnManager@@QAEHW4eRespawnEntity@RespawnEntity@@@Z 0045e930 f   respawnmanager.obj
 0001:0005e2e0       ??1AnimationPlayer@@UAE@XZ 0045e960 f   animplayer.obj
 0001:0005e2f0       ?LoadData@AnimationPlayer@@UAEXPBDPAULoadDataCallBack@1@_NPAX@Z 0045e970 f   animplayer.obj
 0001:0005e310       ?Render@AnimationPlayer@@QAEXXZ 0045e990 f   animplayer.obj
 0001:0005e330       ?ClearData@AnimationPlayer@@UAEXXZ 0045e9b0 f   animplayer.obj
 0001:0005e360       ?EnterExclusive@AnimationPlayer@@IAEXXZ 0045e9e0 f   animplayer.obj
 0001:0005e3a0       ?LeaveExclusive@AnimationPlayer@@IAEXXZ 0045ea20 f   animplayer.obj
 0001:0005e3d0       ??0AnimationPlayer@@QAE@XZ 0045ea50 f   animplayer.obj
 0001:0005e400       ??_EAnimationPlayer@@UAEPAXI@Z 0045ea80 f i animplayer.obj
 0001:0005e400       ??_GAnimationPlayer@@UAEPAXI@Z 0045ea80 f i animplayer.obj
 0001:0005e420       ?LoadData@AnimationPlayer@@UAEXPBD_NPAX@Z 0045eaa0 f   animplayer.obj
 0001:0005e4d0       ?OnProcessRequestsComplete@AnimationPlayer@@UAEXPAX@Z 0045eb50 f   animplayer.obj
 0001:0005e5a0       ?Play@AnimationPlayer@@UAEXXZ 0045ec20 f   animplayer.obj
 0001:0005e5d0       ?Stop@AnimationPlayer@@UAEXXZ 0045ec50 f   animplayer.obj
 0001:0005e5f0       ??0Blinker@@QAE@XZ         0045ec70 f   blinker.obj
 0001:0005e610       ??1Blinker@@UAE@XZ         0045ec90 f   blinker.obj
 0001:0005e630       ??_EBlinker@@UAEPAXI@Z     0045ecb0 f i blinker.obj
 0001:0005e630       ??_GBlinker@@UAEPAXI@Z     0045ecb0 f i blinker.obj
 0001:0005e650       ?SetCharacter@Blinker@@QAEXPAVCharacter@@@Z 0045ecd0 f   blinker.obj
 0001:0005e700       ?Update@Blinker@@QAEXH@Z   0045ed80 f   blinker.obj
 0001:0005e840       ??0CameraPlayer@@QAE@XZ    0045eec0 f   cameraplayer.obj
 0001:0005e860       ??1CameraPlayer@@UAE@XZ    0045eee0 f   cameraplayer.obj
 0001:0005e870       ?ClearData@CameraPlayer@@UAEXXZ 0045eef0 f   cameraplayer.obj
 0001:0005e8a0       ??_ECameraPlayer@@UAEPAXI@Z 0045ef20 f i cameraplayer.obj
 0001:0005e8a0       ??_GCameraPlayer@@UAEPAXI@Z 0045ef20 f i cameraplayer.obj
 0001:0005e8c0       ?safe_cast@?$SafeCast@VtAnimation@@@radLoadInventory@@UAEPAUIRefCount@@PAU3@@Z 0045ef40 f i cameraplayer.obj
 0001:0005e8e0       ??$find@VtAnimation@@@p3d@@YAPAVtAnimation@@PAVtEntityStore@@ABVtName@@@Z 0045ef60 f i cameraplayer.obj
 0001:0005e9b0       ??$find@VtAnimation@@@p3d@@YAPAVtAnimation@@PAVtEntityStore@@PBD@Z 0045f030 f i cameraplayer.obj
 0001:0005ea20       ?DoLoaded@CameraPlayer@@MAEXXZ 0045f0a0 f   cameraplayer.obj
 0001:0005ea50       ??1MouthFlapper@@UAE@XZ    0045f0d0 f   mouthflapper.obj
 0001:0005eab0       ?SetIsEnabled@PoseDriver@poser@@UAEX_N@Z 0045f130 f i mouthflapper.obj
 0001:0005eac0       ?GetNumberOfDefaultSettings@MouthFlapper@@KAIXZ 0045f140 f   mouthflapper.obj
 0001:0005ead0       ??0MouthFlapperDefaultSetting@@QAE@ABVtName@@MMMMM@Z 0045f150 f   mouthflapper.obj
 0001:0005eb10       ?GetNearPlane@tCamera@@UAEMXZ 0045f190 f   pure3dxr:camera.obj
 0001:0005eb10       ?GetMaxSpeed@MouthFlapperDefaultSetting@@QBE?BMXZ 0045f190 f   mouthflapper.obj
 0001:0005eb10       ?GetFontHeight@tTextureFont@@UBEMXZ 0045f190 f   pure3dxr:texturefont.obj
 0001:0005eb10       ?GetFrame@tAnimatedObjectFrameController@@UAEMXZ 0045f190 f   pure3dxr:animatedobject.obj
 0001:0005eb20       ??4MouthFlapperDefaultSetting@@QAEAAV0@ABV0@@Z 0045f1a0 f   mouthflapper.obj
 0001:0005eb60       ??_GMouthFlapper@@UAEPAXI@Z 0045f1e0 f i mouthflapper.obj
 0001:0005eb60       ??_EMouthFlapper@@UAEPAXI@Z 0045f1e0 f i mouthflapper.obj
 0001:0005eb80       ?GetDefaultSettings@MouthFlapper@@QAEXABVtName@@@Z 0045f200 f   mouthflapper.obj
 0001:0005ec40       ?NeuSpeed@MouthFlapper@@AAEXXZ 0045f2c0 f   mouthflapper.obj
 0001:0005ece0       ??0MouthFlapperDefaultSetting@@QAE@ABV0@@Z 0045f360 f   mouthflapper.obj
 0001:0005ed30       ??0MouthFlapper@@QAE@XZ    0045f3b0 f   mouthflapper.obj
 0001:0005edb0       ?SetCharacter@MouthFlapper@@QAEXPAVCharacter@@@Z 0045f430 f   mouthflapper.obj
 0001:0005ee30       ?Update@MouthFlapper@@UAEXPAVPose@poser@@@Z 0045f4b0 f   mouthflapper.obj
 0001:0005ef60       ??0NISPlayer@@QAE@XZ       0045f5e0 f   nisplayer.obj
 0001:0005ef80       ??1NISPlayer@@UAE@XZ       0045f600 f   nisplayer.obj
 0001:0005ef90       ?DoRender@NISPlayer@@MAEXXZ 0045f610 f   nisplayer.obj
 0001:0005efb0       ??_GNISPlayer@@UAEPAXI@Z   0045f630 f i nisplayer.obj
 0001:0005efb0       ??_ENISPlayer@@UAEPAXI@Z   0045f630 f i nisplayer.obj
 0001:0005efd0       ?ClearData@NISPlayer@@UAEXXZ 0045f650 f   nisplayer.obj
 0001:0005f010       ?safe_cast@?$SafeCast@VScenegraph@1@@radLoadInventory@@UAEPAUIRefCount@@PAU3@@Z 0045f690 f i nisplayer.obj
 0001:0005f030       ?safe_cast@?$SafeCast@VtCompositeDrawable@@@radLoadInventory@@UAEPAUIRefCount@@PAU3@@Z 0045f6b0 f i nisplayer.obj
 0001:0005f050       ??$find@VScenegraph@1@@p3d@@YAPAVScenegraph@1@PAVtEntityStore@@ABVtName@@@Z 0045f6d0 f i nisplayer.obj
 0001:0005f120       ??$find@VtCompositeDrawable@@@p3d@@YAPAVtCompositeDrawable@@PAVtEntityStore@@ABVtName@@@Z 0045f7a0 f i nisplayer.obj
 0001:0005f1f0       ??$find@VScenegraph@1@@p3d@@YAPAVScenegraph@1@PAVtEntityStore@@PBD@Z 0045f870 f i nisplayer.obj
 0001:0005f260       ??$find@VtCompositeDrawable@@@p3d@@YAPAVtCompositeDrawable@@PAVtEntityStore@@PBD@Z 0045f8e0 f i nisplayer.obj
 0001:0005f2d0       ?DoLoaded@NISPlayer@@MAEXXZ 0045f950 f   nisplayer.obj
 0001:0005f370       ?Display@PlayerDrawable@@UAEXXZ 0045f9f0 f   playerdrawable.obj
 0001:0005f380       ??0PlayerDrawable@@QAE@XZ  0045fa00 f   playerdrawable.obj
 0001:0005f3a0       ??_GtDrawable@@MAEPAXI@Z   0045fa20 f i actionbuttonhandler.obj
 0001:0005f3a0       ??_EtDrawable@@MAEPAXI@Z   0045fa20 f i actionbuttonhandler.obj
 0001:0005f3a0       ??_GtOpticEffect@@MAEPAXI@Z 0045fa20 f i pure3dxr:optic.obj
 0001:0005f3a0       ??_EtOpticEffect@@MAEPAXI@Z 0045fa20 f i pure3dxr:optic.obj
 0001:0005f3a0       ??_GPlayerDrawable@@UAEPAXI@Z 0045fa20 f i playerdrawable.obj
 0001:0005f3a0       ??_EPlayerDrawable@@UAEPAXI@Z 0045fa20 f i playerdrawable.obj
 0001:0005f3a0       ??_GPresentationOverlay@@UAEPAXI@Z 0045fa20 f i presentation.obj
 0001:0005f3a0       ??_EPresentationOverlay@@UAEPAXI@Z 0045fa20 f i presentation.obj
 0001:0005f3c0       ??2radObject@@SAPAXIH@Z    0045fa40 f i presentation.obj
 0001:0005f3e0       ?GetInstance@PresentationManager@@SAPAV1@XZ 0045fa60 f   presentation.obj
 0001:0005f3f0       ?DestroyInstance@PresentationManager@@SAXXZ 0045fa70 f   presentation.obj
 0001:0005f410       ?Initialize@PresentationManager@@QAEXXZ 0045fa90 f   presentation.obj
 0001:0005f560       ?FinalizePlayerDrawable@PresentationManager@@QAEXXZ 0045fbe0 f   presentation.obj
 0001:0005f580       ?OnPresentationEventBegin@PresentationManager@@MAEXPAVPresentationEvent@@@Z 0045fc00 f   presentation.obj
 0001:0005f610       ?OnPresentationEventLoadComplete@PresentationManager@@MAEXPAVPresentationEvent@@@Z 0045fc90 f   presentation.obj
 0001:0005f630       ?OnPresentationEventEnd@PresentationManager@@MAEXPAVPresentationEvent@@@Z 0045fcb0 f   presentation.obj
 0001:0005f6e0       ?OnProcessRequestsComplete@PresentationManager@@MAEXPAX@Z 0045fd60 f   presentation.obj
 0001:0005f7b0       ?IsBusy@PresentationManager@@QBE_NXZ 0045fe30 f   presentation.obj
 0001:0005f7d0       ?AddToQueue@PresentationManager@@IAEXPAVPresentationEvent@@@Z 0045fe50 f   presentation.obj
 0001:0005f800       ?GetFirst@PresentationManager@@IAEPAVPresentationEvent@@XZ 0045fe80 f   presentation.obj
 0001:0005f830       ?OnGameplayStart@PresentationManager@@QAEXXZ 0045feb0 f   presentation.obj
 0001:0005f850       ?InConversation@PresentationManager@@QBE_NXZ 0045fed0 f   presentation.obj
 0001:0005f860       ?StopAll@PresentationManager@@QAEXXZ 0045fee0 f   presentation.obj
 0001:0005f890       ?Update@PresentationOverlay@@QAEXI@Z 0045ff10 f   presentation.obj
 0001:0005f920       ?ReplaceMissionBriefingBitmap@PresentationManager@@QAEXABVtName@@@Z 0045ffa0 f   presentation.obj
 0001:0005fd00       ?MakeCharactersFaceEachOther@PresentationManager@@QAEXPAVCharacter@@0@Z 00460380 f   presentation.obj
 0001:0005fdb0       ?AllocateFromPool@?$AllocPool@VFMVEvent@@@@QAEPAVFMVEvent@@XZ 00460430 f i presentation.obj
 0001:0005fdf0       ?ReturnToPool@?$AllocPool@VFMVEvent@@@@QAEXI@Z 00460470 f i presentation.obj
 0001:0005fe30       ?ReturnToPool@?$AllocPool@VNISEvent@@@@QAEXI@Z 004604b0 f i presentation.obj
 0001:0005fe80       ?Initialize@?$AllocPool@VNISEvent@@@@MAEXXZ 00460500 f i presentation.obj
 0001:0005fe80       ?Initialize@?$AllocPool@VFMVEvent@@@@MAEXXZ 00460500 f i presentation.obj
 0001:0005fe80       ?Initialize@?$AllocPool@VTransitionEvent@@@@MAEXXZ 00460500 f i presentation.obj
 0001:0005fea0       ?ReturnToPool@?$AllocPool@VTransitionEvent@@@@QAEXI@Z 00460520 f i presentation.obj
 0001:0005fee0       ??_EFMVEvent@@UAEPAXI@Z    00460560 f i presentation.obj
 0001:0005ff40       ??_ENISEvent@@UAEPAXI@Z    004605c0 f i presentation.obj
 0001:0005ffa0       ??0TransitionEvent@@QAE@XZ 00460620 f i presentation.obj
 0001:0005ffc0       ??1TransitionEvent@@UAE@XZ 00460640 f i presentation.obj
 0001:0005ffd0       ?InitializePlayerDrawable@PresentationManager@@QAEXXZ 00460650 f   presentation.obj
 0001:00060010       ?QueueFMV@PresentationManager@@QAEXPAPAVFMVEvent@@PAUPresentationEventCallBack@PresentationEvent@@@Z 00460690 f   presentation.obj
 0001:00060050       ?ReturnToPool@PresentationManager@@IAEXPAVPresentationEvent@@@Z 004606d0 f   presentation.obj
 0001:00060080       ??0PresentationOverlay@@QAE@XZ 00460700 f   presentation.obj
 0001:000600c0       ?Display@PresentationOverlay@@UAEXXZ 00460740 f   presentation.obj
 0001:00060400       ??0?$AllocPool@VFMVEvent@@@@QAE@W4GameMemoryAllocator@@I@Z 00460a80 f i presentation.obj
 0001:000604b0       ??0?$AllocPool@VNISEvent@@@@QAE@W4GameMemoryAllocator@@I@Z 00460b30 f i presentation.obj
 0001:00060560       ??0?$AllocPool@VTransitionEvent@@@@QAE@W4GameMemoryAllocator@@I@Z 00460be0 f i presentation.obj
 0001:00060610       ??_E?$AllocPool@VFMVEvent@@@@UAEPAXI@Z 00460c90 f i presentation.obj
 0001:00060610       ??_G?$AllocPool@VFMVEvent@@@@UAEPAXI@Z 00460c90 f i presentation.obj
 0001:00060630       ??1?$AllocPool@VFMVEvent@@@@UAE@XZ 00460cb0 f i presentation.obj
 0001:00060680       ??_G?$AllocPool@VNISEvent@@@@UAEPAXI@Z 00460d00 f i presentation.obj
 0001:00060680       ??_E?$AllocPool@VNISEvent@@@@UAEPAXI@Z 00460d00 f i presentation.obj
 0001:000606a0       ??1?$AllocPool@VNISEvent@@@@UAE@XZ 00460d20 f i presentation.obj
 0001:000606f0       ??_E?$AllocPool@VTransitionEvent@@@@UAEPAXI@Z 00460d70 f i presentation.obj
 0001:000606f0       ??_G?$AllocPool@VTransitionEvent@@@@UAEPAXI@Z 00460d70 f i presentation.obj
 0001:00060710       ??1?$AllocPool@VTransitionEvent@@@@UAE@XZ 00460d90 f i presentation.obj
 0001:00060760       ??_ETransitionEvent@@UAEPAXI@Z 00460de0 f i presentation.obj
 0001:000607c0       ??$_Copy_opt@Vconst_iterator@?$vector@VtName@@V?$s2alloc@VtName@@@@@std@@PAVtName@@@std@@YAPAVtName@@Vconst_iterator@?$vector@VtName@@V?$s2alloc@VtName@@@@@0@0PAV1@U_Nonscalar_ptr_iterator_tag@0@@Z 00460e40 f i presentation.obj
 0001:000607c0       ??$_Copy_opt@PAVtName@@PAV1@@std@@YAPAVtName@@PAV1@00U_Nonscalar_ptr_iterator_tag@0@@Z 00460e40 f i haspresentationinfo.obj
 0001:00060800       ??$_Uninit_copy@Vconst_iterator@?$vector@VtName@@V?$s2alloc@VtName@@@@@std@@PAVtName@@V?$s2alloc@VtName@@@@@std@@YAPAVtName@@Vconst_iterator@?$vector@VtName@@V?$s2alloc@VtName@@@@@0@0PAV1@AAV?$s2alloc@VtName@@@@U_Nonscalar_ptr_iterator_tag@0@@Z 00460e80 f i presentation.obj
 0001:00060890       ?PlayFMV@PresentationManager@@QAEXPBDPAUPresentationEventCallBack@PresentationEvent@@_N2@Z 00460f10 f   presentation.obj
 0001:00060a10       ?Update@PresentationManager@@QAEXI@Z 00461090 f   presentation.obj
 0001:00060b30       ?GetCameraTargetForLineOfDialog@PresentationManager@@IBE?BVtName@@I@Z 004611b0 f   presentation.obj
 0001:00060b90       ?HandleEvent@PresentationManager@@UAEXW4EventEnum@@PAX@Z 00461210 f   presentation.obj
 0001:00061120       ??1PresentationManager@@EAE@XZ 004617a0 f   presentation.obj
 0001:00061220       ?Finalize@PresentationManager@@QAEXXZ 004618a0 f   presentation.obj
 0001:00061310       ??_GPresentationManager@@EAEPAXI@Z 00461990 f i presentation.obj
 0001:00061310       ??_EPresentationManager@@EAEPAXI@Z 00461990 f i presentation.obj
 0001:00061330       ??$_Insert@Vconst_iterator@?$vector@VtName@@V?$s2alloc@VtName@@@@@std@@@?$vector@VtName@@V?$s2alloc@VtName@@@@@std@@QAEXViterator@01@Vconst_iterator@01@1Uforward_iterator_tag@1@@Z 004619b0 f i presentation.obj
 0001:000615e0       ?SetCamerasForLineOfDialog@PresentationManager@@QAEXABV?$vector@VtName@@V?$s2alloc@VtName@@@@@std@@@Z 00461c60 f   presentation.obj
 0001:00061620       ?_Construct_n@?$vector@VtName@@V?$s2alloc@VtName@@@@@std@@QAEXIABVtName@@@Z 00461ca0 f i presentation.obj
 0001:000616d0       ??0?$vector@VtName@@V?$s2alloc@VtName@@@@@std@@QAE@I@Z 00461d50 f i presentation.obj
 0001:00061730       ??0PresentationManager@@AAE@XZ 00461db0 f   presentation.obj
 0001:000619c0       ?CreateInstance@PresentationManager@@SAPAV1@XZ 00462040 f   presentation.obj
 0001:00061a30       ?SetCharacter@PresentationAnimator@@QAEXPAVCharacter@@@Z 004620b0 f   presentationanimator.obj
 0001:00061a50       ?SetRandomSelection@PresentationAnimator@@QAEX_N@Z 004620d0 f   presentationanimator.obj
 0001:00061a60       ?StartTalking@PresentationAnimator@@QAEXXZ 004620e0 f   presentationanimator.obj
 0001:00061a90       ?StopTalking@PresentationAnimator@@QAEXXZ 00462110 f   presentationanimator.obj
 0001:00061ac0       ?Update@PresentationAnimator@@QAEXH@Z 00462140 f   presentationanimator.obj
 0001:00061af0       ?ChooseRandomAnimation@PresentationAnimator@@ABE?BVtName@@XZ 00462170 f   presentationanimator.obj
 0001:00061b50       ?erase@?$vector@VtName@@V?$s2alloc@VtName@@@@@std@@QAE?AViterator@12@V312@@Z 004621d0 f i presentationanimator.obj
 0001:00061ba0       ??1PresentationAnimator@@UAE@XZ 00462220 f   presentationanimator.obj
 0001:00061c00       ?ClearAmbientAnimations@PresentationAnimator@@QAEXXZ 00462280 f   presentationanimator.obj
 0001:00061c20       ?ChooseNextAnimation@PresentationAnimator@@AAE?BVtName@@XZ 004622a0 f   presentationanimator.obj
 0001:00061ce0       ?PlaySpecialAmbientAnimation@PresentationAnimator@@QAEXXZ 00462360 f   presentationanimator.obj
 0001:00061ec0       ??_GPresentationAnimator@@UAEPAXI@Z 00462540 f i presentationanimator.obj
 0001:00061ec0       ??_EPresentationAnimator@@UAEPAXI@Z 00462540 f i presentationanimator.obj
 0001:00061ee0       ?AddAmbientAnimations@PresentationAnimator@@QAEXABV?$vector@VtName@@V?$s2alloc@VtName@@@@@std@@@Z 00462560 f   presentationanimator.obj
 0001:00061f40       ??0PresentationAnimator@@QAE@XZ 004625c0 f   presentationanimator.obj
 0001:00061fc0       ??0SimpleAnimationPlayer@@QAE@XZ 00462640 f   simpleanimationplayer.obj
 0001:00062010       ?Update@SimpleAnimationPlayer@@UAEXI@Z 00462690 f   simpleanimationplayer.obj
 0001:000620d0       ?Rewind@SimpleAnimationPlayer@@QAEXXZ 00462750 f   simpleanimationplayer.obj
 0001:00062100       ?ClearData@SimpleAnimationPlayer@@UAEXXZ 00462780 f   simpleanimationplayer.obj
 0001:00062140       ?SetNameData@SimpleAnimationPlayer@@QAEXPAD00@Z 004627c0 f   simpleanimationplayer.obj
 0001:00062190       ?SetIntroLoop@SimpleAnimationPlayer@@QAEXI@Z 00462810 f   simpleanimationplayer.obj
 0001:00062190       ?SetEngineSmoke@GeometryVehicle@@AAEXW4ParticleID@ParticleEnum@@@Z 00462810 f   geometryvehicle.obj
 0001:000621a0       ?SetMissionTime@Mission@@QAEXH@Z 00462820 f   mission.obj
 0001:000621a0       ?SetDownshiftDamperSize@carSoundParameters@@UAEXM@Z 00462820 f   carsoundparameters.obj
 0001:000621a0       ?SetOutroLoop@SimpleAnimationPlayer@@QAEXI@Z 00462820 f   simpleanimationplayer.obj
 0001:000621b0       ?Play@SimpleAnimationPlayer@@UAEXXZ 00462830 f   simpleanimationplayer.obj
 0001:000621d0       ?DoneIntro@SimpleAnimationPlayer@@QAEXXZ 00462850 f   simpleanimationplayer.obj
 0001:00062220       ??1SimpleAnimationPlayer@@UAE@XZ 004628a0 f   simpleanimationplayer.obj
 0001:00062290       ?DoRender@SimpleAnimationPlayer@@MAEXXZ 00462910 f   simpleanimationplayer.obj
 0001:00062370       ??_ESimpleAnimationPlayer@@UAEPAXI@Z 004629f0 f i simpleanimationplayer.obj
 0001:00062370       ??_GSimpleAnimationPlayer@@UAEPAXI@Z 004629f0 f i simpleanimationplayer.obj
 0001:00062390       ??$find@VtCamera@@@p3d@@YAPAVtCamera@@PAVtEntityStore@@PBD@Z 00462a10 f i simpleanimationplayer.obj
 0001:00062400       ?DoLoaded@SimpleAnimationPlayer@@MAEXXZ 00462a80 f   simpleanimationplayer.obj
 0001:00062500       ??0TransitionPlayer@@QAE@XZ 00462b80 f   transitionplayer.obj
 0001:00062530       ??1TransitionPlayer@@UAE@XZ 00462bb0 f   transitionplayer.obj
 0001:00062540       ?SetTransition@TransitionPlayer@@QAEXPAUTransitionInfo@1@@Z 00462bc0 f   transitionplayer.obj
 0001:000625a0       ?Update@TransitionPlayer@@UAEXI@Z 00462c20 f   transitionplayer.obj
 0001:00062610       ?DoUpdate@TransitionPlayer@@MAEXI@Z 00462c90 f   transitionplayer.obj
 0001:00062690       ??_GTransitionPlayer@@UAEPAXI@Z 00462d10 f i transitionplayer.obj
 0001:00062690       ??_ETransitionPlayer@@UAEPAXI@Z 00462d10 f i transitionplayer.obj
 0001:000626b0       ?GetInstance@TutorialManager@@SAPAV1@XZ 00462d30 f   tutorialmanager.obj
 0001:000626c0       ?DestroyInstance@TutorialManager@@SAXXZ 00462d40 f   tutorialmanager.obj
 0001:000626e0       ?Initialize@TutorialManager@@QAEXXZ 00462d60 f   tutorialmanager.obj
 0001:000627f0       ?MarkDialogFinished@TutorialManager@@QAEXXZ 00462e70 f   tutorialmanager.obj
 0001:00062800       ?LoadData@TutorialManager@@UAEXPBEI@Z 00462e80 f   tutorialmanager.obj
 0001:00062830       ?SaveData@TutorialManager@@UAEXPAEI@Z 00462eb0 f   tutorialmanager.obj
 0001:00062850       ?ResetData@TutorialManager@@UAEXXZ 00462ed0 f   tutorialmanager.obj
 0001:00062880       ?QueryTutorialSeen@TutorialManager@@IAE_NW4TutorialMode@@@Z 00462f00 f   tutorialmanager.obj
 0001:000628a0       ?SetFlag@AnimatedIcon@@AAEXW4Flag@1@_N@Z 00462f20 f   animatedicon.obj
 0001:000628a0       ?SetTutorialSeen@TutorialManager@@IAEXW4TutorialMode@@_N@Z 00462f20 f   tutorialmanager.obj
 0001:000628d0       ?erase@?$vector@W4TutorialMode@@V?$s2alloc@W4TutorialMode@@@@@std@@QAE?AViterator@12@V312@@Z 00462f50 f i tutorialmanager.obj
 0001:00062910       ??1TutorialManager@@EAE@XZ 00462f90 f   tutorialmanager.obj
 0001:000629a0       ?ProcessQueue@TutorialManager@@IAEXXZ 00463020 f   tutorialmanager.obj
 0001:00062c10       ?Update@TutorialManager@@QAEXM@Z 00463290 f   tutorialmanager.obj
 0001:00062c40       ??_GTutorialManager@@EAEPAXI@Z 004632c0 f i tutorialmanager.obj
 0001:00062c40       ??_ETutorialManager@@EAEPAXI@Z 004632c0 f i tutorialmanager.obj
 0001:00062c60       ?_Xlen@?$vector@W4TutorialMode@@V?$s2alloc@W4TutorialMode@@@@@std@@IBEXXZ 004632e0 f i tutorialmanager.obj
 0001:00062cd0       ?_Insert_n@?$vector@W4TutorialMode@@V?$s2alloc@W4TutorialMode@@@@@std@@IAEXViterator@12@IABW4TutorialMode@@@Z 00463350 f i tutorialmanager.obj
 0001:00062f10       ?reserve@?$vector@W4TutorialMode@@V?$s2alloc@W4TutorialMode@@@@@std@@QAEXI@Z 00463590 f i tutorialmanager.obj
 0001:00062fe0       ?push_back@?$vector@W4TutorialMode@@V?$s2alloc@W4TutorialMode@@@@@std@@QAEXABW4TutorialMode@@@Z 00463660 f i tutorialmanager.obj
 0001:00063050       ?AddToQueue@TutorialManager@@IAEXW4TutorialMode@@@Z 004636d0 f   tutorialmanager.obj
 0001:00063060       ??0TutorialManager@@AAE@XZ 004636e0 f   tutorialmanager.obj
 0001:00063110       ?HandleEvent@TutorialManager@@UAEXW4EventEnum@@PAX@Z 00463790 f   tutorialmanager.obj
 0001:000634f0       ?CreateInstance@TutorialManager@@SAPAV1@XZ 00463b70 f   tutorialmanager.obj
 0001:00063560       ??1FMVEvent@@UAE@XZ        00463be0 f   fmvevent.obj
 0001:00063570       ?GetUserData@FMVEvent@@MAEPAXXZ 00463bf0 f i fmvevent.obj
 0001:00063580       ?GetPlayer@FMVEvent@@UAEPAVAnimationPlayer@@XZ 00463c00 f   fmvevent.obj
 0001:00063590       ??0FMVEventData@FMVEvent@@QAE@XZ 00463c10 f   fmvevent.obj
 0001:000635b0       ??0FMVEvent@@QAE@XZ        00463c30 f   fmvevent.obj
 0001:000635d0       ??0NISEvent@@QAE@XZ        00463c50 f   nisevent.obj
 0001:000635f0       ??1NISEvent@@UAE@XZ        00463c70 f   nisevent.obj
 0001:00063600       ?Init@NISEvent@@UAEXXZ     00463c80 f   nisevent.obj
 0001:00063620       ?GetPlayer@NISEvent@@UAEPAVAnimationPlayer@@XZ 00463ca0 f   nisevent.obj
 0001:00063640       ?SetNames@NISEvent@@AAEXXZ 00463cc0 f   nisevent.obj
 0001:000636a0       ?Start@NISEvent@@UAEXXZ    00463d20 f   nisevent.obj
 0001:000636b0       ??1PresentationEvent@@UAE@XZ 00463d30 f   presentationevent.obj
 0001:000636c0       ?OnLoadDataComplete@PresentationEvent@@UAEXXZ 00463d40 f   presentationevent.obj
 0001:000636d0       ?Update@PresentationEvent@@QAE_NI@Z 00463d50 f   presentationevent.obj
 0001:00063700       ?Start@PresentationEvent@@UAEXXZ 00463d80 f   presentationevent.obj
 0001:00063760       ?Stop@PresentationEvent@@UAEXXZ 00463de0 f   presentationevent.obj
 0001:00063780       ?Init@PresentationEvent@@UAEXXZ 00463e00 f   presentationevent.obj
 0001:00063790       ??0PresentationEvent@@QAE@XZ 00463e10 f   presentationevent.obj
 0001:000637a0       ??_GPresentationEvent@@UAEPAXI@Z 00463e20 f i presentationevent.obj
 0001:000637a0       ??_EPresentationEvent@@UAEPAXI@Z 00463e20 f i presentationevent.obj
 0001:000637c0       ?GetPlayer@TransitionEvent@@UAEPAVAnimationPlayer@@XZ 00463e40 f   transevent.obj
 0001:000637d0       ?Start@TransitionEvent@@UAEXXZ 00463e50 f   transevent.obj
 0001:000637f0       ??0CGuiEntity@@QAE@PAV0@@Z 00463e70 f   guientity.obj
 0001:00063810       ??1CGuiEntity@@UAE@XZ      00463e90 f   guientity.obj
 0001:00063820       ??_ECGuiEntity@@UAEPAXI@Z  00463ea0 f i guientity.obj
 0001:00063820       ??_GCGuiEntity@@UAEPAXI@Z  00463ea0 f i guientity.obj
 0001:00063840       ??0CGuiManager@@QAE@PAVProject@Scrooby@@PAVCGuiEntity@@@Z 00463ec0 f   guimanager.obj
 0001:00063920       ?FindWindowByID@CGuiManager@@QAEPAVCGuiWindow@@W4eGuiWindowID@2@@Z 00463fa0 f   guimanager.obj
 0001:00063940       ?GetCurrentWindow@CGuiManager@@QAEPAVCGuiWindow@@XZ 00463fc0 f   guimanager.obj
 0001:00063950       ?DisplayMessage@CGuiManager@@QAEXHPAVCGuiEntity@@@Z 00463fd0 f   guimanager.obj
 0001:00063980       ?DisplayPrompt@CGuiManager@@QAEXHPAVCGuiEntity@@W4eGenericPromptType@@_N@Z 00464000 f   guimanager.obj
 0001:00063a40       ?DisplayErrorPrompt@CGuiManager@@QAEXHPAVCGuiEntity@@H@Z 004640c0 f   guimanager.obj
 0001:00063b00       ?GetPreviousScreen@CGuiManager@@QBE?AW4eGuiWindowID@CGuiWindow@@H@Z 00464180 f   guimanager.obj
 0001:00063b20       ?AddWindow@CGuiManager@@IAEXW4eGuiWindowID@CGuiWindow@@PAV3@@Z 004641a0 f   guimanager.obj
 0001:00063b40       ?RemoveAllWindows@CGuiManager@@IAEXXZ 004641c0 f   guimanager.obj
 0001:00063b80       ?PushScreenHistory@CGuiManager@@IAEXW4eGuiWindowID@CGuiWindow@@@Z 00464200 f   guimanager.obj
 0001:00063bb0       ?PopScreenHistory@CGuiManager@@IAE?AW4eGuiWindowID@CGuiWindow@@XZ 00464230 f   guimanager.obj
 0001:00063bd0       ??_ECGuiManager@@WBA@AEPAXI@Z 00464250 f i guimanager.obj
 0001:00063be0       ??1CGuiManager@@UAE@XZ     00464260 f   guimanager.obj
 0001:00063c50       ?HandleMessage@CGuiManager@@UAEXW4eGuiMessage@@II@Z 004642d0 f   guimanager.obj
 0001:00063de0       ?OnGotoScreenComplete@CGuiManager@@UAEXXZ 00464460 f   guimanager.obj
 0001:00063e30       ??_GCGuiManager@@UAEPAXI@Z 004644b0 f i guimanager.obj
 0001:00063e30       ??_ECGuiManager@@UAEPAXI@Z 004644b0 f i guimanager.obj
 0001:00063e50       ?IsControllerMessage@CGuiEntity@@SA_NW4eGuiMessage@@@Z 004644d0 f i guimenu.obj
 0001:00063e70       ??1CGuiMenu@@UAE@XZ        004644f0 f   guimenu.obj
 0001:00063f10       ?SetHighlightColour@CGuiMenu@@QAEX_NUpddiColour@@@Z 00464590 f   guimenu.obj
 0001:00063f30       ?SetSelectionValue@CGuiMenu@@QAEXHH@Z 004645b0 f   guimenu.obj
 0001:00063f70       ?SetSelectionValueCount@CGuiMenu@@QAEXHH@Z 004645f0 f   guimenu.obj
 0001:00064010       ?UnselectItem@CGuiMenu@@IAEXH@Z 00464690 f   guimenu.obj
 0001:00064120       ?MoveCursor@CGuiMenu@@AAEXHH@Z 004647a0 f   guimenu.obj
 0001:000641b0       ??1CGuiMenu2D@@UAE@XZ      00464830 f   guimenu.obj
 0001:000641c0       ??1CGuiMenuPrompt@@UAE@XZ  00464840 f   guimenu.obj
 0001:000641d0       ?SetResponse@CGuiMenuPrompt@@QAEXHW4ePromptResponse@1@@Z 00464850 f   guimenu.obj
 0001:00064210       ?GetResponse@CGuiMenuPrompt@@QBE?AW4ePromptResponse@1@H@Z 00464890 f   guimenu.obj
 0001:00064240       ??0CGuiMenu@@QAE@PAVCGuiEntity@@HW4eMenuType@@H@Z 004648c0 f   guimenu.obj
 0001:00064310       ??_ECGuiMenu@@UAEPAXI@Z    00464990 f i guimenu.obj
 0001:00064310       ??_GCGuiMenu@@UAEPAXI@Z    00464990 f i guimenu.obj
 0001:00064330       ?MakeSelection@CGuiMenu@@QAEX_N@Z 004649b0 f   guimenu.obj
 0001:00064410       ?SelectItem@CGuiMenu@@IAEXH@Z 00464a90 f   guimenu.obj
 0001:000644f0       ?ChangeSelection@CGuiMenu@@IAEXH_N@Z 00464b70 f   guimenu.obj
 0001:00064580       ?IncrementSelectionValue@CGuiMenu@@IAEX_N@Z 00464c00 f   guimenu.obj
 0001:00064610       ?DecrementSelectionValue@CGuiMenu@@IAEX_N@Z 00464c90 f   guimenu.obj
 0001:000646a0       ?UpdateCurrentSelection@CGuiMenu@@AAEXH@Z 00464d20 f   guimenu.obj
 0001:00064a90       ??0CGuiMenu2D@@QAE@PAVCGuiEntity@@HHW4eMenuType@@H@Z 00465110 f   guimenu.obj
 0001:00064ad0       ??_ECGuiMenu2D@@UAEPAXI@Z  00465150 f i guimenu.obj
 0001:00064ad0       ??_GCGuiMenu2D@@UAEPAXI@Z  00465150 f i guimenu.obj
 0001:00064af0       ??_GCGuiMenuPrompt@@UAEPAXI@Z 00465170 f i guimenu.obj
 0001:00064af0       ??_ECGuiMenuPrompt@@UAEPAXI@Z 00465170 f i guimenu.obj
 0001:00064b10       ?HandleMessage@CGuiMenu@@UAEXW4eGuiMessage@@II@Z 00465190 f   guimenu.obj
 0001:00064bb0       ?AddMenuItem@CGuiMenu@@QAEXPAVBoundedDrawable@Scrooby@@0PAVPolygon@3@PAVSprite@3@22H@Z 00465230 f   guimenu.obj
 0001:00064d40       ?SetMenuItemEnabled@CGuiMenu@@QAEXH_N0@Z 004653c0 f   guimenu.obj
 0001:00064ea0       ?Reset@CGuiMenu@@QAEXH@Z   00465520 f   guimenu.obj
 0001:00064ed0       ?HandleMessage@CGuiMenu2D@@UAEXW4eGuiMessage@@II@Z 00465550 f   guimenu.obj
 0001:00064f50       ??0CGuiMenuPrompt@@QAE@PAVCGuiEntity@@PAVPage@Scrooby@@HH@Z 004655d0 f   guimenu.obj
 0001:00065040       ?SetNumResponses@CGuiMenuPrompt@@QAEXH@Z 004656c0 f   guimenu.obj
 0001:00065080       ??1GuiMenuItem@@UAE@XZ     00465700 f   guimenuitem.obj
 0001:00065090       ?SetItem@GuiMenuItemText@@UAEXPAVBoundedDrawable@Scrooby@@@Z 00465710 f   guimenuitem.obj
 0001:000650c0       ?SetItemValue@GuiMenuItemText@@UAEXPAVBoundedDrawable@Scrooby@@@Z 00465740 f   guimenuitem.obj
 0001:000650f0       ?SetItemValueIndex@GuiMenuItemText@@UAEXH@Z 00465770 f   guimenuitem.obj
 0001:000650f0       ?GetItemValueIndex@GuiMenuItemSprite@@UBEHXZ 00465770 f   guimenuitem.obj
 0001:00065100       ?GetItemValueIndex@GuiMenuItemText@@UBEHXZ 00465780 f   guimenuitem.obj
 0001:00065100       ?SetItemValueIndex@GuiMenuItemSprite@@UAEXH@Z 00465780 f   guimenuitem.obj
 0001:00065110       ?SetDisplayOutline@GuiMenuItemText@@UAEX_N@Z 00465790 f   guimenuitem.obj
 0001:00065140       ?SetOutlineColour@GuiMenuItemText@@UAEXUpddiColour@@@Z 004657c0 f   guimenuitem.obj
 0001:00065170       ?GetOutlineColour@GuiMenuItemText@@UBE?AUpddiColour@@XZ 004657f0 f   guimenuitem.obj
 0001:00065190       ?SetItem@GuiMenuItemSprite@@UAEXPAVBoundedDrawable@Scrooby@@@Z 00465810 f   guimenuitem.obj
 0001:000651c0       ?SetItemValue@GuiMenuItemSprite@@UAEXPAVBoundedDrawable@Scrooby@@@Z 00465840 f   guimenuitem.obj
 0001:000651f0       ??0GuiMenuItem@@QAE@XZ     00465870 f   guimenuitem.obj
 0001:00065220       ??_EGuiMenuItem@@UAEPAXI@Z 004658a0 f i guimenuitem.obj
 0001:00065220       ??_GGuiMenuItem@@UAEPAXI@Z 004658a0 f i guimenuitem.obj
 0001:00065240       ??0GuiMenuItemText@@QAE@XZ 004658c0 f   guimenuitem.obj
 0001:00065260       ?GetItem@GuiMenuItemText@@UBEPAVBoundedDrawable@Scrooby@@XZ 004658e0 f i guimenuitem.obj
 0001:00065260       ?GetItem@GuiMenuItemSprite@@UBEPAVBoundedDrawable@Scrooby@@XZ 004658e0 f i guimenuitem.obj
 0001:00065280       ?GetItemValue@GuiMenuItemText@@UBEPAVBoundedDrawable@Scrooby@@XZ 00465900 f i guimenuitem.obj
 0001:00065280       ?GetItemValue@GuiMenuItemSprite@@UBEPAVBoundedDrawable@Scrooby@@XZ 00465900 f i guimenuitem.obj
 0001:000652a0       ??0GuiMenuItemSprite@@QAE@XZ 00465920 f   guimenuitem.obj
 0001:000652c0       ??_GGuiMenuItemText@@UAEPAXI@Z 00465940 f i guimenuitem.obj
 0001:000652c0       ??_EGuiMenuItemSprite@@UAEPAXI@Z 00465940 f i guimenuitem.obj
 0001:000652c0       ??_GGuiMenuItemSprite@@UAEPAXI@Z 00465940 f i guimenuitem.obj
 0001:000652c0       ??_EGuiMenuItemText@@UAEPAXI@Z 00465940 f i guimenuitem.obj
 0001:000652e0       ??1GuiMenuItemText@@UAE@XZ 00465960 f i guimenuitem.obj
 0001:000652e0       ??1GuiMenuItemSprite@@UAE@XZ 00465960 f i guimenuitem.obj
 0001:000652f0       ?GetOutlineColour@GuiMenuItemSprite@@UBE?AUpddiColour@@XZ 00465970 f   guimenuitem.obj
 0001:00065300       ??1CGuiScreen@@UAE@XZ      00465980 f   guiscreen.obj
 0001:00065360       ?SetSlidingEnabled@CGuiScreen@@QAEXW4eScreenEffect@@_N@Z 004659e0 f   guiscreen.obj
 0001:00065390       ?SetIrisWipeEnabled@CGuiScreen@@QAEX_N0@Z 00465a10 f   guiscreen.obj
 0001:000653c0       ?Reset3dFEMultiController@CGuiScreen@@SAXXZ 00465a40 f   guiscreen.obj
 0001:000653e0       ?SetButtonVisible@CGuiScreen@@QAEXW4eButtonIcon@@_N@Z 00465a60 f   guiscreen.obj
 0001:00065400       ?IsButtonVisible@CGuiScreen@@QBE_NW4eButtonIcon@@@Z 00465a80 f   guiscreen.obj
 0001:00065420       ?StartTransitionAnimation@CGuiScreen@@QAEXHH_N@Z 00465aa0 f   guiscreen.obj
 0001:000654a0       ?ReloadScreen@CGuiScreen@@QAEXXZ 00465b20 f   guiscreen.obj
 0001:000654c0       ?RestoreScreenCover@CGuiScreen@@QAEXXZ 00465b40 f   guiscreen.obj
 0001:00065510       ?RestoreButtons@CGuiScreen@@QAEXXZ 00465b90 f   guiscreen.obj
 0001:00065540       ?IsWideScreenDisplay@CGuiScreen@@SA_NXZ 00465bc0 f   guiscreen.obj
 0001:00065550       ?ApplyWideScreenCorrectionScale@CGuiScreen@@SAXPAVDrawable@Scrooby@@@Z 00465bd0 f   guiscreen.obj
 0001:000655a0       ?RestoreDefaultFadeTime@CGuiScreen@@IAEXXZ 00465c20 f   guiscreen.obj
 0001:000655b0       ?IrisWipeOpen@CGuiScreen@@IAEXXZ 00465c30 f   guiscreen.obj
 0001:000655d0       ?SetAlphaForLayers@CGuiScreen@@IAEXMPAPAVLayer@Scrooby@@H@Z 00465c50 f   guiscreen.obj
 0001:00065610       ?AutoScaleFrame@CGuiScreen@@IAEXPAVPage@Scrooby@@@Z 00465c90 f   guiscreen.obj
 0001:000657d0       ?FadeIn@CGuiScreen@@AAEXM@Z 00465e50 f   guiscreen.obj
 0001:000658b0       ?FadeOut@CGuiScreen@@AAEXM@Z 00465f30 f   guiscreen.obj
 0001:00065990       ?ZoomIn@CGuiScreen@@AAEXM@Z 00466010 f   guiscreen.obj
 0001:00065a30       ?ZoomOut@CGuiScreen@@AAEXM@Z 004660b0 f   guiscreen.obj
 0001:00065ad0       ?SlideIn@CGuiScreen@@AAEXM@Z 00466150 f   guiscreen.obj
 0001:00065bd0       ?SlideOut@CGuiScreen@@AAEXM@Z 00466250 f   guiscreen.obj
 0001:00065cd0       ?OnIrisWipeClosed@CGuiScreen@@AAEXXZ 00466350 f   guiscreen.obj
 0001:00065d00       ??_GCGuiScreen@@UAEPAXI@Z  00466380 f i guiscreen.obj
 0001:00065d00       ??_ECGuiScreen@@UAEPAXI@Z  00466380 f i guiscreen.obj
 0001:00065d20       ?HandleMessage@CGuiScreen@@UAEXW4eGuiMessage@@II@Z 004663a0 f   guiscreen.obj
 0001:00066280       ?SetFadingEnabled@CGuiScreen@@QAEX_N@Z 00466900 f   guiscreen.obj
 0001:000662d0       ?SetZoomingEnabled@CGuiScreen@@QAEX_N@Z 00466950 f   guiscreen.obj
 0001:00066320       ??0CGuiScreen@@QAE@PAVScreen@Scrooby@@PAVCGuiEntity@@W4eGuiWindowID@CGuiWindow@@I@Z 004669a0 f   guiscreen.obj
 0001:00066600       ??1CGuiScreenMemCardCheck@@UAE@XZ 00466c80 f   guiscreenmemcardcheck.obj
 0001:00066620       ?OnFormatOperationComplete@CGuiScreenMemCardCheck@@UAEXW4radFileError@@@Z 00466ca0 f   guiscreenmemcardcheck.obj
 0001:00066640       ?InitIntro@CGuiScreenMemCardCheck@@MAEXXZ 00466cc0 f   guiscreenmemcardcheck.obj
 0001:00066670       ?InitRunning@CGuiScreenMemCardCheck@@MAEXXZ 00466cf0 f   guiscreenmemcardcheck.obj
 0001:000666a0       ?OnContinue@CGuiScreenMemCardCheck@@AAEXXZ 00466d20 f   guiscreenmemcardcheck.obj
 0001:000666f0       ??0CGuiScreenMemCardCheck@@QAE@PAVScreen@Scrooby@@PAVCGuiEntity@@@Z 00466d70 f   guiscreenmemcardcheck.obj
 0001:000667d0       ??_GCGuiScreenMemCardCheck@@UAEPAXI@Z 00466e50 f i guiscreenmemcardcheck.obj
 0001:000667d0       ??_ECGuiScreenMemCardCheck@@UAEPAXI@Z 00466e50 f i guiscreenmemcardcheck.obj
 0001:000667f0       ?HandleMessage@CGuiScreenMemCardCheck@@UAEXW4eGuiMessage@@II@Z 00466e70 f   guiscreenmemcardcheck.obj
 0001:000669f0       ?OnMemoryCardCheckDone@CGuiScreenMemCardCheck@@UAEXW4radFileError@@W4MediaState@MediaInfo@IRadDrive@@HHH@Z 00467070 f   guiscreenmemcardcheck.obj
 0001:00066a90       ??1CGuiScreenLoadSave@@UAE@XZ 00467110 f   guiscreenmemorycard.obj
 0001:00066aa0       ?HandleMessage@CGuiScreenLoadSave@@UAEXW4eGuiMessage@@II@Z 00467120 f   guiscreenmemorycard.obj
 0001:00066ae0       ?FormatCurrentDrive@CGuiScreenLoadSave@@IAEXXZ 00467160 f   guiscreenmemorycard.obj
 0001:00066b10       ?OnFormatOperationComplete@CGuiScreenLoadSave@@UAEXW4radFileError@@@Z 00467190 f   guiscreenmemorycard.obj
 0001:00066b30       ?UpdateCurrentMemoryDevice@CGuiScreenLoadSave@@IAEXXZ 004671b0 f   guiscreenmemorycard.obj
 0001:00066d30       ??0CGuiScreenMemoryCard@@QAE@PAVScreen@Scrooby@@PAVCGuiEntity@@@Z 004673b0 f   guiscreenmemorycard.obj
 0001:000670c0       ?HasMenu@CGuiScreenMemoryCard@@UAEPAVCGuiMenu@@XZ 00467740 f i guiscreenmemorycard.obj
 0001:000670d0       ??1CGuiScreenMemoryCard@@UAE@XZ 00467750 f   guiscreenmemorycard.obj
 0001:00067140       ?UpdateDeviceList@CGuiScreenMemoryCard@@AAEX_N@Z 004677c0 f   guiscreenmemorycard.obj
 0001:00067500       ?UpdateFreeSpace@CGuiScreenMemoryCard@@AAEXI@Z 00467b80 f   guiscreenmemorycard.obj
 0001:000677e0       ??0CGuiScreenLoadSave@@QAE@PAVScreen@Scrooby@@@Z 00467e60 f   guiscreenmemorycard.obj
 0001:000678d0       ??_ECGuiScreenLoadSave@@UAEPAXI@Z 00467f50 f i guiscreenmemorycard.obj
 0001:000678d0       ??_GCGuiScreenLoadSave@@UAEPAXI@Z 00467f50 f i guiscreenmemorycard.obj
 0001:000678f0       ??_ECGuiScreenMemoryCard@@UAEPAXI@Z 00467f70 f i guiscreenmemorycard.obj
 0001:000678f0       ??_GCGuiScreenMemoryCard@@UAEPAXI@Z 00467f70 f i guiscreenmemorycard.obj
 0001:00067910       ?HandleMessage@CGuiScreenMemoryCard@@UAEXW4eGuiMessage@@II@Z 00467f90 f   guiscreenmemorycard.obj
 0001:00067b20       ?InitIntro@CGuiScreenMemoryCard@@MAEXXZ 004681a0 f   guiscreenmemorycard.obj
 0001:00067ba0       ??0CGuiScreenMessage@@QAE@PAVScreen@Scrooby@@PAVCGuiEntity@@@Z 00468220 f   guiscreenmessage.obj
 0001:00067cc0       ??1CGuiScreenMessage@@UAE@XZ 00468340 f   guiscreenmessage.obj
 0001:00067d30       ?HandleMessage@CGuiScreenMessage@@UAEXW4eGuiMessage@@II@Z 004683b0 f   guiscreenmessage.obj
 0001:00067e60       ?Display@CGuiScreenMessage@@SAXHPAVCGuiEntity@@@Z 004684e0 f   guiscreenmessage.obj
 0001:00067e80       ?ConvertUnicodeToChar@CGuiScreenMessage@@CAXPADPAGH@Z 00468500 f   guiscreenmessage.obj
 0001:00067ed0       ?FormatMessage@CGuiScreenMessage@@SAXPAVText@Scrooby@@PAGH@Z 00468550 f   guiscreenmessage.obj
 0001:00068240       ?InitIntro@CGuiScreenMessage@@MAEXXZ 004688c0 f   guiscreenmessage.obj
 0001:000682a0       ?InitRunning@CGuiScreenMessage@@MAEXXZ 00468920 f   guiscreenmessage.obj
 0001:000682c0       ??_ECGuiScreenMessage@@UAEPAXI@Z 00468940 f i guiscreenmessage.obj
 0001:000682c0       ??_GCGuiScreenMessage@@UAEPAXI@Z 00468940 f i guiscreenmessage.obj
 0001:000682e0       ?GetControllerDisconnectedMessage@CGuiScreenMessage@@SAXHPADH@Z 00468960 f   guiscreenmessage.obj
 0001:00068310       ??0CGuiScreenPrompt@@QAE@PAVScreen@Scrooby@@PAVCGuiEntity@@W4eGuiWindowID@CGuiWindow@@@Z 00468990 f   guiscreenprompt.obj
 0001:00068570       ??1CGuiScreenPrompt@@UAE@XZ 00468bf0 f   guiscreenprompt.obj
 0001:000685e0       ?HandleMessage@CGuiScreenPrompt@@UAEXW4eGuiMessage@@II@Z 00468c60 f   guiscreenprompt.obj
 0001:00068870       ?Display@CGuiScreenPrompt@@SAXHPAVCGuiEntity@@HPAW4ePromptResponse@CGuiMenuPrompt@@@Z 00468ef0 f   guiscreenprompt.obj
 0001:000688c0       ?InitIntro@CGuiScreenPrompt@@MAEXXZ 00468f40 f   guiscreenprompt.obj
 0001:000689a0       ??_GCGuiScreenPrompt@@UAEPAXI@Z 00469020 f i guiscreenprompt.obj
 0001:000689a0       ??_ECGuiScreenPrompt@@UAEPAXI@Z 00469020 f i guiscreenprompt.obj
 0001:000689c0       ?DestroyInstance@CGuiSystem@@SAXXZ 00469040 f   guisystem.obj
 0001:000689e0       ?GetInstance@CGuiSystem@@SAPAV1@XZ 00469060 f   guisystem.obj
 0001:000689f0       ??1CGuiSystem@@EAE@XZ      00469070 f   guisystem.obj
 0001:00068b10       ?OnProjectLoadComplete@CGuiSystem@@UAEXPAVProject@Scrooby@@@Z 00469190 f   guisystem.obj
 0001:00068dd0       ?GetCurrentManager@CGuiSystem@@QBEPAVCGuiManager@@XZ 00469450 f   guisystem.obj
 0001:00068e30       ?RegisterUserInputHandlers@CGuiSystem@@QAEXH@Z 004694b0 f   guisystem.obj
 0001:00068e80       ?UnregisterUserInputHandlers@CGuiSystem@@QAEXH@Z 00469500 f   guisystem.obj
 0001:00068ed0       ?GetUserInputHandler@CGuiSystem@@QBEPAVCGuiUserInputHandler@@H@Z 00469550 f   guisystem.obj
 0001:00068ef0       ?LoadData@CGuiSystem@@UAEXPBEI@Z 00469570 f   guisystem.obj
 0001:00068f10       ?SaveData@CGuiSystem@@UAEXPAEI@Z 00469590 f   guisystem.obj
 0001:00068f20       ?ResetData@CGuiSystem@@UAEXXZ 004695a0 f   guisystem.obj
 0001:00068f30       ?OnReleaseBootUp@CGuiSystem@@AAEXXZ 004695b0 f   guisystem.obj
 0001:00068f90       ?OnInitFrontEnd@CGuiSystem@@AAEXXZ 00469610 f   guisystem.obj
 0001:00068fc0       ?OnReleaseFrontEnd@CGuiSystem@@AAEXXZ 00469640 f   guisystem.obj
 0001:00069020       ?OnInitMiniGame@CGuiSystem@@AAEXXZ 004696a0 f   guisystem.obj
 0001:00069050       ?OnReleaseMiniGame@CGuiSystem@@AAEXXZ 004696d0 f   guisystem.obj
 0001:000690b0       ?OnInitInGame@CGuiSystem@@AAEXXZ 00469730 f   guisystem.obj
 0001:00069140       ?OnReleaseInGame@CGuiSystem@@AAEXXZ 004697c0 f   guisystem.obj
 0001:000691d0       ??0CGuiSystem@@AAE@XZ      00469850 f   guisystem.obj
 0001:000692b0       ??_GCGuiSystem@@EAEPAXI@Z  00469930 f i guisystem.obj
 0001:000692b0       ??_ECGuiSystem@@EAEPAXI@Z  00469930 f i guisystem.obj
 0001:000692d0       ?Init@CGuiSystem@@QAEXXZ   00469950 f   guisystem.obj
 0001:00069480       ?Update@CGuiSystem@@QAEXI@Z 00469b00 f   guisystem.obj
 0001:00069500       ?HandleMessage@CGuiSystem@@UAEXW4eGuiMessage@@II@Z 00469b80 f   guisystem.obj
 0001:000696d0       ?GotoScreen@CGuiSystem@@QAEXIIII@Z 00469d50 f   guisystem.obj
 0001:00069710       ?CreateInstance@CGuiSystem@@SAPAV1@XZ 00469d90 f   guisystem.obj
 0001:00069770       ??0CGuiTextBible@@QAE@XZ   00469df0 f   guitextbible.obj
 0001:00069780       ??1CGuiTextBible@@UAE@XZ   00469e00 f   guitextbible.obj
 0001:000697a0       ?SetTextBible@CGuiTextBible@@QAEXPBD@Z 00469e20 f   guitextbible.obj
 0001:000697c0       ?GetLocalizedText@CGuiTextBible@@SAPAGPBD@Z 00469e40 f   guitextbible.obj
 0001:000697d0       ?SetCurrentLanguage@CGuiTextBible@@SAXW4XLLanguage@Scrooby@@@Z 00469e50 f   guitextbible.obj
 0001:00069800       ??_ECGuiTextBible@@UAEPAXI@Z 00469e80 f i guitextbible.obj
 0001:00069800       ??_GCGuiTextBible@@UAEPAXI@Z 00469e80 f i guitextbible.obj
 0001:00069820       ??1CGuiUserInputHandler@@UAE@XZ 00469ea0 f   guiuserinputhandler.obj
 0001:00069830       ?Left@CGuiUserInputHandler@@QAEXH@Z 00469eb0 f   guiuserinputhandler.obj
 0001:00069850       ?Right@CGuiUserInputHandler@@QAEXH@Z 00469ed0 f   guiuserinputhandler.obj
 0001:00069870       ?Up@CGuiUserInputHandler@@QAEXH@Z 00469ef0 f   guiuserinputhandler.obj
 0001:00069890       ?Down@CGuiUserInputHandler@@QAEXH@Z 00469f10 f   guiuserinputhandler.obj
 0001:000698b0       ?Start@CGuiUserInputHandler@@QAEXH@Z 00469f30 f   guiuserinputhandler.obj
 0001:000698d0       ?Select@CGuiUserInputHandler@@QAEXH@Z 00469f50 f   guiuserinputhandler.obj
 0001:000698f0       ?Back@CGuiUserInputHandler@@QAEXH@Z 00469f70 f   guiuserinputhandler.obj
 0001:00069910       ?AuxX@CGuiUserInputHandler@@QAEXH@Z 00469f90 f   guiuserinputhandler.obj
 0001:00069930       ?AuxY@CGuiUserInputHandler@@QAEXH@Z 00469fb0 f   guiuserinputhandler.obj
 0001:00069950       ?L1@CGuiUserInputHandler@@QAEXH@Z 00469fd0 f   guiuserinputhandler.obj
 0001:00069970       ?R1@CGuiUserInputHandler@@QAEXH@Z 00469ff0 f   guiuserinputhandler.obj
 0001:00069990       ?OnControllerConnect@CGuiUserInputHandler@@UAEXH@Z 0046a010 f   guiuserinputhandler.obj
 0001:000699c0       ?OnButton@CGuiUserInputHandler@@UAEXHHPBVButton@@@Z 0046a040 f   guiuserinputhandler.obj
 0001:00069b30       ?OnButtonUp@CGuiUserInputHandler@@UAEXHHPBVButton@@@Z 0046a1b0 f   guiuserinputhandler.obj
 0001:00069b50       ?OnButtonDown@CGuiUserInputHandler@@UAEXHHPBVButton@@@Z 0046a1d0 f   guiuserinputhandler.obj
 0001:00069cc0       ?LoadControllerMappings@CGuiUserInputHandler@@UAEXI@Z 0046a340 f   guiuserinputhandler.obj
 0001:00069d00       ?IsXAxisOnLeft@CGuiUserInputHandler@@QBE_NXZ 0046a380 f   guiuserinputhandler.obj
 0001:00069d20       ?IsXAxisOnRight@CGuiUserInputHandler@@QBE_NXZ 0046a3a0 f   guiuserinputhandler.obj
 0001:00069d40       ?IsYAxisOnUp@CGuiUserInputHandler@@QBE_NXZ 0046a3c0 f   guiuserinputhandler.obj
 0001:00069d60       ?IsYAxisOnDown@CGuiUserInputHandler@@QBE_NXZ 0046a3e0 f   guiuserinputhandler.obj
 0001:00069d80       ?ResetRepeatableButtons@CGuiUserInputHandler@@AAEXXZ 0046a400 f   guiuserinputhandler.obj
 0001:00069dc0       ??0CGuiUserInputHandler@@QAE@XZ 0046a440 f   guiuserinputhandler.obj
 0001:00069e10       ??_ECGuiUserInputHandler@@UAEPAXI@Z 0046a490 f i guiuserinputhandler.obj
 0001:00069e10       ??_GCGuiUserInputHandler@@UAEPAXI@Z 0046a490 f i guiuserinputhandler.obj
 0001:00069e30       ?OnControllerDisconnect@CGuiUserInputHandler@@UAEXH@Z 0046a4b0 f   guiuserinputhandler.obj
 0001:00069e60       ?Update@CGuiUserInputHandler@@QAEXII@Z 0046a4e0 f   guiuserinputhandler.obj
 0001:00069fe0       ??0CGuiWindow@@QAE@W4eGuiWindowID@0@PAVCGuiEntity@@@Z 0046a660 f   guiwindow.obj
 0001:0006a010       ??1CGuiWindow@@UAE@XZ      0046a690 f   guiwindow.obj
 0001:0006a020       ?HandleMessage@CGuiWindow@@UAEXW4eGuiMessage@@II@Z 0046a6a0 f   guiwindow.obj
 0001:0006a130       ?ForceClearTransitions@CGuiWindow@@QAEXXZ 0046a7b0 f   guiwindow.obj
 0001:0006a140       ??_GCGuiWindow@@UAEPAXI@Z  0046a7c0 f i guiwindow.obj
 0001:0006a140       ??_ECGuiWindow@@UAEPAXI@Z  0046a7c0 f i guiwindow.obj
 0001:0006a160       ??0CGuiManagerBackEnd@@QAE@PAVProject@Scrooby@@PAVCGuiEntity@@@Z 0046a7e0 f   guimanagerbackend.obj
 0001:0006a1a0       ??1CGuiManagerBackEnd@@UAE@XZ 0046a820 f   guimanagerbackend.obj
 0001:0006a220       ?Populate@CGuiManagerBackEnd@@UAEXXZ 0046a8a0 f   guimanagerbackend.obj
 0001:0006a350       ?Start@CGuiManagerBackEnd@@UAEXW4eGuiWindowID@CGuiWindow@@@Z 0046a9d0 f   guimanagerbackend.obj
 0001:0006a360       ?GotoLoadingScreen@CGuiManagerBackEnd@@AAEXI@Z 0046a9e0 f   guimanagerbackend.obj
 0001:0006a3a0       ??_ECGuiManagerBackEnd@@WBA@AEPAXI@Z 0046aa20 f i guimanagerbackend.obj
 0001:0006a3b0       ??_ECGuiManagerBackEnd@@UAEPAXI@Z 0046aa30 f i guimanagerbackend.obj
 0001:0006a3b0       ??_GCGuiManagerBackEnd@@UAEPAXI@Z 0046aa30 f i guimanagerbackend.obj
 0001:0006a3d0       ?HandleMessage@CGuiManagerBackEnd@@UAEXW4eGuiMessage@@II@Z 0046aa50 f   guimanagerbackend.obj
 0001:0006a5c0       ??0CGuiScreenDemo@@QAE@PAVScreen@Scrooby@@PAVCGuiEntity@@@Z 0046ac40 f   guiscreendemo.obj
 0001:0006a650       ??1CGuiScreenDemo@@UAE@XZ  0046acd0 f   guiscreendemo.obj
 0001:0006a660       ?HandleMessage@CGuiScreenDemo@@UAEXW4eGuiMessage@@II@Z 0046ace0 f   guiscreendemo.obj
 0001:0006a750       ?InitIntro@CGuiScreenDemo@@MAEXXZ 0046add0 f   guiscreendemo.obj
 0001:0006a780       ??_GCGuiScreenDemo@@UAEPAXI@Z 0046ae00 f i guiscreendemo.obj
 0001:0006a780       ??_ECGuiScreenDemo@@UAEPAXI@Z 0046ae00 f i guiscreendemo.obj
 0001:0006a7a0       ?LoadResources@CGuiScreenLoading@@QAEXXZ 0046ae20 f   guiscreenloading.obj
 0001:0006a850       ?InitIntro@CGuiScreenLoading@@MAEXXZ 0046aed0 f   guiscreenloading.obj
 0001:0006a920       ??0CGuiScreenLoading@@QAE@PAVScreen@Scrooby@@PAVCGuiEntity@@@Z 0046afa0 f   guiscreenloading.obj
 0001:0006abd0       ??1CGuiScreenLoading@@UAE@XZ 0046b250 f   guiscreenloading.obj
 0001:0006ac50       ?HandleMessage@CGuiScreenLoading@@UAEXW4eGuiMessage@@II@Z 0046b2d0 f   guiscreenloading.obj
 0001:0006af10       ?InitOutro@CGuiScreenLoading@@MAEXXZ 0046b590 f   guiscreenloading.obj
 0001:0006b000       ?safe_cast@?$SafeCast@VtSprite@@@radLoadInventory@@UAEPAUIRefCount@@PAU3@@Z 0046b680 f i guiscreenloading.obj
 0001:0006b020       ??_GCGuiScreenLoading@@UAEPAXI@Z 0046b6a0 f i guiscreenloading.obj
 0001:0006b020       ??_ECGuiScreenLoading@@UAEPAXI@Z 0046b6a0 f i guiscreenloading.obj
 0001:0006b040       ??$find@VtSprite@@@p3d@@YAPAVtSprite@@PAVtEntityStore@@ABVtName@@@Z 0046b6c0 f i guiscreenloading.obj
 0001:0006b110       ??$find@VtSprite@@@p3d@@YAPAVtSprite@@PAVtEntityStore@@PBD@Z 0046b790 f i guiscreenloading.obj
 0001:0006b180       ?OnProcessRequestsComplete@CGuiScreenLoading@@UAEXPAX@Z 0046b800 f   guiscreenloading.obj
 0001:0006b270       ?LoadResources@CGuiScreenLoadingFE@@QAEXXZ 0046b8f0 f   guiscreenloadingfe.obj
 0001:0006b300       ?InitIntro@CGuiScreenLoadingFE@@MAEXXZ 0046b980 f   guiscreenloadingfe.obj
 0001:0006b380       ?GetCurrentMemoryUsage@CGuiScreenLoadingFE@@ABEMW4ContextEnum@@@Z 0046ba00 f   guiscreenloadingfe.obj
 0001:0006b440       ??0CGuiScreenLoadingFE@@QAE@PAVScreen@Scrooby@@PAVCGuiEntity@@@Z 0046bac0 f   guiscreenloadingfe.obj
 0001:0006b640       ??1CGuiScreenLoadingFE@@UAE@XZ 0046bcc0 f   guiscreenloadingfe.obj
 0001:0006b6c0       ?HandleMessage@CGuiScreenLoadingFE@@UAEXW4eGuiMessage@@II@Z 0046bd40 f   guiscreenloadingfe.obj
 0001:0006b880       ?InitOutro@CGuiScreenLoadingFE@@MAEXXZ 0046bf00 f   guiscreenloadingfe.obj
 0001:0006b940       ??_GCGuiScreenLoadingFE@@UAEPAXI@Z 0046bfc0 f i guiscreenloadingfe.obj
 0001:0006b940       ??_ECGuiScreenLoadingFE@@UAEPAXI@Z 0046bfc0 f i guiscreenloadingfe.obj
 0001:0006b960       ?OnProcessRequestsComplete@CGuiScreenLoadingFE@@UAEXPAX@Z 0046bfe0 f   guiscreenloadingfe.obj
 0001:0006ba70       ??0CGuiManagerFrontEnd@@QAE@PAVProject@Scrooby@@PAVCGuiEntity@@@Z 0046c0f0 f   guimanagerfrontend.obj
 0001:0006bac0       ??1CGuiManagerFrontEnd@@UAE@XZ 0046c140 f   guimanagerfrontend.obj
 0001:0006bae0       ?Populate@CGuiManagerFrontEnd@@UAEXXZ 0046c160 f   guimanagerfrontend.obj
 0001:0006c330       ?Start@CGuiManagerFrontEnd@@UAEXW4eGuiWindowID@CGuiWindow@@@Z 0046c9b0 f   guimanagerfrontend.obj
 0001:0006c420       ?OnControllerConnected@CGuiManagerFrontEnd@@AAEXH@Z 0046caa0 f   guimanagerfrontend.obj
 0001:0006c470       ?OnControllerDisconnected@CGuiManagerFrontEnd@@AAEXH@Z 0046caf0 f   guimanagerfrontend.obj
 0001:0006c520       ?StartIntroMovie@CGuiManagerFrontEnd@@AAEXXZ 0046cba0 f   guimanagerfrontend.obj
 0001:0006c550       ??_ECGuiManagerFrontEnd@@WBA@AEPAXI@Z 0046cbd0 f i guimanagerfrontend.obj
 0001:0006c560       ??_ECGuiManagerFrontEnd@@UAEPAXI@Z 0046cbe0 f i guimanagerfrontend.obj
 0001:0006c560       ??_GCGuiManagerFrontEnd@@UAEPAXI@Z 0046cbe0 f i guimanagerfrontend.obj
 0001:0006c580       ?HandleMessage@CGuiManagerFrontEnd@@UAEXW4eGuiMessage@@II@Z 0046cc00 f   guimanagerfrontend.obj
 0001:0006c970       ??0CGuiScreenCardGallery@@QAE@PAVScreen@Scrooby@@PAVCGuiEntity@@W4eGuiWindowID@CGuiWindow@@@Z 0046cff0 f   guiscreencardgallery.obj
 0001:0006ce20       ??1CGuiScreenCardGallery@@UAE@XZ 0046d4a0 f   guiscreencardgallery.obj
 0001:0006ceb0       ?UpdateCards@CGuiScreenCardGallery@@IAEXI@Z 0046d530 f   guiscreencardgallery.obj
 0001:0006cfb0       ?UpdateCardTransition@CGuiScreenCardGallery@@AAEXI_N@Z 0046d630 f   guiscreencardgallery.obj
 0001:0006d220       ?UpdateViewCard@CGuiScreenCardGallery@@AAEXI@Z 0046d8a0 f   guiscreencardgallery.obj
 0001:0006d2c0       ?SetCurrentViewCard@CGuiScreenCardGallery@@AAEXI@Z 0046d940 f   guiscreencardgallery.obj
 0001:0006d3d0       ??_ECGuiScreenCardGallery@@UAEPAXI@Z 0046da50 f i guiscreencardgallery.obj
 0001:0006d3d0       ??_GCGuiScreenCardGallery@@UAEPAXI@Z 0046da50 f i guiscreencardgallery.obj
 0001:0006d3f0       ?HandleMessage@CGuiScreenCardGallery@@UAEXW4eGuiMessage@@II@Z 0046da70 f   guiscreencardgallery.obj
 0001:0006d6b0       ?InitIntro@CGuiScreenCardGallery@@MAEXXZ 0046dd30 f   guiscreencardgallery.obj
 0001:0006d6d0       ??0CGuiScreenController@@QAE@PAVScreen@Scrooby@@PAVCGuiEntity@@@Z 0046dd50 f   guiscreencontroller.obj
 0001:0006d8f0       ??1CGuiScreenController@@UAE@XZ 0046df70 f   guiscreencontroller.obj
 0001:0006d960       ?InitIntro@CGuiScreenController@@MAEXXZ 0046dfe0 f   guiscreencontroller.obj
 0001:0006d990       ?InitOutro@CGuiScreenController@@MAEXXZ 0046e010 f   guiscreencontroller.obj
 0001:0006d9c0       ?UpdateLabels@CGuiScreenController@@AAEXXZ 0046e040 f   guiscreencontroller.obj
 0001:0006da10       ??_ECGuiScreenController@@UAEPAXI@Z 0046e090 f i guiscreencontroller.obj
 0001:0006da10       ??_GCGuiScreenController@@UAEPAXI@Z 0046e090 f i guiscreencontroller.obj
 0001:0006da30       ?HandleMessage@CGuiScreenController@@UAEXW4eGuiMessage@@II@Z 0046e0b0 f   guiscreencontroller.obj
 0001:0006db50       ??1CGuiScreenLoadGame@@UAE@XZ 0046e1d0 f   guiscreenloadgame.obj
 0001:0006dbe0       ?HandleMessage@CGuiScreenLoadGame@@UAEXW4eGuiMessage@@II@Z 0046e260 f   guiscreenloadgame.obj
 0001:0006e000       ?OnLoadGameComplete@CGuiScreenLoadGame@@UAEXW4radFileError@@@Z 0046e680 f   guiscreenloadgame.obj
 0001:0006e050       ?InitIntro@CGuiScreenLoadGame@@MAEXXZ 0046e6d0 f   guiscreenloadgame.obj
 0001:0006e3c0       ?LoadGame@CGuiScreenLoadGame@@MAEXXZ 0046ea40 f   guiscreenloadgame.obj
 0001:0006e3f0       ??1CGuiScreenAutoLoad@@UAE@XZ 0046ea70 f   guiscreenloadgame.obj
 0001:0006e410       ?OnLoadGameComplete@CGuiScreenAutoLoad@@UAEXW4radFileError@@@Z 0046ea90 f   guiscreenloadgame.obj
 0001:0006e450       ?InitRunning@CGuiScreenAutoLoad@@MAEXXZ 0046ead0 f   guiscreenloadgame.obj
 0001:0006e560       ?LoadGame@CGuiScreenAutoLoad@@MAEXXZ 0046ebe0 f   guiscreenloadgame.obj
 0001:0006e590       ??_ECGuiScreenLoadGame@@WJI@AEPAXI@Z 0046ec10 f i guiscreenloadgame.obj
 0001:0006e5a0       ?HandleMessage@CGuiScreenLoadGame@@WJI@AEXW4eGuiMessage@@II@Z 0046ec20 f i guiscreenloadgame.obj
 0001:0006e5b0       ??_ECGuiScreenAutoLoad@@WJI@AEPAXI@Z 0046ec30 f i guiscreenloadgame.obj
 0001:0006e5c0       ??0CGuiScreenLoadGame@@QAE@PAVScreen@Scrooby@@PAVCGuiEntity@@W4eGuiWindowID@CGuiWindow@@@Z 0046ec40 f   guiscreenloadgame.obj
 0001:0006e760       ??_ECGuiScreenLoadGame@@UAEPAXI@Z 0046ede0 f i guiscreenloadgame.obj
 0001:0006e760       ??_GCGuiScreenLoadGame@@UAEPAXI@Z 0046ede0 f i guiscreenloadgame.obj
 0001:0006e780       ?HandleErrorResponse@CGuiScreenLoadGame@@MAEXW4ePromptResponse@CGuiMenuPrompt@@@Z 0046ee00 f   guiscreenloadgame.obj
 0001:0006e870       ??0CGuiScreenAutoLoad@@QAE@PAVScreen@Scrooby@@PAVCGuiEntity@@@Z 0046eef0 f   guiscreenloadgame.obj
 0001:0006e8b0       ??_ECGuiScreenAutoLoad@@UAEPAXI@Z 0046ef30 f i guiscreenloadgame.obj
 0001:0006e8b0       ??_GCGuiScreenAutoLoad@@UAEPAXI@Z 0046ef30 f i guiscreenloadgame.obj
 0001:0006e8d0       ?HandleErrorResponse@CGuiScreenAutoLoad@@MAEXW4ePromptResponse@CGuiMenuPrompt@@@Z 0046ef50 f   guiscreenloadgame.obj
 0001:0006e920       ??1CGuiScreenMainMenu@@UAE@XZ 0046efa0 f   guiscreenmainmenu.obj
 0001:0006e9c0       ?HasMenu@CGuiScreenMainMenu@@UAEPAVCGuiMenu@@XZ 0046f040 f i guiscreenmainmenu.obj
 0001:0006e9c0       ?HasMenu@CGuiScreenController@@UAEPAVCGuiMenu@@XZ 0046f040 f i guiscreencontroller.obj
 0001:0006e9c0       ?HasMenu@CGuiScreenViewMovies@@UAEPAVCGuiMenu@@XZ 0046f040 f i guiscreenviewmovies.obj
 0001:0006e9c0       ?HasMenu@CGuiScreenScrapBookContents@@UAEPAVCGuiMenu@@XZ 0046f040 f i guiscreenscrapbookcontents.obj
 0001:0006e9c0       ?HasMenu@CGuiScreenSound@@UAEPAVCGuiMenu@@XZ 0046f040 f i guiscreensound.obj
 0001:0006e9c0       ?HasMenu@CGuiScreenScrapBook@@UAEPAVCGuiMenu@@XZ 0046f040 f i guiscreenscrapbook.obj
 0001:0006e9c0       ?GetNumDumpZones@ZoneEventLocator@@QAEHXZ 0046f040 f i zoneeventlocator.obj
 0001:0006e9c0       ?HasMenu@CGuiScreenMiniPause@@UAEPAVCGuiMenu@@XZ 0046f040 f i guiscreenminipause.obj
 0001:0006e9c0       ?HasMenu@CGuiScreenPrompt@@UAEPAVCGuiMenu@@XZ 0046f040 f i guiscreenprompt.obj
 0001:0006e9c0       ?HasMenu@CGuiScreenLanguage@@UAEPAVCGuiMenu@@XZ 0046f040 f i guiscreenlanguage.obj
 0001:0006e9c0       ?HasMenu@CGuiScreenPauseOptions@@UAEPAVCGuiMenu@@XZ 0046f040 f i guiscreenpauseoptions.obj
 0001:0006e9c0       ?HasMenu@CGuiScreenPause@@UAEPAVCGuiMenu@@XZ 0046f040 f i guiscreenpause.obj
 0001:0006e9c0       ?HasMenu@CGuiScreenSplash@@UAEPAVCGuiMenu@@XZ 0046f040 f i guiscreensplash.obj
 0001:0006e9c0       ?HasMenu@CGuiScreenMessage@@UAEPAVCGuiMenu@@XZ 0046f040 f i guiscreenmessage.obj
 0001:0006e9d0       ?InitMenu@CGuiScreenMainMenu@@QAEXXZ 0046f050 f   guiscreenmainmenu.obj
 0001:0006ea10       ?InitIntro@CGuiScreenMainMenu@@MAEXXZ 0046f090 f   guiscreenmainmenu.obj
 0001:0006ea30       ?UpdateIntro@CGuiScreenMainMenu@@IAEXI@Z 0046f0b0 f   guiscreenmainmenu.obj
 0001:0006ea90       ?UpdateOutro@CGuiScreenMainMenu@@IAEXI@Z 0046f110 f   guiscreenmainmenu.obj
 0001:0006ec20       ?TurnOnGlowItems@CGuiScreenMainMenu@@AAEXI@Z 0046f2a0 f   guiscreenmainmenu.obj
 0001:0006ec70       ?OnNewGameSelected@CGuiScreenMainMenu@@AAEXW4LevelEnum@RenderEnums@@W4MissionEnum@3@@Z 0046f2f0 f   guiscreenmainmenu.obj
 0001:0006ed10       ?OnResumeGameSelected@CGuiScreenMainMenu@@AAEXXZ 0046f390 f   guiscreenmainmenu.obj
 0001:0006ed40       ?OnMiniGameSelected@CGuiScreenMainMenu@@AAEXXZ 0046f3c0 f   guiscreenmainmenu.obj
 0001:0006ed70       ??0CGuiScreenIntroTransition@@QAE@PAVScreen@Scrooby@@PAVCGuiEntity@@@Z 0046f3f0 f   guiscreenmainmenu.obj
 0001:0006ee50       ??1CGuiScreenIntroTransition@@UAE@XZ 0046f4d0 f   guiscreenmainmenu.obj
 0001:0006ee60       ?HandleMessage@CGuiScreenIntroTransition@@UAEXW4eGuiMessage@@II@Z 0046f4e0 f   guiscreenmainmenu.obj
 0001:0006efe0       ?InitIntro@CGuiScreenIntroTransition@@MAEXXZ 0046f660 f   guiscreenmainmenu.obj
 0001:0006f030       ?InitRunning@CGuiScreenIntroTransition@@MAEXXZ 0046f6b0 f   guiscreenmainmenu.obj
 0001:0006f080       ??0CGuiScreenMainMenu@@QAE@PAVScreen@Scrooby@@PAVCGuiEntity@@@Z 0046f700 f   guiscreenmainmenu.obj
 0001:0006f380       ??_GCGuiScreenMainMenu@@UAEPAXI@Z 0046fa00 f i guiscreenmainmenu.obj
 0001:0006f380       ??_ECGuiScreenMainMenu@@UAEPAXI@Z 0046fa00 f i guiscreenmainmenu.obj
 0001:0006f3a0       ?InitRunning@CGuiScreenMainMenu@@MAEXXZ 0046fa20 f   guiscreenmainmenu.obj
 0001:0006f3f0       ?InitOutro@CGuiScreenMainMenu@@MAEXXZ 0046fa70 f   guiscreenmainmenu.obj
 0001:0006f420       ?UpdateGags@CGuiScreenMainMenu@@AAEXI@Z 0046faa0 f   guiscreenmainmenu.obj
 0001:0006f780       ??_ECGuiScreenIntroTransition@@UAEPAXI@Z 0046fe00 f i guiscreenmainmenu.obj
 0001:0006f780       ??_GCGuiScreenIntroTransition@@UAEPAXI@Z 0046fe00 f i guiscreenmainmenu.obj
 0001:0006f7a0       ?UpdateRunning@CGuiScreenMainMenu@@IAEXI@Z 0046fe20 f   guiscreenmainmenu.obj
 0001:0006f7d0       ?HandleMessage@CGuiScreenMainMenu@@UAEXW4eGuiMessage@@II@Z 0046fe50 f   guiscreenmainmenu.obj
 0001:0006fb40       ?OnUpdate@CGuiScreenMissionGallery@@AAEXI@Z 004701c0 f   guiscreenmissiongallery.obj
 0001:0006ffa0       ?LoadMissionImages@CGuiScreenMissionGallery@@AAEHXZ 00470620 f   guiscreenmissiongallery.obj
 0001:00070160       ??0CGuiScreenMissionGallery@@QAE@PAVScreen@Scrooby@@PAVCGuiEntity@@@Z 004707e0 f   guiscreenmissiongallery.obj
 0001:00070490       ??1CGuiScreenMissionGallery@@UAE@XZ 00470b10 f   guiscreenmissiongallery.obj
 0001:00070520       ?InitIntro@CGuiScreenMissionGallery@@MAEXXZ 00470ba0 f   guiscreenmissiongallery.obj
 0001:00070540       ?UnloadMissionImages@CGuiScreenMissionGallery@@AAEXXZ 00470bc0 f   guiscreenmissiongallery.obj
 0001:000705f0       ??_GCGuiScreenMissionGallery@@UAEPAXI@Z 00470c70 f i guiscreenmissiongallery.obj
 0001:000705f0       ??_ECGuiScreenMissionGallery@@UAEPAXI@Z 00470c70 f i guiscreenmissiongallery.obj
 0001:00070610       ?OnStartMission@CGuiScreenMissionGallery@@AAEXXZ 00470c90 f   guiscreenmissiongallery.obj
 0001:00070680       ?HandleMessage@CGuiScreenMissionGallery@@UAEXW4eGuiMessage@@II@Z 00470d00 f   guiscreenmissiongallery.obj
 0001:00070880       ?OnProcessRequestsComplete@CGuiScreenMissionGallery@@UAEXPAX@Z 00470f00 f   guiscreenmissiongallery.obj
 0001:00070a30       ??1CGuiScreenOptions@@UAE@XZ 004710b0 f   guiscreenoptions.obj
 0001:00070ab0       ?InitIntro@CGuiScreenOptions@@MAEXXZ 00471130 f   guiscreenoptions.obj
 0001:00070ae0       ?InitOutro@CGuiScreenOptions@@MAEXXZ 00471160 f   guiscreenoptions.obj
 0001:00070ae0       ?InitOutro@CGuiScreenPauseOptions@@MAEXXZ 00471160 f   guiscreenpauseoptions.obj
 0001:00070af0       ?UpdateCheatsDisplay@CGuiScreenOptions@@AAEXH@Z 00471170 f   guiscreenoptions.obj
 0001:00070c30       ??0CGuiScreenOptions@@QAE@PAVScreen@Scrooby@@PAVCGuiEntity@@@Z 004712b0 f   guiscreenoptions.obj
 0001:00070f40       ??_ECGuiScreenOptions@@UAEPAXI@Z 004715c0 f i guiscreenoptions.obj
 0001:00070f40       ??_GCGuiScreenOptions@@UAEPAXI@Z 004715c0 f i guiscreenoptions.obj
 0001:00070f60       ?OnCheatEntered@CGuiScreenOptions@@UAEXW4eCheatID@@_N@Z 004715e0 f   guiscreenoptions.obj
 0001:00070fa0       ?ProgressiveModeTestBegin@CGuiScreenOptions@@AAEXXZ 00471620 f   guiscreenoptions.obj
 0001:00070fc0       ?OnProgressiveModeTestEnd@CGuiScreenOptions@@AAEXXZ 00471640 f   guiscreenoptions.obj
 0001:00070fe0       ?HandleMessage@CGuiScreenOptions@@UAEXW4eGuiMessage@@II@Z 00471660 f   guiscreenoptions.obj
 0001:000712a0       ??1CGuiScreenPlayMovie@@UAE@XZ 00471920 f   guiscreenplaymovie.obj
 0001:000712c0       ?HandleMessage@CGuiScreenPlayMovie@@UAEXW4eGuiMessage@@II@Z 00471940 f   guiscreenplaymovie.obj
 0001:00071370       ?SetMovieToPlay@CGuiScreenPlayMovie@@QAEXPBD_N1@Z 004719f0 f   guiscreenplaymovie.obj
 0001:00071400       ?OnPresentationEventBegin@CGuiScreenPlayMovie@@UAEXPAVPresentationEvent@@@Z 00471a80 f   guiscreenplaymovie.obj
 0001:00071410       ?OnPresentationEventEnd@CGuiScreenPlayMovie@@UAEXPAVPresentationEvent@@@Z 00471a90 f   guiscreenplaymovie.obj
 0001:000714c0       ?InitIntro@CGuiScreenPlayMovie@@MAEXXZ 00471b40 f   guiscreenplaymovie.obj
 0001:000714f0       ??0CGuiScreenPlayMovie@@QAE@PAVScreen@Scrooby@@PAVCGuiEntity@@W4eGuiWindowID@CGuiWindow@@@Z 00471b70 f   guiscreenplaymovie.obj
 0001:000715b0       ??_GCGuiScreenPlayMovie@@UAEPAXI@Z 00471c30 f i guiscreenplaymovie.obj
 0001:000715b0       ??_ECGuiScreenPlayMovie@@UAEPAXI@Z 00471c30 f i guiscreenplaymovie.obj
 0001:000715d0       ?InitRunning@CGuiScreenPlayMovie@@MAEXXZ 00471c50 f   guiscreenplaymovie.obj
 0001:00071640       ?InitOutro@CGuiScreenPlayMovie@@MAEXXZ 00471cc0 f   guiscreenplaymovie.obj
 0001:000716a0       ??0CGuiScreenScrapBook@@QAE@PAVScreen@Scrooby@@PAVCGuiEntity@@@Z 00471d20 f   guiscreenscrapbook.obj
 0001:00071800       ??1CGuiScreenScrapBook@@UAE@XZ 00471e80 f   guiscreenscrapbook.obj
 0001:00071870       ?InitIntro@CGuiScreenScrapBook@@MAEXXZ 00471ef0 f   guiscreenscrapbook.obj
 0001:000718b0       ?OnMenuSelectionMade@CGuiScreenScrapBook@@AAEXW4eMenuItem@1@@Z 00471f30 f   guiscreenscrapbook.obj
 0001:00071900       ??_ECGuiScreenScrapBook@@UAEPAXI@Z 00471f80 f i guiscreenscrapbook.obj
 0001:00071900       ??_GCGuiScreenScrapBook@@UAEPAXI@Z 00471f80 f i guiscreenscrapbook.obj
 0001:00071920       ?HandleMessage@CGuiScreenScrapBook@@UAEXW4eGuiMessage@@II@Z 00471fa0 f   guiscreenscrapbook.obj
 0001:00071990       ??0CGuiScreenScrapBookContents@@QAE@PAVScreen@Scrooby@@PAVCGuiEntity@@@Z 00472010 f   guiscreenscrapbookcontents.obj
 0001:00071e80       ??1CGuiScreenScrapBookContents@@UAE@XZ 00472500 f   guiscreenscrapbookcontents.obj
 0001:00071ef0       ?SetLevelBarVisible@CGuiScreenScrapBookContents@@QAEX_N@Z 00472570 f   guiscreenscrapbookcontents.obj
 0001:00071f10       ?InitRunning@CGuiScreenScrapBookContents@@MAEXXZ 00472590 f   guiscreenscrapbookcontents.obj
 0001:00071f20       ?OnLevelSelectionChange@CGuiScreenScrapBookContents@@AAEXH@Z 004725a0 f   guiscreenscrapbookcontents.obj
 0001:00072150       ?OnMenuSelectionMade@CGuiScreenScrapBookContents@@AAEXW4eMenuItem@1@@Z 004727d0 f   guiscreenscrapbookcontents.obj
 0001:000721f0       ??_GCGuiScreenScrapBookContents@@UAEPAXI@Z 00472870 f i guiscreenscrapbookcontents.obj
 0001:000721f0       ??_ECGuiScreenScrapBookContents@@UAEPAXI@Z 00472870 f i guiscreenscrapbookcontents.obj
 0001:00072210       ?HandleMessage@CGuiScreenScrapBookContents@@UAEXW4eGuiMessage@@II@Z 00472890 f   guiscreenscrapbookcontents.obj
 0001:000723f0       ?InitIntro@CGuiScreenScrapBookContents@@MAEXXZ 00472a70 f   guiscreenscrapbookcontents.obj
 0001:00072430       ??0CGuiScreenScrapBookStats@@QAE@PAVScreen@Scrooby@@PAVCGuiEntity@@@Z 00472ab0 f   guiscreenscrapbookstats.obj
 0001:00072630       ??1CGuiScreenScrapBookStats@@UAE@XZ 00472cb0 f   guiscreenscrapbookstats.obj
 0001:00072640       ?HandleMessage@CGuiScreenScrapBookStats@@UAEXW4eGuiMessage@@II@Z 00472cc0 f   guiscreenscrapbookstats.obj
 0001:00072680       ?InitIntro@CGuiScreenScrapBookStats@@MAEXXZ 00472d00 f   guiscreenscrapbookstats.obj
 0001:000729d0       ??_ECGuiScreenScrapBookStats@@UAEPAXI@Z 00473050 f i guiscreenscrapbookstats.obj
 0001:000729d0       ??_GCGuiScreenScrapBookStats@@UAEPAXI@Z 00473050 f i guiscreenscrapbookstats.obj
 0001:000729f0       ?OnMenuSelectionChange@CGuiScreenSkinGallery@@AAEXH@Z 00473070 f   guiscreenskingallery.obj
 0001:00072a60       ?OnMenuSelectionMade@CGuiScreenSkinGallery@@AAEXH@Z 004730e0 f   guiscreenskingallery.obj
 0001:00072c10       ?SetMenuAlpha@CGuiScreenSkinGallery@@AAEXM@Z 00473290 f   guiscreenskingallery.obj
 0001:00072c60       ?Load2DImages@CGuiScreenSkinGallery@@AAEXXZ 004732e0 f   guiscreenskingallery.obj
 0001:00072dc0       ??0CGuiScreenSkinGallery@@QAE@PAVScreen@Scrooby@@PAVCGuiEntity@@@Z 00473440 f   guiscreenskingallery.obj
 0001:00073050       ??1CGuiScreenSkinGallery@@UAE@XZ 004736d0 f   guiscreenskingallery.obj
 0001:000730e0       ?InitIntro@CGuiScreenSkinGallery@@MAEXXZ 00473760 f   guiscreenskingallery.obj
 0001:00073170       ?OnUpdate@CGuiScreenSkinGallery@@AAEXI@Z 004737f0 f   guiscreenskingallery.obj
 0001:00073590       ?Unload2DImages@CGuiScreenSkinGallery@@AAEXXZ 00473c10 f   guiscreenskingallery.obj
 0001:00073620       ??_ECGuiScreenSkinGallery@@UAEPAXI@Z 00473ca0 f i guiscreenskingallery.obj
 0001:00073620       ??_GCGuiScreenSkinGallery@@UAEPAXI@Z 00473ca0 f i guiscreenskingallery.obj
 0001:00073640       ?HandleMessage@CGuiScreenSkinGallery@@UAEXW4eGuiMessage@@II@Z 00473cc0 f   guiscreenskingallery.obj
 0001:00073710       ?InitOutro@CGuiScreenSkinGallery@@MAEXXZ 00473d90 f   guiscreenskingallery.obj
 0001:00073740       ?OnProcessRequestsComplete@CGuiScreenSkinGallery@@UAEXPAX@Z 00473dc0 f   guiscreenskingallery.obj
 0001:000738a0       ??0CGuiScreenSound@@QAE@PAVScreen@Scrooby@@PAVCGuiEntity@@@Z 00473f20 f   guiscreensound.obj
 0001:00073b70       ??1CGuiScreenSound@@UAE@XZ 004741f0 f   guiscreensound.obj
 0001:00073be0       ?HandleMessage@CGuiScreenSound@@UAEXW4eGuiMessage@@II@Z 00474260 f   guiscreensound.obj
 0001:00073da0       ?InitIntro@CGuiScreenSound@@MAEXXZ 00474420 f   guiscreensound.obj
 0001:00073f20       ??_ECGuiScreenSound@@UAEPAXI@Z 004745a0 f i guiscreensound.obj
 0001:00073f20       ??_GCGuiScreenSound@@UAEPAXI@Z 004745a0 f i guiscreensound.obj
 0001:00073f40       ??1CGuiScreenSplash@@UAE@XZ 004745c0 f   guiscreensplash.obj
 0001:00073fb0       ?InitRunning@CGuiScreenSplash@@MAEXXZ 00474630 f   guiscreensplash.obj
 0001:00073fc0       ?StartDemoInRuntime@CGuiScreenSplash@@AAEXXZ 00474640 f   guiscreensplash.obj
 0001:00073fd0       ?StartDemoAsMovie@CGuiScreenSplash@@AAEXXZ 00474650 f   guiscreensplash.obj
 0001:00074000       ??0CGuiScreenSplash@@QAE@PAVScreen@Scrooby@@PAVCGuiEntity@@@Z 00474680 f   guiscreensplash.obj
 0001:00074150       ??_GCGuiScreenSplash@@UAEPAXI@Z 004747d0 f i guiscreensplash.obj
 0001:00074150       ??_ECGuiScreenSplash@@UAEPAXI@Z 004747d0 f i guiscreensplash.obj
 0001:00074170       ?HandleMessage@CGuiScreenSplash@@UAEXW4eGuiMessage@@II@Z 004747f0 f   guiscreensplash.obj
 0001:00074350       ?OnMenuSelectionChange@CGuiScreenVehicleGallery@@AAEXH@Z 004749d0 f   guiscreenvehiclegallery.obj
 0001:000743c0       ?OnMenuSelectionMade@CGuiScreenVehicleGallery@@AAEXH@Z 00474a40 f   guiscreenvehiclegallery.obj
 0001:00074570       ?SetMenuAlpha@CGuiScreenVehicleGallery@@AAEXM@Z 00474bf0 f   guiscreenvehiclegallery.obj
 0001:000745c0       ?Load2DImages@CGuiScreenVehicleGallery@@AAEXXZ 00474c40 f   guiscreenvehiclegallery.obj
 0001:00074820       ??0CGuiScreenVehicleGallery@@QAE@PAVScreen@Scrooby@@PAVCGuiEntity@@@Z 00474ea0 f   guiscreenvehiclegallery.obj
 0001:00074ac0       ??1CGuiScreenVehicleGallery@@UAE@XZ 00475140 f   guiscreenvehiclegallery.obj
 0001:00074b50       ?InitIntro@CGuiScreenVehicleGallery@@MAEXXZ 004751d0 f   guiscreenvehiclegallery.obj
 0001:00074b90       ?OnUpdate@CGuiScreenVehicleGallery@@AAEXI@Z 00475210 f   guiscreenvehiclegallery.obj
 0001:00074fa0       ?Unload2DImages@CGuiScreenVehicleGallery@@AAEXXZ 00475620 f   guiscreenvehiclegallery.obj
 0001:00075030       ??_GCGuiScreenVehicleGallery@@UAEPAXI@Z 004756b0 f i guiscreenvehiclegallery.obj
 0001:00075030       ??_ECGuiScreenVehicleGallery@@UAEPAXI@Z 004756b0 f i guiscreenvehiclegallery.obj
 0001:00075050       ?HandleMessage@CGuiScreenVehicleGallery@@UAEXW4eGuiMessage@@II@Z 004756d0 f   guiscreenvehiclegallery.obj
 0001:00075120       ?InitOutro@CGuiScreenVehicleGallery@@MAEXXZ 004757a0 f   guiscreenvehiclegallery.obj
 0001:00075150       ?OnProcessRequestsComplete@CGuiScreenVehicleGallery@@UAEXPAX@Z 004757d0 f   guiscreenvehiclegallery.obj
 0001:000752b0       ??1CGuiScreenViewCredits@@UAE@XZ 00475930 f   guiscreenviewcredits.obj
 0001:000752c0       ?InitRunning@CGuiScreenViewCredits@@MAEXXZ 00475940 f   guiscreenviewcredits.obj
 0001:000752e0       ?InitOutro@CGuiScreenViewCredits@@MAEXXZ 00475960 f   guiscreenviewcredits.obj
 0001:00075320       ?ResetScrolling@CGuiScreenViewCredits@@IAEXXZ 004759a0 f   guiscreenviewcredits.obj
 0001:00075350       ?FormatTextWithLineBreaks@CGuiScreenViewCredits@@AAEMPAVText@Scrooby@@@Z 004759d0 f   guiscreenviewcredits.obj
 0001:000753e0       ?OnScrollingDone@CGuiScreenViewCredits@@EAEXXZ 00475a60 f   guiscreenviewcredits.obj
 0001:00075410       ??0CGuiScreenViewCredits@@QAE@PAVScreen@Scrooby@@PAVCGuiEntity@@@Z 00475a90 f   guiscreenviewcredits.obj
 0001:00075660       ??_GCGuiScreenViewCredits@@UAEPAXI@Z 00475ce0 f i guiscreenviewcredits.obj
 0001:00075660       ??_ECGuiScreenViewCredits@@UAEPAXI@Z 00475ce0 f i guiscreenviewcredits.obj
 0001:00075680       ?InitIntro@CGuiScreenViewCredits@@MAEXXZ 00475d00 f   guiscreenviewcredits.obj
 0001:00075710       ?OnNewLineDisplayed@CGuiScreenViewCredits@@AAEXH@Z 00475d90 f   guiscreenviewcredits.obj
 0001:00075740       ?ScrollCredits@CGuiScreenViewCredits@@AAE_NM@Z 00475dc0 f   guiscreenviewcredits.obj
 0001:00075820       ?HandleMessage@CGuiScreenViewCredits@@UAEXW4eGuiMessage@@II@Z 00475ea0 f   guiscreenviewcredits.obj
 0001:000759d0       ??0CGuiScreenViewMovies@@QAE@PAVScreen@Scrooby@@PAVCGuiEntity@@@Z 00476050 f   guiscreenviewmovies.obj
 0001:00075ae0       ??1CGuiScreenViewMovies@@UAE@XZ 00476160 f   guiscreenviewmovies.obj
 0001:00075b50       ?HandleMessage@CGuiScreenViewMovies@@UAEXW4eGuiMessage@@II@Z 004761d0 f   guiscreenviewmovies.obj
 0001:00075bf0       ?InitIntro@CGuiScreenViewMovies@@MAEXXZ 00476270 f   guiscreenviewmovies.obj
 0001:00075c50       ??_ECGuiScreenViewMovies@@UAEPAXI@Z 004762d0 f i guiscreenviewmovies.obj
 0001:00075c50       ??_GCGuiScreenViewMovies@@UAEPAXI@Z 004762d0 f i guiscreenviewmovies.obj
 0001:00075c70       ?IsHudScreen@CGuiManagerInGame@@ABE_NW4eGuiWindowID@CGuiWindow@@@Z 004762f0 f i guimanageringame.obj
 0001:00075c90       ??1CGuiManagerInGame@@UAE@XZ 00476310 f   guimanageringame.obj
 0001:00075d40       ?Populate@CGuiManagerInGame@@UAEXXZ 004763c0 f   guimanageringame.obj
 0001:00076570       ?Start@CGuiManagerInGame@@UAEXW4eGuiWindowID@CGuiWindow@@@Z 00476bf0 f   guimanageringame.obj
 0001:000765b0       ?HandleEvent@CGuiManagerInGame@@UAEXW4EventEnum@@PAX@Z 00476c30 f   guimanageringame.obj
 0001:000766c0       ?OnProjectLoadComplete@CGuiManagerInGame@@UAEXPAVProject@Scrooby@@@Z 00476d40 f   guimanageringame.obj
 0001:000766f0       ?OnMemcardInfoLoadComplete@CGuiManagerInGame@@UAEXXZ 00476d70 f   guimanageringame.obj
 0001:00076710       ?UpdateDuringMissionLoading@CGuiManagerInGame@@AAEXI@Z 00476d90 f   guimanageringame.obj
 0001:00076730       ?GotoPauseScreen@CGuiManagerInGame@@AAEXXZ 00476db0 f   guimanageringame.obj
 0001:00076770       ?GotoHUDScreen@CGuiManagerInGame@@AAEXXZ 00476df0 f   guimanageringame.obj
 0001:000768b0       ?OnControllerDisconnected@CGuiManagerInGame@@AAEXH@Z 00476f30 f   guimanageringame.obj
 0001:00076910       ?OnControllerConnected@CGuiManagerInGame@@AAEXH@Z 00476f90 f   guimanageringame.obj
 0001:00076980       ?OnNewMissionLoadBegin@CGuiManagerInGame@@AAEXXZ 00477000 f   guimanageringame.obj
 0001:000769d0       ?OnNewMissionLoadEnd@CGuiManagerInGame@@AAEXXZ 00477050 f   guimanageringame.obj
 0001:00076a20       ?Activate@AbortCurrentMission@GuiSFX@@UAEXXZ 004770a0 f   guimanageringame.obj
 0001:00076a50       ?Activate@RestartCurrentMission@GuiSFX@@UAEXXZ 004770d0 f   guimanageringame.obj
 0001:00076a70       ??_ECGuiManagerInGame@@WBA@AEPAXI@Z 004770f0 f i guimanageringame.obj
 0001:00076a80       ??0CGuiManagerInGame@@QAE@PAVProject@Scrooby@@PAVCGuiEntity@@@Z 00477100 f   guimanageringame.obj
 0001:00076cd0       ??_GCGuiManagerInGame@@UAEPAXI@Z 00477350 f i guimanageringame.obj
 0001:00076cd0       ??_ECGuiManagerInGame@@UAEPAXI@Z 00477350 f i guimanageringame.obj
 0001:00076cf0       ?UpdateDuringDynamicLoading@CGuiManagerInGame@@AAEXI@Z 00477370 f   guimanageringame.obj
 0001:00076de0       ?QuitGame@CGuiManagerInGame@@AAEXXZ 00477460 f   guimanageringame.obj
 0001:00076e70       ?UpdateWhileLoadingNotDone@CGuiManagerInGame@@AAEXI@Z 004774f0 f   guimanageringame.obj
 0001:00076ec0       ?HandleMessage@CGuiManagerInGame@@UAEXW4eGuiMessage@@II@Z 00477540 f   guimanageringame.obj
 0001:000775d0       ??0CGuiScreenCreditsPostFMV@@QAE@PAVScreen@Scrooby@@PAVCGuiEntity@@@Z 00477c50 f   guiscreencreditspostfmv.obj
 0001:000776a0       ??1CGuiScreenCreditsPostFMV@@UAE@XZ 00477d20 f   guiscreencreditspostfmv.obj
 0001:00077710       ?HandleMessage@CGuiScreenCreditsPostFMV@@UAEXW4eGuiMessage@@II@Z 00477d90 f   guiscreencreditspostfmv.obj
 0001:00077750       ?InitIntro@CGuiScreenCreditsPostFMV@@MAEXXZ 00477dd0 f   guiscreencreditspostfmv.obj
 0001:00077790       ?InitOutro@CGuiScreenCreditsPostFMV@@MAEXXZ 00477e10 f   guiscreencreditspostfmv.obj
 0001:000777b0       ?OnScrollingDone@CGuiScreenCreditsPostFMV@@EAEXXZ 00477e30 f   guiscreencreditspostfmv.obj
 0001:000777c0       ??_GCGuiScreenCreditsPostFMV@@UAEPAXI@Z 00477e40 f i guiscreencreditspostfmv.obj
 0001:000777c0       ??_ECGuiScreenCreditsPostFMV@@UAEPAXI@Z 00477e40 f i guiscreencreditspostfmv.obj
 0001:000777e0       ??0CGuiScreenHasTransitions@@QAE@XZ 00477e60 f   guiscreenhastransitions.obj
 0001:00077800       ?AddTransition@CGuiScreenHasTransitions@@IAEXAAVTransition@GuiSFX@@@Z 00477e80 f   guiscreenhastransitions.obj
 0001:00077820       ?DoneAddingTransitions@CGuiScreenHasTransitions@@IAEXXZ 00477ea0 f   guiscreenhastransitions.obj
 0001:00077830       ?ResetMovableObjects@CGuiScreenHasTransitions@@IAEXXZ 00477eb0 f   guiscreenhastransitions.obj
 0001:00077870       ?ResetTransitions@CGuiScreenHasTransitions@@IAEXXZ 00477ef0 f   guiscreenhastransitions.obj
 0001:00077890       ?UpdateTransitions@CGuiScreenHasTransitions@@IAEXM@Z 00477f10 f   guiscreenhastransitions.obj
 0001:000778d0       ??0MessageQueue@@QAE@XZ    00477f50 f   guiscreenhud.obj
 0001:000778f0       ??1MessageQueue@@UAE@XZ    00477f70 f   guiscreenhud.obj
 0001:00077900       ?Enqueue@MessageQueue@@QAEXI@Z 00477f80 f   guiscreenhud.obj
 0001:00077940       ?Dequeue@MessageQueue@@QAEIXZ 00477fc0 f   guiscreenhud.obj
 0001:00077980       ??1CGuiScreenHud@@UAE@XZ   00478000 f   guiscreenhud.obj
 0001:00077a50       ?SetVisible@CGuiScreenHud@@QAEX_N@Z 004780d0 f   guiscreenhud.obj
 0001:00077ae0       ?SetTimerBlinkingInterval@CGuiScreenHud@@QAEXHH@Z 00478160 f   guiscreenhud.obj
 0001:00077b00       ?SetParTime@CGuiScreenHud@@QAEXH@Z 00478180 f   guiscreenhud.obj
 0001:00077b50       ?SetCollectibles@CGuiScreenHud@@QAEXHH@Z 004781d0 f   guiscreenhud.obj
 0001:00077bc0       ?SetRacePosition@CGuiScreenHud@@QAEXHH@Z 00478240 f   guiscreenhud.obj
 0001:00077c70       ?SetLap@CGuiScreenHud@@QAEXHH@Z 004782f0 f   guiscreenhud.obj
 0001:00077d10       ?SetDamageMeter@CGuiScreenHud@@QAEXM@Z 00478390 f   guiscreenhud.obj
 0001:00077d30       ?SetProximityMeter@CGuiScreenHud@@QAEXM@Z 004783b0 f   guiscreenhud.obj
 0001:00077d50       ?SetHitAndRunMeter@CGuiScreenHud@@QAEXM@Z 004783d0 f   guiscreenhud.obj
 0001:00077ec0       ?DisplayMessage@CGuiScreenHud@@QAEX_NH@Z 00478540 f   guiscreenhud.obj
 0001:00077fd0       ?HandleEvent@CGuiScreenHud@@UAEXW4EventEnum@@PAX@Z 00478650 f   guiscreenhud.obj
 0001:000782c0       ?SetNumCoinsDisplay@CGuiScreenHud@@SAXPAVSprite@Scrooby@@@Z 00478940 f   guiscreenhud.obj
 0001:00078310       ?UpdateNumCoinsDisplay@CGuiScreenHud@@SAXH_N@Z 00478990 f   guiscreenhud.obj
 0001:000783f0       ?InitIntro@CGuiScreenHud@@MAEXXZ 00478a70 f   guiscreenhud.obj
 0001:00078480       ?InitRunning@CGuiScreenHud@@MAEXXZ 00478b00 f   guiscreenhud.obj
 0001:000784c0       ?InitOutro@CGuiScreenHud@@MAEXXZ 00478b40 f   guiscreenhud.obj
 0001:000784f0       ?UpdateEventHandlers@CGuiScreenHud@@AAEXI@Z 00478b70 f   guiscreenhud.obj
 0001:00078540       ?UpdateTimer@CGuiScreenHud@@AAEXI@Z 00478bc0 f   guiscreenhud.obj
 0001:00078740       ??_ECGuiScreenHud@@WCEE@AEPAXI@Z 00478dc0 f i guiscreenhud.obj
 0001:00078750       ??_GMessageQueue@@UAEPAXI@Z 00478dd0 f i guiscreenhud.obj
 0001:00078750       ??_EMessageQueue@@UAEPAXI@Z 00478dd0 f i guiscreenhud.obj
 0001:00078770       ??0CGuiScreenHud@@QAE@PAVScreen@Scrooby@@PAVCGuiEntity@@@Z 00478df0 f   guiscreenhud.obj
 0001:000791f0       ??_GCGuiScreenHud@@UAEPAXI@Z 00479870 f i guiscreenhud.obj
 0001:000791f0       ??_ECGuiScreenHud@@UAEPAXI@Z 00479870 f i guiscreenhud.obj
 0001:00079210       ?UpdateOverlays@CGuiScreenHud@@AAEXI@Z 00479890 f   guiscreenhud.obj
 0001:00079600       ?Update@CGuiScreenHud@@QAEXI@Z 00479c80 f   guiscreenhud.obj
 0001:00079940       ?HandleMessage@CGuiScreenHud@@UAEXW4eGuiMessage@@II@Z 00479fc0 f   guiscreenhud.obj
 0001:00079d40       ??1CGuiScreenIrisWipe@@UAE@XZ 0047a3c0 f   guiscreeniriswipe.obj
 0001:00079d50       ?DoNotOpenOnNextOutro@CGuiScreenIrisWipe@@SAXXZ 0047a3d0 f   guiscreeniriswipe.obj
 0001:00079d60       ?HandleMessage@CGuiScreenIrisWipe@@UAEXW4eGuiMessage@@II@Z 0047a3e0 f   guiscreeniriswipe.obj
 0001:00079e90       ?InitIntro@CGuiScreenIrisWipe@@MAEXXZ 0047a510 f   guiscreeniriswipe.obj
 0001:00079f30       ?InitRunning@CGuiScreenIrisWipe@@MAEXXZ 0047a5b0 f   guiscreeniriswipe.obj
 0001:00079f40       ?InitOutro@CGuiScreenIrisWipe@@MAEXXZ 0047a5c0 f   guiscreeniriswipe.obj
 0001:00079fe0       ??_ECGuiScreenIrisWipe@@UAEPAXI@Z 0047a660 f i guiscreeniriswipe.obj
 0001:00079fe0       ??_GCGuiScreenIrisWipe@@UAEPAXI@Z 0047a660 f i guiscreeniriswipe.obj
 0001:0007a000       ??0CGuiScreenIrisWipe@@QAE@PAVScreen@Scrooby@@PAVCGuiEntity@@@Z 0047a680 f   guiscreeniriswipe.obj
 0001:0007a120       ??1CGuiScreenLetterBox@@UAE@XZ 0047a7a0 f   guiscreenletterbox.obj
 0001:0007a180       ?ForceOpen@CGuiScreenLetterBox@@SAXXZ 0047a800 f   guiscreenletterbox.obj
 0001:0007a190       ?HandleEvent@CGuiScreenLetterBox@@UAEXW4EventEnum@@PAX@Z 0047a810 f   guiscreenletterbox.obj
 0001:0007a1b0       ?InitOutro@CGuiScreenLetterBox@@MAEXXZ 0047a830 f   guiscreenletterbox.obj
 0001:0007a320       ?SurpressSkipButton@CGuiScreenLetterBox@@SAXXZ 0047a9a0 f   guiscreenletterbox.obj
 0001:0007a330       ?UnSurpressSkipButton@CGuiScreenLetterBox@@SAXXZ 0047a9b0 f   guiscreenletterbox.obj
 0001:0007a340       ?OnSkip@CGuiScreenLetterBox@@AAEXXZ 0047a9c0 f   guiscreenletterbox.obj
 0001:0007a340       ?OnAccept@CGuiScreenLetterBox@@AAEXXZ 0047a9c0 f   guiscreenletterbox.obj
 0001:0007a370       ?OnCancel@CGuiScreenLetterBox@@AAEXXZ 0047a9f0 f   guiscreenletterbox.obj
 0001:0007a430       ?SetIntroFromOpen@CGuiScreenLetterBox@@IAEXXZ 0047aab0 f   guiscreenletterbox.obj
 0001:0007a4a0       ??_ECGuiScreenLetterBox@@WJI@AEPAXI@Z 0047ab20 f i guiscreenletterbox.obj
 0001:0007a4b0       ??0CGuiScreenLetterBox@@QAE@PAVScreen@Scrooby@@PAVCGuiEntity@@@Z 0047ab30 f   guiscreenletterbox.obj
 0001:0007a960       ??_ECGuiScreenLetterBox@@UAEPAXI@Z 0047afe0 f i guiscreenletterbox.obj
 0001:0007a960       ??_GCGuiScreenLetterBox@@UAEPAXI@Z 0047afe0 f i guiscreenletterbox.obj
 0001:0007a980       ?HandleMessage@CGuiScreenLetterBox@@UAEXW4eGuiMessage@@II@Z 0047b000 f   guiscreenletterbox.obj
 0001:0007aae0       ?InitIntro@CGuiScreenLetterBox@@MAEXXZ 0047b160 f   guiscreenletterbox.obj
 0001:0007acd0       ??0CGuiScreenLevelEnd@@QAE@PAVScreen@Scrooby@@PAVCGuiEntity@@@Z 0047b350 f   guiscreenlevelend.obj
 0001:0007ad00       ??1CGuiScreenLevelEnd@@UAE@XZ 0047b380 f   guiscreenlevelend.obj
 0001:0007ad10       ?HandleMessage@CGuiScreenLevelEnd@@UAEXW4eGuiMessage@@II@Z 0047b390 f   guiscreenlevelend.obj
 0001:0007ad60       ?InitIntro@CGuiScreenLevelEnd@@MAEXXZ 0047b3e0 f   guiscreenlevelend.obj
 0001:0007adb0       ??_GCGuiScreenLevelEnd@@UAEPAXI@Z 0047b430 f i guiscreenlevelend.obj
 0001:0007adb0       ??_ECGuiScreenLevelEnd@@UAEPAXI@Z 0047b430 f i guiscreenlevelend.obj
 0001:0007add0       ??0CGuiScreenLevelStats@@QAE@PAVScreen@Scrooby@@PAVCGuiEntity@@W4eGuiWindowID@CGuiWindow@@@Z 0047b450 f   guiscreenlevelstats.obj
 0001:0007afa0       ??1CGuiScreenLevelStats@@UAE@XZ 0047b620 f   guiscreenlevelstats.obj
 0001:0007afb0       ?HandleMessage@CGuiScreenLevelStats@@UAEXW4eGuiMessage@@II@Z 0047b630 f   guiscreenlevelstats.obj
 0001:0007aff0       ?UpdateLevelStats@CGuiScreenLevelStats@@IAEXXZ 0047b670 f   guiscreenlevelstats.obj
 0001:0007b260       ??_GCGuiScreenLevelStats@@UAEPAXI@Z 0047b8e0 f i guiscreenlevelstats.obj
 0001:0007b260       ??_ECGuiScreenLevelStats@@UAEPAXI@Z 0047b8e0 f i guiscreenlevelstats.obj
 0001:0007b280       ?InitIntro@CGuiScreenLevelStats@@MAEXXZ 0047b900 f   guiscreenlevelstats.obj
 0001:0007b290       ?ClearBitmap@CGuiScreenMissionBase@@SAXXZ 0047b910 f   guiscreenmissionbase.obj
 0001:0007b2a0       ?GetBitmapName@CGuiScreenMissionBase@@SAXPAD@Z 0047b920 f   guiscreenmissionbase.obj
 0001:0007b2c0       ?GetFlag@CGuiScreenMissionBase@@IAEPAVDrawable@Scrooby@@XZ 0047b940 f   guiscreenmissionbase.obj
 0001:0007b2e0       ?GetLoadCompletedGroup@CGuiScreenMissionBase@@IAEPAVGroup@Scrooby@@XZ 0047b960 f   guiscreenmissionbase.obj
 0001:0007b2f0       ?GetMissionInfoText@CGuiScreenMissionBase@@IAEPAVText@Scrooby@@XZ 0047b970 f   guiscreenmissionbase.obj
 0001:0007b300       ?GetMissionStartBitmap@CGuiScreenMissionBase@@IAEPAVBoundedDrawable@Scrooby@@XZ 0047b980 f   guiscreenmissionbase.obj
 0001:0007b320       ?GetTitleText@CGuiScreenMissionBase@@IAEPAVText@Scrooby@@XZ 0047b9a0 f   guiscreenmissionbase.obj
 0001:0007b330       ?InitIntroWagerMission@CGuiScreenMissionBase@@IAEXXZ 0047b9b0 f   guiscreenmissionbase.obj
 0001:0007b4e0       ?InitOutro@CGuiScreenMissionBase@@UAEXXZ 0047bb60 f   guiscreenmissionbase.obj
 0001:0007b590       ?IsCurrentBitmap@CGuiScreenMissionBase@@SA_NPBD@Z 0047bc10 f   guiscreenmissionbase.obj
 0001:0007b5e0       ?RemoveAnimatedBitmap@CGuiScreenMissionBase@@KAXXZ 0047bc60 f   guiscreenmissionbase.obj
 0001:0007b600       ?SetBitmapName@CGuiScreenMissionBase@@SAXPBD@Z 0047bc80 f   guiscreenmissionbase.obj
 0001:0007b700       ?SetPlayAnimatedCamera@CGuiScreenMissionBase@@IAEX_N@Z 0047bd80 f   guiscreenmissionbase.obj
 0001:0007b710       ?UpdateGamblingInfo@CGuiScreenMissionBase@@IAEXXZ 0047bd90 f   guiscreenmissionbase.obj
 0001:0007b940       ?safe_cast@?$SafeCast@VtEntity@@@radLoadInventory@@UAEPAUIRefCount@@PAU3@@Z 0047bfc0 f i guiscreenmissionbase.obj
 0001:0007b960       ??1CGuiScreenMissionBase@@UAE@XZ 0047bfe0 f   guiscreenmissionbase.obj
 0001:0007b9f0       ?ReplaceBitmap@CGuiScreenMissionBase@@SAXXZ 0047c070 f   guiscreenmissionbase.obj
 0001:0007bab0       ?UnloadBitmap@CGuiScreenMissionBase@@IAEXXZ 0047c130 f   guiscreenmissionbase.obj
 0001:0007bb10       ??0?$Iterator@VtEntity@@@tInventory@@QAE@PAV1@@Z 0047c190 f i guiscreenmissionbase.obj
 0001:0007bb90       ??_ECGuiScreenMissionBase@@UAEPAXI@Z 0047c210 f i guiscreenmissionbase.obj
 0001:0007bb90       ??_GCGuiScreenMissionBase@@UAEPAXI@Z 0047c210 f i guiscreenmissionbase.obj
 0001:0007bbb0       ?InitIntro@CGuiScreenMissionBase@@UAEXXZ 0047c230 f   guiscreenmissionbase.obj
 0001:0007bf70       ?OutroDone@CGuiScreenMissionBase@@MAEXXZ 0047c5f0 f   guiscreenmissionbase.obj
 0001:0007c000       ??1?$Iterator@VLocator@@@tInventory@@QAE@XZ 0047c680 f i missionmanager.obj
 0001:0007c000       ??1?$Iterator@VEventLocator@@@tInventory@@QAE@XZ 0047c680 f i wrecklesscam.obj
 0001:0007c000       ??1?$Iterator@VtEntity@@@tInventory@@QAE@XZ 0047c680 f i guiscreenmissionbase.obj
 0001:0007c000       ??1?$Iterator@VFollowCamDataChunk@@@tInventory@@QAE@XZ 0047c680 f i followcam.obj
 0001:0007c000       ??1?$Iterator@VWalkerCamDataChunk@@@tInventory@@QAE@XZ 0047c680 f i walkercam.obj
 0001:0007c030       ?Next@?$Iterator@VtEntity@@@tInventory@@QAEPAVtEntity@@XZ 0047c6b0 f i guiscreenmissionbase.obj
 0001:0007c070       ??0CGuiScreenMissionBase@@QAE@PAVScreen@Scrooby@@PAVCGuiEntity@@W4eGuiWindowID@CGuiWindow@@@Z 0047c6f0 f   guiscreenmissionbase.obj
 0001:0007cab0       ?UpdateAnimatedBitmap@CGuiScreenMissionBase@@IAEXM@Z 0047d130 f   guiscreenmissionbase.obj
 0001:0007cd80       ?HandleMessage@CGuiScreenMissionBase@@UAEXW4eGuiMessage@@II@Z 0047d400 f   guiscreenmissionbase.obj
 0001:0007cef0       ?AddListeners@CGuiScreenMissionLoad@@MAEXXZ 0047d570 f   guiscreenmissionload.obj
 0001:0007cf30       ?ExtractNormalPositions@CGuiScreenMissionLoad@@IAEXXZ 0047d5b0 f   guiscreenmissionload.obj
 0001:0007cf90       ?HandleEvent@CGuiScreenMissionLoad@@UAEXW4EventEnum@@PAX@Z 0047d610 f   guiscreenmissionload.obj
 0001:0007cff0       ?HandleMessage@CGuiScreenMissionLoad@@UAEXW4eGuiMessage@@II@Z 0047d670 f   guiscreenmissionload.obj
 0001:0007d1d0       ?InitializePermanentVariables@CGuiScreenMissionLoad@@SAXXZ 0047d850 f   guiscreenmissionload.obj
 0001:0007d1f0       ?InitOutro@CGuiScreenMissionLoad@@UAEXXZ 0047d870 f   guiscreenmissionload.obj
 0001:0007d220       ?InitPositionsNormal@CGuiScreenMissionLoad@@IAEXXZ 0047d8a0 f   guiscreenmissionload.obj
 0001:0007d2a0       ?InitPositionsWager@CGuiScreenMissionLoad@@IAEXXZ 0047d920 f   guiscreenmissionload.obj
 0001:0007d330       ??0CGuiScreenMissionLoad@@QAE@PAVScreen@Scrooby@@PAVCGuiEntity@@@Z 0047d9b0 f   guiscreenmissionload.obj
 0001:0007d4b0       ??_ECGuiScreenMissionLoad@@WCCE@AEPAXI@Z 0047db30 f i guiscreenmissionload.obj
 0001:0007d4c0       ??1CGuiScreenMissionLoad@@UAE@XZ 0047db40 f   guiscreenmissionload.obj
 0001:0007d540       ?InitIntro@CGuiScreenMissionLoad@@UAEXXZ 0047dbc0 f   guiscreenmissionload.obj
 0001:0007d6c0       ??_ECGuiScreenMissionLoad@@UAEPAXI@Z 0047dd40 f i guiscreenmissionload.obj
 0001:0007d6c0       ??_GCGuiScreenMissionLoad@@UAEPAXI@Z 0047dd40 f i guiscreenmissionload.obj
 0001:0007d6e0       ??0CGuiScreenMissionOver@@QAE@PAVScreen@Scrooby@@PAVCGuiEntity@@@Z 0047dd60 f   guiscreenmissionover.obj
 0001:0007d870       ?HasMenu@CGuiScreenMissionSelect@@UAEPAVCGuiMenu@@XZ 0047def0 f i guiscreenmissionselect.obj
 0001:0007d870       ?HasMenu@CGuiScreenOptions@@UAEPAVCGuiMenu@@XZ 0047def0 f i guiscreenoptions.obj
 0001:0007d870       ?HasMenu@CGuiScreenSkinGallery@@UAEPAVCGuiMenu@@XZ 0047def0 f i guiscreenskingallery.obj
 0001:0007d870       ?HasMenu@CGuiScreenVehicleGallery@@UAEPAVCGuiMenu@@XZ 0047def0 f i guiscreenvehiclegallery.obj
 0001:0007d870       ?HasMenu@CGuiScreenMissionOver@@UAEPAVCGuiMenu@@XZ 0047def0 f i guiscreenmissionover.obj
 0001:0007d870       ?HasMenu@CGuiScreenPauseSettings@@UAEPAVCGuiMenu@@XZ 0047def0 f i guiscreenpausesettings.obj
 0001:0007d870       ?HasMenu@CGuiScreenMissionGallery@@UAEPAVCGuiMenu@@XZ 0047def0 f i guiscreenmissiongallery.obj
 0001:0007d880       ??1CGuiScreenMissionOver@@UAE@XZ 0047df00 f   guiscreenmissionover.obj
 0001:0007d920       ?HandleMessage@CGuiScreenMissionOver@@UAEXW4eGuiMessage@@II@Z 0047dfa0 f   guiscreenmissionover.obj
 0001:0007d9a0       ?InitIntro@CGuiScreenMissionOver@@MAEXXZ 0047e020 f   guiscreenmissionover.obj
 0001:0007da20       ?InitOutro@CGuiScreenMissionOver@@MAEXXZ 0047e0a0 f   guiscreenmissionover.obj
 0001:0007da40       ?SetFailureMessage@CGuiScreenMissionOver@@AAEXW4ConditionTypeEnum@MissionCondition@@@Z 0047e0c0 f   guiscreenmissionover.obj
 0001:0007db30       ??_ECGuiScreenMissionOver@@WJI@AEPAXI@Z 0047e1b0 f i guiscreenmissionover.obj
 0001:0007db40       ??_ECGuiScreenMissionOver@@UAEPAXI@Z 0047e1c0 f i guiscreenmissionover.obj
 0001:0007db40       ??_GCGuiScreenMissionOver@@UAEPAXI@Z 0047e1c0 f i guiscreenmissionover.obj
 0001:0007db60       ?HandleEvent@CGuiScreenMissionOver@@UAEXW4EventEnum@@PAX@Z 0047e1e0 f   guiscreenmissionover.obj
 0001:0007dba0       ??0CGuiScreenMissionSelect@@QAE@PAVScreen@Scrooby@@PAVCGuiEntity@@@Z 0047e220 f   guiscreenmissionselect.obj
 0001:0007df50       ??1CGuiScreenMissionSelect@@UAE@XZ 0047e5d0 f   guiscreenmissionselect.obj
 0001:0007dfd0       ?UpdateMissionStatus@CGuiScreenMissionSelect@@AAEXHPAUMissionRecord@@@Z 0047e650 f   guiscreenmissionselect.obj
 0001:0007e010       ??_ECGuiScreenMissionSelect@@UAEPAXI@Z 0047e690 f i guiscreenmissionselect.obj
 0001:0007e010       ??_GCGuiScreenMissionSelect@@UAEPAXI@Z 0047e690 f i guiscreenmissionselect.obj
 0001:0007e030       ?OnLevelSelectionChange@CGuiScreenMissionSelect@@AAEXH@Z 0047e6b0 f   guiscreenmissionselect.obj
 0001:0007e170       ?HandleMessage@CGuiScreenMissionSelect@@UAEXW4eGuiMessage@@II@Z 0047e7f0 f   guiscreenmissionselect.obj
